{
  "main_library": {
    "exported_symbols": [
      {
        "data": {
          "global": [
            "__ZTIN7leveldb10EnvWrapperE",
            "__ZTVN7leveldb10EnvWrapperE",
            "__ZTSN7leveldb8SnapshotE",
            "__ZTSN7leveldb6DBImplE",
            "__ZTIN7leveldb6LoggerE",
            "__ZTVN7leveldb21InternalKeyComparatorE",
            "__ZTVN7leveldb8FileLockE",
            "__ZTSN7leveldb21InternalKeyComparatorE",
            "__ZTSN7leveldb3EnvE",
            "__ZTVN7leveldb3log6Reader8ReporterE",
            "__ZTIN7leveldb20InternalFilterPolicyE",
            "__ZTVN7leveldb8IteratorE",
            "__ZTIN7leveldb8FileLockE",
            "__ZTIN7leveldb10ComparatorE",
            "__ZTSN7leveldb12FilterPolicyE",
            "__ZTVN7leveldb5CacheE",
            "__ZTIN7leveldb3EnvE",
            "__ZTSN7leveldb10EnvWrapperE",
            "__ZTVN7leveldb10WriteBatch7HandlerE",
            "__ZTSN7leveldb20InternalFilterPolicyE",
            "__ZTIN7leveldb8SnapshotE",
            "__ZTIN7leveldb2DBE",
            "__ZTSN7leveldb2DBE",
            "__ZTIN7leveldb3log6Reader8ReporterE",
            "__ZTIN7leveldb5CacheE",
            "__ZTSN7leveldb8FileLockE",
            "__ZTVN7leveldb6LoggerE",
            "__ZTIN7leveldb6DBImplE",
            "__ZTIN7leveldb12FilterPolicyE",
            "__ZTSN7leveldb12WritableFileE",
            "_leveldbVersionString",
            "__ZTIN7leveldb21InternalKeyComparatorE",
            "_leveldbVersionNumber",
            "__ZTVN7leveldb12WritableFileE",
            "__ZTIN7leveldb12WritableFileE",
            "__ZTVN7leveldb2DBE",
            "__ZTSN7leveldb10WriteBatch7HandlerE",
            "__ZTIN7leveldb10WriteBatch7HandlerE",
            "__ZTIN7leveldb16RandomAccessFileE",
            "__ZTVN7leveldb16RandomAccessFileE",
            "__ZTSN7leveldb14SequentialFileE",
            "__ZTVN7leveldb20InternalFilterPolicyE",
            "__ZTVN7leveldb3EnvE",
            "__ZTVN7leveldb12FilterPolicyE",
            "__ZTVN7leveldb6DBImplE",
            "__ZTSN7leveldb8IteratorE",
            "__ZTVN7leveldb8SnapshotE",
            "__ZN7leveldb9Histogram12kBucketLimitE",
            "__ZTSN7leveldb16RandomAccessFileE",
            "__ZTSN7leveldb10ComparatorE",
            "__ZTSN7leveldb3log6Reader8ReporterE",
            "__ZTVN7leveldb14SequentialFileE",
            "__ZTIN7leveldb8IteratorE",
            "__ZTSN7leveldb5CacheE",
            "__ZTIN7leveldb14SequentialFileE",
            "__ZTSN7leveldb6LoggerE",
            "__ZTVN7leveldb10ComparatorE"
          ],
          "objc_class": [
            "PodsDummy_leveldb_library"
          ],
          "weak": [
            "__ZZN7leveldb8SkipListIPKcNS_8MemTable13KeyComparatorEE12RandomHeightEvE10kBranching"
          ]
        },
        "text": {
          "global": [
            "__ZN7leveldb6DBImpl7RecoverEPNS_11VersionEditEPb",
            "__ZN7leveldb18FilterBlockBuilder6AddKeyERKNS_5SliceE",
            "__ZN7leveldb3log6WriterD1Ev",
            "__ZN7leveldb3Env9RemoveDirERKNSt3__112basic_stringIcNS1_11char_traitsIcEENS1_9allocatorIcEEEE",
            "__ZN7leveldb6DBImplD1Ev",
            "__ZN7leveldb8MemTableC1ERKNS_21InternalKeyComparatorE",
            "__ZN7leveldb7VersionD1Ev",
            "__ZN7leveldb3Env17NewAppendableFileERKNSt3__112basic_stringIcNS1_11char_traitsIcEENS1_9allocatorIcEEEEPPNS_12WritableFileE",
            "__ZN7leveldb10BuildTableERKNSt3__112basic_stringIcNS0_11char_traitsIcEENS0_9allocatorIcEEEEPNS_3EnvERKNS_7OptionsEPNS_10TableCacheEPNS_8IteratorEPNS_12FileMetaDataE",
            "__ZN7leveldb5Table8ReadMetaERKNS_6FooterE",
            "__ZN7leveldb11VersionEdit10DecodeFromERKNS_5SliceE",
            "__ZN7leveldb21SomeFileOverlapsRangeERKNS_21InternalKeyComparatorEbRKNSt3__16vectorIPNS_12FileMetaDataENS3_9allocatorIS6_EEEEPKNS_5SliceESE_",
            "__ZN7leveldb3log6WriterD2Ev",
            "__ZN7leveldb18OldInfoLogFileNameERKNSt3__112basic_stringIcNS0_11char_traitsIcEENS0_9allocatorIcEEEE",
            "__ZN7leveldb8MemTableD1Ev",
            "__ZN7leveldb9LookupKeyC2ERKNS_5SliceEy",
            "__ZNK7leveldb17ParsedInternalKey11DebugStringEv",
            "__ZN7leveldb3log6Reader18SkipToInitialBlockEv",
            "__ZN7leveldb12BlockBuilderC1EPKNS_7OptionsE",
            "__ZN7leveldb12LockFileNameERKNSt3__112basic_stringIcNS0_11char_traitsIcEENS0_9allocatorIcEEEE",
            "__ZNK7leveldb11BlockHandle8EncodeToEPNSt3__112basic_stringIcNS1_11char_traitsIcEENS1_9allocatorIcEEEE",
            "__ZNK7leveldb12TableBuilder10NumEntriesEv",
            "__ZN7leveldb6DBImpl16RecordReadSampleENS_5SliceE",
            "__ZN7leveldb12TableBuilderC1ERKNS_7OptionsEPNS_12WritableFileE",
            "__ZN7leveldb5ArenaC2Ev",
            "__ZN7leveldb10VersionSetD2Ev",
            "__ZN7leveldb7Version12AddIteratorsERKNS_11ReadOptionsEPNSt3__16vectorIPNS_8IteratorENS4_9allocatorIS7_EEEE",
            "__ZN7leveldb3log6ReaderC2EPNS_14SequentialFileEPNS1_8ReporterEby",
            "__ZN7leveldb10WriteBatch6AppendERKS0_",
            "__ZNK7leveldb20InternalFilterPolicy4NameEv",
            "__ZN7leveldb13NewDBIteratorEPNS_6DBImplEPKNS_10ComparatorEPNS_8IteratorEyj",
            "__ZN7leveldb11PutVarint64EPNSt3__112basic_stringIcNS0_11char_traitsIcEENS0_9allocatorIcEEEEy",
            "_leveldb_options_set_filter_policy",
            "_leveldb_cache_create_lru",
            "_leveldb_open",
            "__ZN7leveldb6LoggerD0Ev",
            "__ZN7leveldb7Version11UpdateStatsERKNS0_8GetStatsE",
            "__ZN7leveldb7Version3RefEv",
            "__ZN7leveldb10VersionSet19ApproximateOffsetOfEPNS_7VersionERKNS_11InternalKeyE",
            "__ZN7leveldb19NewTwoLevelIteratorEPNS_8IteratorEPFS1_PvRKNS_11ReadOptionsERKNS_5SliceEES2_S5_",
            "__ZNK7leveldb10WriteBatch7IterateEPNS0_7HandlerE",
            "__ZNK7leveldb9Histogram8ToStringEv",
            "__ZN7leveldb17WriteStringToFileEPNS_3EnvERKNS_5SliceERKNSt3__112basic_stringIcNS5_11char_traitsIcEENS5_9allocatorIcEEEE",
            "__ZN7leveldb8SnapshotD1Ev",
            "__ZN7leveldb10Compaction13ReleaseInputsEv",
            "_leveldb_writebatch_clear",
            "_leveldb_options_set_max_open_files",
            "__ZN7leveldb8FileLockD2Ev",
            "__ZN7leveldb18EnvPosixTestHelper18SetReadOnlyFDLimitEi",
            "_leveldb_options_set_info_log",
            "__ZN7leveldb6DBImpl12CompactRangeEPKNS_5SliceES3_",
            "_leveldb_writebatch_iterate",
            "_leveldb_free",
            "__ZN7leveldb14FindLargestKeyERKNS_21InternalKeyComparatorERKNSt3__16vectorIPNS_12FileMetaDataENS3_9allocatorIS6_EEEEPNS_11InternalKeyE",
            "_leveldb_iter_seek",
            "__ZN7leveldb14GetVarint64PtrEPKcS1_Py",
            "__ZN7leveldb3log6WriterC2EPNS_12WritableFileE",
            "__ZNK7leveldb12BlockBuilder19CurrentSizeEstimateEv",
            "__ZN7leveldb18FilterBlockBuilder10StartBlockEy",
            "_leveldb_writebatch_create",
            "__ZN7leveldb10CompactionC2EPKNS_7OptionsEi",
            "_leveldb_cache_destroy",
            "__ZN7leveldb6DBImpl20BackgroundCompactionEv",
            "_leveldb_delete",
            "__ZN7leveldb7OptionsC1Ev",
            "_leveldb_options_set_write_buffer_size",
            "__ZN7leveldb5Arena16AllocateFallbackEm",
            "__ZN7leveldb22PutLengthPrefixedSliceEPNSt3__112basic_stringIcNS0_11char_traitsIcEENS0_9allocatorIcEEEERKNS_5SliceE",
            "__ZN7leveldb9ReadBlockEPNS_16RandomAccessFileERKNS_11ReadOptionsERKNS_11BlockHandleEPNS_13BlockContentsE",
            "__ZN7leveldb3EnvD2Ev",
            "_leveldb_comparator_destroy",
            "__ZN7leveldb10WriteBatchD1Ev",
            "__ZN7leveldb10TableCacheC2ERKNSt3__112basic_stringIcNS1_11char_traitsIcEENS1_9allocatorIcEEEERKNS_7OptionsEi",
            "__ZN7leveldb12TableBuilder10WriteBlockEPNS_12BlockBuilderEPNS_11BlockHandleE",
            "__ZN7leveldb6StatusC2ENS0_4CodeERKNS_5SliceES4_",
            "__ZN7leveldb5ArenaD1Ev",
            "__ZN7leveldb21WriteStringToFileSyncEPNS_3EnvERKNS_5SliceERKNSt3__112basic_stringIcNS5_11char_traitsIcEENS5_9allocatorIcEEEE",
            "__ZN7leveldb6DBImpl20TEST_CompactMemTableEv",
            "__ZNK7leveldb6DBImpl16MaybeIgnoreErrorEPNS_6StatusE",
            "__ZN7leveldb10VersionSetC2ERKNSt3__112basic_stringIcNS1_11char_traitsIcEENS1_9allocatorIcEEEEPKNS_7OptionsEPNS_10TableCacheEPKNS_21InternalKeyComparatorE",
            "_leveldb_create_iterator",
            "__ZN7leveldb9Histogram3AddEd",
            "_leveldb_writebatch_append",
            "_leveldb_iter_valid",
            "__ZN7leveldb18NewMergingIteratorEPKNS_10ComparatorEPPNS_8IteratorEi",
            "__ZN7leveldb5CacheD1Ev",
            "__ZN7leveldb6DBImpl33TEST_MaxNextLevelOverlappingBytesEv",
            "__ZN7leveldb13TableFileNameERKNSt3__112basic_stringIcNS0_11char_traitsIcEENS0_9allocatorIcEEEEy",
            "__ZNK7leveldb10VersionSet12LevelSummaryEPNS0_19LevelSummaryStorageE",
            "__ZNK7leveldb8MemTable13KeyComparatorclEPKcS3_",
            "__ZN7leveldb5TableD2Ev",
            "__ZN7leveldb5CacheD2Ev",
            "__ZN7leveldb6DBImpl26FinishCompactionOutputFileEPNS0_15CompactionStateEPNS_8IteratorE",
            "__ZN7leveldb14SetCurrentFileEPNS_3EnvERKNSt3__112basic_stringIcNS2_11char_traitsIcEENS2_9allocatorIcEEEEy",
            "__ZN7leveldb8SnapshotD0Ev",
            "_leveldb_iter_next",
            "__ZNK7leveldb11InternalKey11DebugStringEv",
            "__ZN7leveldb3log6Reader8ReporterD1Ev",
            "__ZN7leveldb6Status9CopyStateEPKc",
            "__ZN7leveldb10EnvWrapperD1Ev",
            "__ZNK7leveldb12TableBuilder6statusEv",
            "__ZN7leveldb10Compaction17IsBaseLevelForKeyERKNS_5SliceE",
            "__ZN7leveldb6DBImpl15CompactMemTableEv",
            "_leveldb_iter_seek_to_first",
            "__ZN7leveldb7VersionD2Ev",
            "__ZN7leveldb22GetVarint32PtrFallbackEPKcS1_Pj",
            "__ZN7leveldb10EnvWrapperD2Ev",
            "__ZN7leveldb3Env9DeleteDirERKNSt3__112basic_stringIcNS1_11char_traitsIcEENS1_9allocatorIcEEEE",
            "_leveldb_options_set_create_if_missing",
            "__ZN7leveldb11GetVarint64EPNS_5SliceEPy",
            "__ZNK7leveldb10VersionSet13NumLevelFilesEi",
            "__ZN7leveldb3Env10DeleteFileERKNSt3__112basic_stringIcNS1_11char_traitsIcEENS1_9allocatorIcEEEE",
            "__ZN7leveldb3EnvD1Ev",
            "__ZN7leveldb5BlockD1Ev",
            "__ZN7leveldb10VersionSet18MarkFileNumberUsedEy",
            "__ZN7leveldb10VersionSet16SetupOtherInputsEPNS_10CompactionE",
            "__ZN7leveldb12TableBuilder13WriteRawBlockERKNS_5SliceENS_15CompressionTypeEPNS_11BlockHandleE",
            "__ZN7leveldb12TableBuilder5FlushEv",
            "__ZN7leveldb12WritableFileD0Ev",
            "__ZN7leveldb3log6Reader10ReportDropEyRKNS_6StatusE",
            "__ZN7leveldb12BlockBuilder5ResetEv",
            "__ZN7leveldb2DBD2Ev",
            "__ZNK7leveldb21InternalKeyComparator4NameEv",
            "_leveldb_writeoptions_destroy",
            "__ZN7leveldb18EnvPosixTestHelper20SetReadOnlyMMapLimitEi",
            "__ZN7leveldb3log6Reader16ReportCorruptionEyPKc",
            "__ZN7leveldb20ConsumeDecimalNumberEPNS_5SliceEPy",
            "_leveldb_close",
            "__ZNK7leveldb9Histogram10PercentileEd",
            "_leveldb_writebatch_put",
            "__ZN7leveldb17FilterBlockReaderC1EPKNS_12FilterPolicyERKNS_5SliceE",
            "__ZN7leveldb16RandomAccessFileD0Ev",
            "__ZN7leveldb3EnvD0Ev",
            "__ZN7leveldb3LogEPNS_6LoggerEPKcz",
            "__ZNK7leveldb7Version24NewConcatenatingIteratorERKNS_11ReadOptionsEi",
            "__ZN7leveldb12VarintLengthEy",
            "__ZN7leveldb3log6Reader8ReporterD0Ev",
            "__ZN7leveldb7Version18ForEachOverlappingENS_5SliceES1_PvPFbS2_iPNS_12FileMetaDataEE",
            "__ZN7leveldb10CompactionD1Ev",
            "_leveldb_iter_seek_to_last",
            "__ZN7leveldb8IteratorD0Ev",
            "__ZN7leveldb8DumpFileEPNS_3EnvERKNSt3__112basic_stringIcNS2_11char_traitsIcEENS2_9allocatorIcEEEEPNS_12WritableFileE",
            "__ZN7leveldb12WritableFileD2Ev",
            "__ZN7leveldb8IteratorD2Ev",
            "__ZN7leveldb7Version5UnrefEv",
            "__ZN7leveldb12TableBuilder3AddERKNS_5SliceES3_",
            "__ZN7leveldb16RandomAccessFileD1Ev",
            "__ZN7leveldb6DBImpl11GetSnapshotEv",
            "__ZN7leveldb3log6Reader18ReadPhysicalRecordEPNS_5SliceE",
            "_leveldb_comparator_create",
            "__ZN7leveldb8MemTableD2Ev",
            "__ZN7leveldb10VersionSet13ReuseManifestERKNSt3__112basic_stringIcNS1_11char_traitsIcEENS1_9allocatorIcEEEES9_",
            "__ZN7leveldb10WriteBatch7HandlerD2Ev",
            "__ZN7leveldb6crc32c6ExtendEjPKcm",
            "__ZN7leveldb18WriteBatchInternal8SequenceEPKNS_10WriteBatchE",
            "__ZN7leveldb10ComparatorD2Ev",
            "__ZN7leveldb8Iterator15RegisterCleanupEPFvPvS1_ES1_S1_",
            "__ZN7leveldb18WriteBatchInternal5CountEPKNS_10WriteBatchE",
            "_leveldb_options_destroy",
            "__ZN7leveldb9LookupKeyC1ERKNS_5SliceEy",
            "__ZN7leveldb10TableCache9FindTableEyyPPNS_5Cache6HandleE",
            "__ZN7leveldb10WriteBatch7HandlerD1Ev",
            "__ZN7leveldb14EncodeVarint32EPcj",
            "__ZNK7leveldb21InternalKeyComparator7CompareERKNS_5SliceES3_",
            "__ZN7leveldb10VersionSet7RecoverEPb",
            "__ZN7leveldb6DBImpl16DoCompactionWorkEPNS0_15CompactionStateE",
            "__ZN7leveldb7OptionsC2Ev",
            "__ZN7leveldb5CacheD0Ev",
            "__ZN7leveldb9DestroyDBERKNSt3__112basic_stringIcNS0_11char_traitsIcEENS0_9allocatorIcEEEERKNS_7OptionsE",
            "__ZN7leveldb2DBD0Ev",
            "_leveldb_options_set_error_if_exists",
            "__ZN7leveldb10WriteBatch6DeleteERKNS_5SliceE",
            "__ZN7leveldb7Version20GetOverlappingInputsEiPKNS_11InternalKeyES3_PNSt3__16vectorIPNS_12FileMetaDataENS4_9allocatorIS7_EEEE",
            "__ZN7leveldb12EscapeStringERKNS_5SliceE",
            "_leveldb_put",
            "__ZN7leveldb16NewErrorIteratorERKNS_6StatusE",
            "__ZN7leveldb6DBImpl23MaybeScheduleCompactionEv",
            "__ZN7leveldb7Version14OverlapInLevelEiPKNS_5SliceES3_",
            "__ZN7leveldb6DBImpl5WriteERKNS_12WriteOptionsEPNS_10WriteBatchE",
            "__ZNK7leveldb5Table11NewIteratorERKNS_11ReadOptionsE",
            "__ZN7leveldb10TableCache11NewIteratorERKNS_11ReadOptionsEyyPPNS_5TableE",
            "__ZN7leveldb6DBImpl19GetApproximateSizesEPKNS_5RangeEiPy",
            "__ZNK7leveldb10Compaction13IsTrivialMoveEv",
            "__ZN7leveldb5Arena15AllocateAlignedEm",
            "__ZN7leveldb12TableBuilderD2Ev",
            "__ZN7leveldb6LoggerD2Ev",
            "_leveldb_writeoptions_create",
            "__ZN7leveldb12TableBuilderC2ERKNS_7OptionsEPNS_12WritableFileE",
            "__ZN7leveldb18FilterBlockBuilder6FinishEv",
            "__ZN7leveldb6DBImpl19NewInternalIteratorERKNS_11ReadOptionsEPyPj",
            "_leveldb_release_snapshot",
            "__ZN7leveldb22GetLengthPrefixedSliceEPNS_5SliceES1_",
            "_leveldb_readoptions_set_fill_cache",
            "_leveldb_writeoptions_set_sync",
            "__ZN7leveldb6DBImpl24TEST_NewInternalIteratorEv",
            "__ZN7leveldb5ArenaC1Ev",
            "__ZN7leveldb6DBImpl6BGWorkEPv",
            "__ZN7leveldb5Table11InternalGetERKNS_11ReadOptionsERKNS_5SliceEPvPFvS7_S6_S6_E",
            "__ZN7leveldb17AddBoundaryInputsERKNS_21InternalKeyComparatorERKNSt3__16vectorIPNS_12FileMetaDataENS3_9allocatorIS6_EEEEPS9_",
            "__ZN7leveldb5Table10ReadFilterERKNS_5SliceE",
            "__ZN7leveldb11PutVarint32EPNSt3__112basic_stringIcNS0_11char_traitsIcEENS0_9allocatorIcEEEEj",
            "_leveldb_options_set_max_file_size",
            "__ZN7leveldb14NumberToStringEy",
            "__ZN7leveldb6DBImpl11GetPropertyERKNS_5SliceEPNSt3__112basic_stringIcNS4_11char_traitsIcEENS4_9allocatorIcEEEE",
            "__ZN7leveldb18BytewiseComparatorEv",
            "_leveldb_options_set_cache",
            "_leveldb_writebatch_destroy",
            "__ZN7leveldb10TableCacheD2Ev",
            "__ZN7leveldb3log6Writer9AddRecordERKNS_5SliceE",
            "__ZN7leveldb10ComparatorD0Ev",
            "__ZN7leveldb10VersionSet8GetRangeERKNSt3__16vectorIPNS_12FileMetaDataENS1_9allocatorIS4_EEEEPNS_11InternalKeyESB_",
            "_leveldb_destroy_db",
            "_leveldb_writebatch_delete",
            "__ZNK7leveldb10VersionSet13NumLevelBytesEi",
            "__ZN7leveldb8MemTableC2ERKNS_21InternalKeyComparatorE",
            "__ZN7leveldb14EncodeVarint64EPcy",
            "__ZN7leveldb6DBImplC1ERKNS_7OptionsERKNSt3__112basic_stringIcNS4_11char_traitsIcEENS4_9allocatorIcEEEE",
            "__ZN7leveldb15CurrentFileNameERKNSt3__112basic_stringIcNS0_11char_traitsIcEENS0_9allocatorIcEEEE",
            "_leveldb_options_set_paranoid_checks",
            "__ZN7leveldb10EnvWrapperD0Ev",
            "__ZN7leveldb12TableBuilder6FinishEv",
            "_leveldb_property_value",
            "_leveldb_create_default_env",
            "__ZN7leveldb6DBImpl15ReleaseSnapshotEPKNS_8SnapshotE",
            "_leveldb_env_destroy",
            "__ZN7leveldb16SSTTableFileNameERKNSt3__112basic_stringIcNS0_11char_traitsIcEENS0_9allocatorIcEEEEy",
            "__ZN7leveldb6DBImpl6DeleteERKNS_12WriteOptionsERKNS_5SliceE",
            "_leveldb_iter_destroy",
            "__ZN7leveldb10PutFixed64EPNSt3__112basic_stringIcNS0_11char_traitsIcEENS0_9allocatorIcEEEEy",
            "_leveldb_iter_get_error",
            "__ZN7leveldb10VersionSet11LogAndApplyEPNS_11VersionEditEPNS_4port5MutexE",
            "__ZN7leveldb5Block11NewIteratorEPKNS_10ComparatorE",
            "__ZN7leveldb3log6WriterC1EPNS_12WritableFileE",
            "__ZNK7leveldb5Table19ApproximateOffsetOfERKNS_5SliceE",
            "__ZN7leveldb10VersionSet14PickCompactionEv",
            "__ZN7leveldb22GetLengthPrefixedSliceEPKcS1_PNS_5SliceE",
            "__ZN7leveldb18FilterBlockBuilderC2EPKNS_12FilterPolicyE",
            "__ZN7leveldb6LoggerD1Ev",
            "_leveldb_iter_prev",
            "__ZN7leveldb15InfoLogFileNameERKNSt3__112basic_stringIcNS0_11char_traitsIcEENS0_9allocatorIcEEEE",
            "__ZNK7leveldb10WriteBatch15ApproximateSizeEv",
            "__ZN7leveldb10VersionSet28MaxNextLevelOverlappingBytesEv",
            "__ZN7leveldb6DBImplD0Ev",
            "__ZN7leveldb5ArenaD2Ev",
            "__ZN7leveldb10VersionSet17MakeInputIteratorEPNS_10CompactionE",
            "__ZN7leveldb10VersionSet12AddLiveFilesEPNSt3__13setIyNS1_4lessIyEENS1_9allocatorIyEEEE",
            "__ZN7leveldb9Histogram5ClearEv",
            "__ZNK7leveldb21InternalKeyComparator18FindShortSuccessorEPNSt3__112basic_stringIcNS1_11char_traitsIcEENS1_9allocatorIcEEEE",
            "_leveldb_filterpolicy_destroy",
            "__ZN7leveldb6DBImplC2ERKNS_7OptionsERKNSt3__112basic_stringIcNS4_11char_traitsIcEENS4_9allocatorIcEEEE",
            "__ZNK7leveldb11VersionEdit11DebugStringEv",
            "__ZN7leveldb17FilterBlockReaderC2EPKNS_12FilterPolicyERKNS_5SliceE",
            "__ZN7leveldb4HashEPKcmj",
            "__ZN7leveldb6DBImpl24InstallCompactionResultsEPNS0_15CompactionStateE",
            "__ZN7leveldb18WriteBatchInternal6AppendEPNS_10WriteBatchEPKS1_",
            "__ZN7leveldb18WriteBatchInternal10InsertIntoEPKNS_10WriteBatchEPNS_8MemTableE",
            "__ZN7leveldb10WriteBatchC2Ev",
            "__ZN7leveldb7Version16RecordReadSampleENS_5SliceE",
            "__ZN7leveldb12BlockBuilderC2EPKNS_7OptionsE",
            "__ZN7leveldb6DBImpl3GetERKNS_11ReadOptionsERKNS_5SliceEPNSt3__112basic_stringIcNS7_11char_traitsIcEENS7_9allocatorIcEEEE",
            "__ZN7leveldb8MemTable3AddEyNS_9ValueTypeERKNS_5SliceES4_",
            "__ZN7leveldb6DBImpl3PutERKNS_12WriteOptionsERKNS_5SliceES6_",
            "__ZN7leveldb14SequentialFileD1Ev",
            "__ZN7leveldb12TableBuilderD1Ev",
            "__ZN7leveldb10TableCache3GetERKNS_11ReadOptionsEyyRKNS_5SliceEPvPFvS7_S6_S6_E",
            "__ZN7leveldb8SnapshotD2Ev",
            "__ZN7leveldb10WriteBatchC1Ev",
            "_leveldb_options_set_comparator",
            "__ZNK7leveldb6Status8ToStringEv",
            "_leveldb_filterpolicy_create_bloom",
            "__ZN7leveldb12FilterPolicyD1Ev",
            "__ZN7leveldb8IteratorD1Ev",
            "__ZN7leveldb3log6Writer18EmitPhysicalRecordENS0_10RecordTypeEPKcm",
            "__ZN7leveldb3log6Reader8ReporterD2Ev",
            "__ZN7leveldb10WriteBatch5ClearEv",
            "__ZN7leveldb11VersionEdit5ClearEv",
            "__ZN7leveldb10WriteBatchD2Ev",
            "__ZN7leveldb15SanitizeOptionsERKNSt3__112basic_stringIcNS0_11char_traitsIcEENS0_9allocatorIcEEEEPKNS_21InternalKeyComparatorEPKNS_20InternalFilterPolicyERKNS_7OptionsE",
            "__ZN7leveldb10Compaction17AddInputDeletionsEPNS_11VersionEditE",
            "__ZN7leveldb24FindSmallestBoundaryFileERKNS_21InternalKeyComparatorERKNSt3__16vectorIPNS_12FileMetaDataENS3_9allocatorIS6_EEEERKNS_11InternalKeyE",
            "__ZN7leveldb12TableBuilder13ChangeOptionsERKNS_7OptionsE",
            "_leveldb_write",
            "__ZNK7leveldb21InternalKeyComparator21FindShortestSeparatorEPNSt3__112basic_stringIcNS1_11char_traitsIcEENS1_9allocatorIcEEEERKNS_5SliceE",
            "__ZN7leveldb6DBImpl14BackgroundCallEv",
            "__ZN7leveldb12TableBuilder7AbandonEv",
            "__ZN7leveldb10VersionSet13AppendVersionEPNS_7VersionE",
            "__ZN7leveldb10ComparatorD1Ev",
            "__ZN7leveldb10CompactionD2Ev",
            "__ZN7leveldb5Arena16AllocateNewBlockEm",
            "__ZN7leveldb12FilterPolicyD0Ev",
            "__ZN7leveldb18WriteBatchInternal8SetCountEPNS_10WriteBatchEi",
            "__ZN7leveldb7Version3GetERKNS_11ReadOptionsERKNS_9LookupKeyEPNSt3__112basic_stringIcNS7_11char_traitsIcEENS7_9allocatorIcEEEEPNS0_8GetStatsE",
            "__ZN7leveldb10PutFixed32EPNSt3__112basic_stringIcNS0_11char_traitsIcEENS0_9allocatorIcEEEEj",
            "__ZNK7leveldb9Histogram17StandardDeviationEv",
            "__ZN7leveldb8MemTable3GetERKNS_9LookupKeyEPNSt3__112basic_stringIcNS4_11char_traitsIcEENS4_9allocatorIcEEEEPNS_6StatusE",
            "__ZN7leveldb9Histogram5MergeERKS0_",
            "__ZN7leveldb11LogFileNameERKNSt3__112basic_stringIcNS0_11char_traitsIcEENS0_9allocatorIcEEEEy",
            "__ZN7leveldb10VersionSet8FinalizeEPNS_7VersionE",
            "_leveldb_readoptions_destroy",
            "__ZN7leveldb3EnvC2Ev",
            "_leveldb_readoptions_create",
            "__ZN7leveldb10Compaction16ShouldStopBeforeERKNS_5SliceE",
            "__ZN7leveldb3log6ReaderC1EPNS_14SequentialFileEPNS1_8ReporterEby",
            "__ZN7leveldb12FilterPolicyD2Ev",
            "__ZN7leveldb8MemTable22ApproximateMemoryUsageEv",
            "__ZN7leveldb12TempFileNameERKNSt3__112basic_stringIcNS0_11char_traitsIcEENS0_9allocatorIcEEEEy",
            "__ZN7leveldb21AppendEscapedStringToEPNSt3__112basic_stringIcNS0_11char_traitsIcEENS0_9allocatorIcEEEERKNS_5SliceE",
            "__ZN7leveldb6Footer10DecodeFromEPNS_5SliceE",
            "__ZN7leveldb5TableD1Ev",
            "__ZN7leveldb10TableCacheC1ERKNSt3__112basic_stringIcNS1_11char_traitsIcEENS1_9allocatorIcEEEERKNS_7OptionsEi",
            "__ZN7leveldb16RandomAccessFileD2Ev",
            "__ZN7leveldb12BlockBuilder3AddERKNS_5SliceES3_",
            "__ZN7leveldb6DBImpl24OpenCompactionOutputFileEPNS0_15CompactionStateE",
            "__ZN7leveldb11BlockHandle10DecodeFromEPNS_5SliceE",
            "__ZN7leveldb10TableCacheD1Ev",
            "__ZN7leveldb11NewLRUCacheEm",
            "_leveldb_readoptions_set_verify_checksums",
            "__ZN7leveldb10VersionSetC1ERKNSt3__112basic_stringIcNS1_11char_traitsIcEENS1_9allocatorIcEEEEPKNS_7OptionsEPNS_10TableCacheEPKNS_21InternalKeyComparatorE",
            "_leveldb_repair_db",
            "__ZN7leveldb18DescriptorFileNameERKNSt3__112basic_stringIcNS0_11char_traitsIcEENS0_9allocatorIcEEEEy",
            "__ZN7leveldb2DB3PutERKNS_12WriteOptionsERKNS_5SliceES6_",
            "__ZN7leveldb14SequentialFileD2Ev",
            "__ZN7leveldb6DBImpl15BuildBatchGroupEPPNS0_6WriterE",
            "__ZN7leveldb8RepairDBERKNSt3__112basic_stringIcNS0_11char_traitsIcEENS0_9allocatorIcEEEERKNS_7OptionsE",
            "__ZNK7leveldb7Version11DebugStringEv",
            "__ZN7leveldb6DBImplD2Ev",
            "__ZN7leveldb6DBImpl19RemoveObsoleteFilesEv",
            "__ZNK7leveldb9Histogram6MedianEv",
            "__ZN7leveldb10VersionSet13WriteSnapshotEPNS_3log6WriterE",
            "__ZN7leveldb2DB6DeleteERKNS_12WriteOptionsERKNS_5SliceE",
            "__ZNK7leveldb9Histogram7AverageEv",
            "__ZN7leveldb3log6Reader16LastRecordOffsetEv",
            "_leveldb_iter_value",
            "__ZN7leveldb10WriteBatch7HandlerD0Ev",
            "__ZN7leveldb3log6WriterC1EPNS_12WritableFileEy",
            "_leveldb_filterpolicy_create",
            "__ZN7leveldb3Env10RemoveFileERKNSt3__112basic_stringIcNS1_11char_traitsIcEENS1_9allocatorIcEEEE",
            "__ZN7leveldb5BlockD2Ev",
            "_leveldb_options_set_block_size",
            "__ZN7leveldb18FilterBlockBuilderC1EPKNS_12FilterPolicyE",
            "__ZN7leveldb5BlockC2ERKNS_13BlockContentsE",
            "__ZN7leveldb10VersionSet12CompactRangeEiPKNS_11InternalKeyES3_",
            "__ZN7leveldb17AppendInternalKeyEPNSt3__112basic_stringIcNS0_11char_traitsIcEENS0_9allocatorIcEEEERKNS_17ParsedInternalKeyE",
            "_leveldb_major_version",
            "__ZN7leveldb6DBImpl21RecordBackgroundErrorERKNS_6StatusE",
            "__ZN7leveldb3Env7DefaultEv",
            "_leveldb_minor_version",
            "__ZN7leveldb10CompactionC1EPKNS_7OptionsEi",
            "__ZN7leveldb12BlockBuilder6FinishEv",
            "__ZN7leveldb18WriteBatchInternal11SetContentsEPNS_10WriteBatchERKNS_5SliceE",
            "__ZN7leveldb6DBImpl17CleanupCompactionEPNS0_15CompactionStateE",
            "__ZN7leveldb8FileLockD1Ev",
            "__ZN7leveldb18FilterBlockBuilder14GenerateFilterEv",
            "_leveldb_readoptions_set_snapshot",
            "__ZN7leveldb17FilterBlockReader11KeyMayMatchEyRKNS_5SliceE",
            "__ZN7leveldb14AppendNumberToEPNSt3__112basic_stringIcNS0_11char_traitsIcEENS0_9allocatorIcEEEEy",
            "__ZNK7leveldb6Footer8EncodeToEPNSt3__112basic_stringIcNS1_11char_traitsIcEENS1_9allocatorIcEEEE",
            "__ZN7leveldb6StatusC1ENS0_4CodeERKNS_5SliceES4_",
            "_leveldb_compact_range",
            "__ZN7leveldb16ReadFileToStringEPNS_3EnvERKNSt3__112basic_stringIcNS2_11char_traitsIcEENS2_9allocatorIcEEEEPS8_",
            "__ZN7leveldb6DBImpl16MakeRoomForWriteEb",
            "__ZN7leveldb13ParseFileNameERKNSt3__112basic_stringIcNS0_11char_traitsIcEENS0_9allocatorIcEEEEPyPNS_8FileTypeE",
            "__ZN7leveldb10WriteBatch3PutERKNS_5SliceES3_",
            "__ZN7leveldb2DB4OpenERKNS_7OptionsERKNSt3__112basic_stringIcNS4_11char_traitsIcEENS4_9allocatorIcEEEEPPS0_",
            "__ZN7leveldb3log6WriterC2EPNS_12WritableFileEy",
            "__ZN7leveldb5BlockC1ERKNS_13BlockContentsE",
            "_leveldb_options_set_block_restart_interval",
            "__ZN7leveldb20NewBloomFilterPolicyEi",
            "__ZN7leveldb2DBD1Ev",
            "__ZN7leveldb8FileLockD0Ev",
            "__ZNK7leveldb12TableBuilder8FileSizeEv",
            "__ZN7leveldb3log6ReaderD2Ev",
            "__ZN7leveldb8IteratorC2Ev",
            "__ZN7leveldb3log6ReaderD1Ev",
            "_leveldb_options_set_env",
            "__ZN7leveldb10VersionSetD1Ev",
            "__ZN7leveldb11GetVarint32EPNS_5SliceEPj",
            "__ZN7leveldb5Table11BlockReaderEPvRKNS_11ReadOptionsERKNS_5SliceE",
            "__ZN7leveldb3log6Reader10ReadRecordEPNS_5SliceEPNSt3__112basic_stringIcNS4_11char_traitsIcEENS4_9allocatorIcEEEE",
            "__ZN7leveldb6DBImpl17TEST_CompactRangeEiPKNS_5SliceES3_",
            "__ZN7leveldb6DBImpl5NewDBEv",
            "__ZN7leveldb6DBImpl11NewIteratorERKNS_11ReadOptionsE",
            "_leveldb_approximate_sizes",
            "_leveldb_env_get_test_directory",
            "__ZN7leveldb5Table4OpenERKNS_7OptionsEPNS_16RandomAccessFileEyPPS0_",
            "__ZN7leveldb8FindFileERKNS_21InternalKeyComparatorERKNSt3__16vectorIPNS_12FileMetaDataENS3_9allocatorIS6_EEEERKNS_5SliceE",
            "_leveldb_options_set_compression",
            "_leveldb_create_snapshot",
            "__ZN7leveldb8MemTable11NewIteratorEv",
            "__ZN7leveldb6DBImpl14RecoverLogFileEybPbPNS_11VersionEditEPy",
            "_leveldb_get",
            "__ZNK7leveldb20InternalFilterPolicy11KeyMayMatchERKNS_5SliceES3_",
            "_leveldb_iter_key",
            "__ZN7leveldb12WritableFileD1Ev",
            "__ZN7leveldb18WriteBatchInternal11SetSequenceEPNS_10WriteBatchEy",
            "__ZN7leveldb7Version26PickLevelForMemTableOutputERKNS_5SliceES3_",
            "__ZN7leveldb6DBImpl16WriteLevel0TableEPNS_8MemTableEPNS_11VersionEditEPNS_7VersionE",
            "__ZN7leveldb14SequentialFileD0Ev",
            "__ZN7leveldb10TableCache5EvictEy",
            "__ZN7leveldb16NewEmptyIteratorEv",
            "__ZNK7leveldb20InternalFilterPolicy12CreateFilterEPKNS_5SliceEiPNSt3__112basic_stringIcNS4_11char_traitsIcEENS4_9allocatorIcEEEE",
            "__ZN7leveldb10VersionSet9GetRange2ERKNSt3__16vectorIPNS_12FileMetaDataENS1_9allocatorIS4_EEEES9_PNS_11InternalKeyESB_",
            "__ZNK7leveldb11VersionEdit8EncodeToEPNSt3__112basic_stringIcNS1_11char_traitsIcEENS1_9allocatorIcEEEE",
            "_leveldb_options_create"
          ],
          "weak": [
            "__ZNK7leveldb8SkipListIPKcNS_8MemTable13KeyComparatorEE12FindLessThanERKS2_",
            "__ZNSt3__16__treeIyNS_4lessIyEENS_9allocatorIyEEE4findIyEENS_15__tree_iteratorIyPNS_11__tree_nodeIyPvEElEERKT_",
            "__ZN7leveldb8SkipListIPKcNS_8MemTable13KeyComparatorEE6InsertERKS2_",
            "__ZNSt3__112basic_stringIcNS_11char_traitsIcEENS_9allocatorIcEEE16__init_with_sizeB8ue170006IPcS7_EEvT_T0_m",
            "__ZNSt3__16__treeIyNS_4lessIyEENS_9allocatorIyEEE25__emplace_unique_key_argsIyJRKyEEENS_4pairINS_15__tree_iteratorIyPNS_11__tree_nodeIyPvEElEEbEERKT_DpOT0_",
            "__ZNSt3__16vectorIPN7leveldb12FileMetaDataENS_9allocatorIS3_EEE18__construct_at_endINS_11__wrap_iterIPKS3_EESB_EEvT_T0_m",
            "__ZNSt3__16vectorIPN7leveldb12FileMetaDataENS_9allocatorIS3_EEE18__insert_with_sizeB8ue170006INS_11__wrap_iterIPKS3_EESB_EENS8_IPS3_EESB_T_T0_l",
            "__ZNSt3__16__treeIyNS_4lessIyEENS_9allocatorIyEEE14__erase_uniqueIyEEmRKT_",
            "__ZNSt3__16__treeINS_12basic_stringIcNS_11char_traitsIcEENS_9allocatorIcEEEENS_4lessIS6_EENS4_IS6_EEE12__find_equalIS6_EERPNS_16__tree_node_baseIPvEERPNS_15__tree_end_nodeISF_EERKT_",
            "__ZNSt3__114__split_bufferIPPN7leveldb6DBImpl6WriterERNS_9allocatorIS5_EEE28__construct_at_end_with_sizeINS_13move_iteratorIPS5_EEEEvT_m",
            "__ZNSt3__121__thread_specific_ptrINS_15__thread_structEE11set_pointerEPS1_",
            "__ZNSt3__16__treeIPN7leveldb12FileMetaDataENS1_10VersionSet7Builder13BySmallestKeyENS_9allocatorIS3_EEE25__emplace_unique_key_argsIS3_JRKS3_EEENS_4pairINS_15__tree_iteratorIS3_PNS_11__tree_nodeIS3_PvEElEEbEERKT_DpOT0_",
            "__ZNSt3__16__treeIyNS_4lessIyEENS_9allocatorIyEEE12__find_equalIyEERPNS_16__tree_node_baseIPvEENS_21__tree_const_iteratorIyPNS_11__tree_nodeIyS8_EElEERPNS_15__tree_end_nodeISA_EESB_RKT_",
            "__ZNSt3__16__treeINS_4pairIiyEENS_4lessIS2_EENS_9allocatorIS2_EEE12__find_equalIS2_EERPNS_16__tree_node_baseIPvEERPNS_15__tree_end_nodeISC_EERKT_",
            "__ZNSt3__16__treeINS_12basic_stringIcNS_11char_traitsIcEENS_9allocatorIcEEEENS_4lessIS6_EENS4_IS6_EEE13__lower_boundIS6_EENS_15__tree_iteratorIS6_PNS_11__tree_nodeIS6_PvEElEERKT_SG_PNS_15__tree_end_nodeIPNS_16__tree_node_baseISE_EEEE",
            "__ZNSt3__16__treeIyNS_4lessIyEENS_9allocatorIyEEE13__lower_boundIyEENS_15__tree_iteratorIyPNS_11__tree_nodeIyPvEElEERKT_SB_PNS_15__tree_end_nodeIPNS_16__tree_node_baseIS9_EEEE",
            "__ZNSt3__16__treeIyNS_4lessIyEENS_9allocatorIyEEE30__emplace_hint_unique_key_argsIyJRKyEEENS_4pairINS_15__tree_iteratorIyPNS_11__tree_nodeIyPvEElEEbEENS_21__tree_const_iteratorIySE_lEERKT_DpOT0_",
            "__ZN7leveldb8SkipListIPKcNS_8MemTable13KeyComparatorEE12RandomHeightEv",
            "__ZNSt3__16vectorIPN7leveldb12FileMetaDataENS_9allocatorIS3_EEE18__assign_with_sizeB8ue170006IPS3_S8_EEvT_T0_l",
            "__ZNSt3__16__treeINS_12basic_stringIcNS_11char_traitsIcEENS_9allocatorIcEEEENS_4lessIS6_EENS4_IS6_EEE16__construct_nodeIJRKS6_EEENS_10unique_ptrINS_11__tree_nodeIS6_PvEENS_22__tree_node_destructorINS4_ISH_EEEEEEDpOT_",
            "__ZNSt3__16__treeINS_4pairIiyEENS_4lessIS2_EENS_9allocatorIS2_EEE16__construct_nodeIJS2_EEENS_10unique_ptrINS_11__tree_nodeIS2_PvEENS_22__tree_node_destructorINS5_ISC_EEEEEEDpOT_",
            "__ZNSt3__16__treeINS_12basic_stringIcNS_11char_traitsIcEENS_9allocatorIcEEEENS_4lessIS6_EENS4_IS6_EEE25__emplace_unique_key_argsIS6_JRKS6_EEENS_4pairINS_15__tree_iteratorIS6_PNS_11__tree_nodeIS6_PvEElEEbEERKT_DpOT0_",
            "__ZNSt3__16__treeIyNS_4lessIyEENS_9allocatorIyEEE12__find_equalIyEERPNS_16__tree_node_baseIPvEERPNS_15__tree_end_nodeISA_EERKT_",
            "__ZNSt3__114__split_bufferIPPN7leveldb6DBImpl6WriterERNS_9allocatorIS5_EEE18__construct_at_endINS_13move_iteratorIPS5_EEEENS_9enable_ifIXsr31__has_forward_iterator_categoryIT_EE5valueEvE4typeESF_SF_",
            "__ZNSt3__16__treeINS_4pairIiyEENS_4lessIS2_EENS_9allocatorIS2_EEE25__emplace_unique_key_argsIS2_JS2_EEENS1_INS_15__tree_iteratorIS2_PNS_11__tree_nodeIS2_PvEElEEbEERKT_DpOT0_",
            "__ZN7leveldb8SkipListIPKcNS_8MemTable13KeyComparatorEE7NewNodeERKS2_i",
            "__ZNSt3__16vectorIPN7leveldb12FileMetaDataENS_9allocatorIS3_EEE6insertINS_11__wrap_iterIPKS3_EELi0EEENS8_IPS3_EESB_T_SE_",
            "__ZNK7leveldb8SkipListIPKcNS_8MemTable13KeyComparatorEE18FindGreaterOrEqualERKS2_PPNS5_4NodeE",
            "__ZNSt3__16vectorIPN7leveldb12FileMetaDataENS_9allocatorIS3_EEE6assignIPS3_Li0EEEvT_S9_",
            "__ZNK7leveldb8SkipListIPKcNS_8MemTable13KeyComparatorEE8FindLastEv",
            "__ZNSt3__16__treeINS_12basic_stringIcNS_11char_traitsIcEENS_9allocatorIcEEEENS_4lessIS6_EENS4_IS6_EEE4findIS6_EENS_15__tree_iteratorIS6_PNS_11__tree_nodeIS6_PvEElEERKT_",
            "__ZNSt3__16__treeIPN7leveldb12FileMetaDataENS1_10VersionSet7Builder13BySmallestKeyENS_9allocatorIS3_EEE12__find_equalIS3_EERPNS_16__tree_node_baseIPvEERPNS_15__tree_end_nodeISE_EERKT_",
            "__ZNSt3__16__treeINS_12basic_stringIcNS_11char_traitsIcEENS_9allocatorIcEEEENS_4lessIS6_EENS4_IS6_EEE14__erase_uniqueIS6_EEmRKT_",
            "__ZNK7leveldb8SkipListIPKcNS_8MemTable13KeyComparatorEE14KeyIsAfterNodeERKS2_PNS5_4NodeE",
            "__ZNSt3__16vectorIPN7leveldb12FileMetaDataENS_9allocatorIS3_EEE18__construct_at_endIPS3_S8_EEvT_T0_m",
            "__ZNSt3__16__treeIPN7leveldb12FileMetaDataENS1_10VersionSet7Builder13BySmallestKeyENS_9allocatorIS3_EEE16__construct_nodeIJRKS3_EEENS_10unique_ptrINS_11__tree_nodeIS3_PvEENS_22__tree_node_destructorINS7_ISG_EEEEEEDpOT_",
            "__ZNSt3__114__split_bufferIPN7leveldb12FileMetaDataERNS_9allocatorIS3_EEE28__construct_at_end_with_sizeINS_11__wrap_iterIPKS3_EEEEvT_m",
            "__ZNKSt3__16__treeIyNS_4lessIyEENS_9allocatorIyEEE14__count_uniqueIyEEmRKT_",
            "__ZNSt3__111__introsortINS_17_ClassicAlgPolicyERPFbPN7leveldb12FileMetaDataES4_EPS4_Lb0EEEvT1_S9_T0_NS_15iterator_traitsIS9_E15difference_typeEb",
            "__ZNSt3__16__treeIyNS_4lessIyEENS_9allocatorIyEEE16__construct_nodeIJRKyEEENS_10unique_ptrINS_11__tree_nodeIyPvEENS_22__tree_node_destructorINS3_ISC_EEEEEEDpOT_",
            "__ZNKSt3__115basic_stringbufIcNS_11char_traitsIcEENS_9allocatorIcEEE3strEv"
          ]
        }
      }
    ],
    "flags": [
      {
        "attributes": [
          "not_app_extension_safe"
        ]
      }
    ],
    "install_names": [
      {
        "name": "@rpath/leveldb.framework/Versions/A/leveldb"
      }
    ],
    "target_info": [
      {
        "min_deployment": "11",
        "target": "arm64-macos"
      }
    ]
  },
  "tapi_tbd_version": 5
}
