{
  "main_library": {
    "exported_symbols": [
      {
        "data": {
          "global": [
            "__ZN4absl12lts_2024011624synchronization_internal12StdcppWaiter5kNameE",
            "__ZTSN4absl12lts_2024011613cord_internal9CordzInfoE",
            "__ZTSN4absl12lts_2024011612crc_internal29CrcNonTemporalMemcpyAVXEngineE",
            "__ZN4absl12lts_2024011612RFC3339_fullE",
            "__ZTVN4absl12lts_2024011612crc_internal5CRC32E",
            "__ZNSt3__114numeric_limitsIN4absl12lts_202401167uint128EE10is_boundedE",
            "__ZTIN4absl12lts_2024011613cord_internal11CordzHandleE",
            "__ZNSt3__114numeric_limitsIN4absl12lts_202401167uint128EE15tinyness_beforeE",
            "__ZN4absl12lts_2024011614ascii_internal13kPropertyBitsE",
            "__ZN4absl12lts_202401169Condition5kTrueE",
            "__ZTSN4absl12lts_2024011613time_internal4cctz10TimeZoneIfE",
            "__ZN4absl12lts_2024011619str_format_internal13ConvTagHolder5valueE",
            "__ZN4absl12lts_2024011619str_format_internal28FormatConversionCharInternal1gE",
            "__ZN4absl12lts_2024011619str_format_internal31FormatConversionCharSetInternal5kStarE",
            "__ZN4absl12lts_2024011616numbers_internal8kHexCharE",
            "__ZN4absl12lts_2024011619str_format_internal28FormatConversionCharInternal1sE",
            "__ZN4absl12lts_2024011615random_internal18kRandenRoundKeysBEE",
            "__ZN4absl12lts_2024011624synchronization_internal13KernelTimeout10kNoTimeoutE",
            "__ZN4absl12lts_2024011619str_format_internal31FormatConversionCharSetInternal1oE",
            "__ZNSt3__114numeric_limitsIN4absl12lts_202401167uint128EE14max_exponent10E",
            "__ZN4absl12lts_2024011619str_format_internal28FormatConversionCharInternal1vE",
            "__ZNSt3__114numeric_limitsIN4absl12lts_202401167uint128EE10is_integerE",
            "__ZNSt3__114numeric_limitsIN4absl12lts_202401167uint128EE5radixE",
            "__ZN4absl12lts_2024011619str_format_internal31FormatConversionCharSetInternal1AE",
            "__ZNSt3__114numeric_limitsIN4absl12lts_202401167uint128EE12min_exponentE",
            "__ZNSt3__114numeric_limitsIN4absl12lts_202401167uint128EE8is_exactE",
            "__ZTSN4absl12lts_2024011612crc_internal5CRC32E",
            "__ZN4absl12lts_2024011619str_format_internal28FormatConversionCharInternal1eE",
            "__ZNSt3__114numeric_limitsIN4absl12lts_202401166int128EE17has_signaling_NaNE",
            "__ZTIN4absl12lts_2024011614flags_internal18FlagStateInterfaceE",
            "__ZNSt3__114numeric_limitsIN4absl12lts_202401166int128EE8digits10E",
            "__ZNSt3__114numeric_limitsIN4absl12lts_202401166int128EE6digitsE",
            "__ZN4absl12lts_2024011613base_internal8SpinLock16kSpinLockSleeperE",
            "__ZTVN4absl12lts_2024011612crc_internal3CRCE",
            "__ZTIN4absl12lts_2024011615CommandLineFlagE",
            "__ZNSt3__114numeric_limitsIN4absl12lts_202401167uint128EE14min_exponent10E",
            "__ZTIN4absl12lts_2024011613cord_internal9CordzInfoE",
            "__ZTVN4absl12lts_2024011619bad_optional_accessE",
            "__ZNSt3__114numeric_limitsIN4absl12lts_202401166int128EE15tinyness_beforeE",
            "__ZNSt3__114numeric_limitsIN4absl12lts_202401166int128EE10is_boundedE",
            "__ZN4absl12lts_2024011619str_format_internal31FormatConversionCharSetInternal1eE",
            "__ZTSN4absl12lts_2024011619bad_optional_accessE",
            "__ZN4absl12lts_2024011619str_format_internal31FormatConversionCharSetInternal1dE",
            "__ZN4absl12lts_2024011614ascii_internal8kToLowerE",
            "__ZN4absl12lts_2024011619str_format_internal31FormatConversionCharSetInternal1XE",
            "__ZTIN4absl12lts_2024011613time_internal4cctz14ZoneInfoSourceE",
            "__ZN4absl12lts_2024011613cord_internal24shallow_subcords_enabledE",
            "__ZN4absl12lts_2024011619str_format_internal31FormatConversionCharSetInternal1vE",
            "__ZN4absl12lts_2024011616strings_internal10kFiveToNthE",
            "__ZN4absl12lts_2024011619str_format_internal28FormatConversionCharInternal5kNoneE",
            "__ZN4absl12lts_2024011615random_internal26gaussian_distribution_base3zg_E",
            "__ZTVN4absl12lts_2024011613cord_internal9CordzInfoE",
            "__ZTVN4absl12lts_2024011618bad_variant_accessE",
            "__ZTSN4absl12lts_2024011612crc_internal26CrcNonTemporalMemcpyEngineE",
            "__ZTVN4absl12lts_2024011613time_internal4cctz12TimeZoneInfoE",
            "__ZNSt3__114numeric_limitsIN4absl12lts_202401167uint128EE17has_signaling_NaNE",
            "__ZN4absl12lts_2024011616strings_internal9kTenToNthE",
            "__ZN4absl12lts_2024011613base_internal8SpinLock27kSpinLockDisabledSchedulingE",
            "__ZN4absl12lts_2024011619str_format_internal28FormatConversionCharInternal1pE",
            "__ZNSt3__114numeric_limitsIN4absl12lts_202401166int128EE5radixE",
            "__ZTVN4absl12lts_2024011613time_internal4cctz12TimeZoneLibCE",
            "__ZNSt3__114numeric_limitsIN4absl12lts_202401166int128EE12max_digits10E",
            "__ZTVN4absl12lts_2024011616strings_internal13OStringStream9StreambufE",
            "__ZN4absl12lts_2024011616numbers_internal9kHexTableE",
            "__ZN4absl12lts_2024011619str_format_internal31FormatConversionCharSetInternal8kNumericE",
            "__ZNSt3__114numeric_limitsIN4absl12lts_202401167uint128EE9is_moduloE",
            "__ZN4absl12lts_2024011619str_format_internal28FormatConversionCharInternal1dE",
            "__ZTIN4absl12lts_2024011617BadStatusOrAccessE",
            "__ZTSN4absl12lts_2024011613time_internal4cctz12TimeZoneInfoE",
            "__ZTIN4absl12lts_2024011619bad_optional_accessE",
            "__ZN4absl12lts_2024011615random_internal16kRandenRoundKeysE",
            "__ZNSt3__114numeric_limitsIN4absl12lts_202401167uint128EE9is_iec559E",
            "__ZTIN4absl12lts_2024011613time_internal4cctz12TimeZoneLibCE",
            "__ZN4absl12lts_2024011619str_format_internal28FormatConversionCharInternal1cE",
            "__ZTSN4absl12lts_2024011613time_internal4cctz12TimeZoneLibCE",
            "__ZN4absl12lts_2024011618container_internal16GroupAArch64Impl6kWidthE",
            "__ZTSN4absl12lts_2024011612crc_internal3CRCE",
            "__ZN4absl12lts_2024011619str_format_internal31FormatConversionCharSetInternal1EE",
            "__ZTIN4absl12lts_2024011612crc_internal29CrcNonTemporalMemcpyAVXEngineE",
            "__ZN4absl12lts_2024011619str_format_internal28FormatConversionCharInternal1FE",
            "__ZN4absl12lts_2024011611RFC3339_secE",
            "__ZN4absl12lts_2024011618container_internal11kEmptyGroupE",
            "__ZTSN4absl12lts_2024011613time_internal4cctz14ZoneInfoSourceE",
            "__ZN4absl12lts_2024011613base_internal8SpinLock13kSpinLockHeldE",
            "__ZTIN4absl12lts_2024011612crc_internal26CrcNonTemporalMemcpyEngineE",
            "__ZN4absl12lts_2024011619str_format_internal31FormatConversionCharSetInternal9kIntegralE",
            "__ZNSt3__114numeric_limitsIN4absl12lts_202401167uint128EE14is_specializedE",
            "__ZTSN4absl12lts_2024011616strings_internal13OStringStream9StreambufE",
            "__ZN4absl12lts_2024011614ascii_internal8kToUpperE",
            "__ZNSt3__114numeric_limitsIN4absl12lts_202401166int128EE12has_infinityE",
            "__ZN4absl12lts_2024011619str_format_internal31FormatConversionCharSetInternal1cE",
            "__ZN4absl12lts_2024011612RFC1123_fullE",
            "__ZN4absl12lts_2024011616strings_internal12kBase64CharsE",
            "__ZNSt3__114numeric_limitsIN4absl12lts_202401166int128EE15has_denorm_lossE",
            "__ZTVN4absl12lts_2024011612bad_any_castE",
            "__ZN4absl12lts_2024011619str_format_internal28FormatConversionCharInternal1xE",
            "__ZN4absl12lts_2024011611string_view4nposE",
            "__ZNSt3__114numeric_limitsIN4absl12lts_202401166int128EE9is_iec559E",
            "__ZTVN4absl12lts_2024011616SeedGenExceptionE",
            "__ZNSt3__114numeric_limitsIN4absl12lts_202401166int128EE8is_exactE",
            "__ZN4absl12lts_2024011616raw_log_internal21internal_log_functionE",
            "__ZN4absl12lts_2024011619str_format_internal28FormatConversionCharInternal1oE",
            "__ZNSt3__114numeric_limitsIN4absl12lts_202401166int128EE10has_denormE",
            "__ZN4absl12lts_202401164Cord9InlineRep10kMaxInlineE",
            "__ZTVN4absl12lts_2024011612crc_internal29CrcNonTemporalMemcpyAVXEngineE",
            "__ZNSt3__114numeric_limitsIN4absl12lts_202401166int128EE14is_specializedE",
            "__ZN4absl12lts_2024011619str_format_internal31FormatConversionCharSetInternal1fE",
            "__ZTIN4absl12lts_2024011613time_internal4cctz12TimeZoneInfoE",
            "__ZNSt3__114numeric_limitsIN4absl12lts_202401166int128EE12min_exponentE",
            "__ZTSN4absl12lts_2024011615CommandLineFlagE",
            "__ZN4absl12lts_2024011614flags_internal17kStrippedFlagHelpE",
            "__ZTVN4absl12lts_2024011614flags_internal8FlagImplE",
            "__ZNSt3__114numeric_limitsIN4absl12lts_202401166int128EE9is_signedE",
            "__ZTIN4absl12lts_2024011618bad_variant_accessE",
            "__ZN4absl12lts_2024011616strings_internal19kWebSafeBase64CharsE",
            "__ZN4absl12lts_2024011610CordBuffer13kDefaultLimitE",
            "__ZN4absl12lts_2024011611string_view8kMaxSizeE",
            "__ZN4absl12lts_2024011619str_format_internal31FormatConversionCharSetInternal1sE",
            "__ZN4absl12lts_2024011619str_format_internal28FormatConversionCharInternal1AE",
            "__ZN4absl12lts_2024011619str_format_internal28FormatConversionCharInternal1XE",
            "__ZTSN4absl12lts_2024011618bad_variant_accessE",
            "__ZN4absl12lts_2024011624synchronization_internal13PthreadWaiter5kNameE",
            "__ZTIN4absl12lts_2024011612crc_internal23FallbackCrcMemcpyEngineE",
            "__ZN4absl12lts_2024011619str_format_internal28FormatConversionCharInternal1fE",
            "__ZTVN4absl12lts_2024011612crc_internal26CrcNonTemporalMemcpyEngineE",
            "__ZN4absl12lts_2024011611kuint128maxE",
            "__ZN4absl12lts_2024011613cord_internal12CordRepBtree12kMaxCapacityE",
            "__ZTVN4absl12lts_2024011613time_internal4cctz10TimeZoneIfE",
            "__ZN4absl12lts_2024011610CordBuffer12kCustomLimitE",
            "__ZNSt3__114numeric_limitsIN4absl12lts_202401166int128EE12max_exponentE",
            "__ZNSt3__114numeric_limitsIN4absl12lts_202401166int128EE14max_exponent10E",
            "__ZN4absl12lts_2024011619str_format_internal31FormatConversionCharSetInternal9kFloatingE",
            "__ZNSt3__114numeric_limitsIN4absl12lts_202401167uint128EE11round_styleE",
            "__ZNSt3__114numeric_limitsIN4absl12lts_202401167uint128EE13has_quiet_NaNE",
            "__ZN4absl12lts_2024011619str_format_internal31FormatConversionCharSetInternal1nE",
            "__ZN4absl12lts_2024011619str_format_internal31FormatConversionCharSetInternal8kPointerE",
            "__ZNSt3__114numeric_limitsIN4absl12lts_202401167uint128EE5trapsE",
            "__ZTVN4absl12lts_2024011614flags_internal18FlagStateInterfaceE",
            "__ZTSN4absl12lts_2024011617BadStatusOrAccessE",
            "_abslVersionNumber",
            "__ZNSt3__114numeric_limitsIN4absl12lts_202401167uint128EE8digits10E",
            "__ZTSN4absl12lts_2024011613cord_internal11CordzHandleE",
            "__ZTSN4absl12lts_2024011614flags_internal8FlagImplE",
            "__ZN4absl12lts_2024011618container_internal14HashtablezInfo14kMaxStackDepthE",
            "__ZN4absl12lts_2024011619str_format_internal31FormatConversionCharSetInternal1aE",
            "__ZNSt3__114numeric_limitsIN4absl12lts_202401166int128EE9is_moduloE",
            "__ZTIN4absl12lts_2024011616SeedGenExceptionE",
            "__ZN4absl12lts_202401166Status16kMovedFromStringE",
            "__ZNSt3__114numeric_limitsIN4absl12lts_202401166int128EE10is_integerE",
            "__ZN4absl12lts_2024011613base_internal8SpinLock20kSpinLockCooperativeE",
            "__ZN4absl12lts_2024011613cord_internal9CordzInfo12global_list_E",
            "__ZNSt3__114numeric_limitsIN4absl12lts_202401166int128EE5trapsE",
            "__ZTIN4absl12lts_2024011612bad_any_castE",
            "__ZN4absl12lts_2024011619str_format_internal31FormatConversionCharSetInternal1xE",
            "__ZNSt3__114numeric_limitsIN4absl12lts_202401166int128EE11round_styleE",
            "__ZTVN4absl12lts_2024011617BadStatusOrAccessE",
            "__ZTIN4absl12lts_2024011612crc_internal3CRCE",
            "__ZTIN4absl12lts_2024011614flags_internal8FlagImplE",
            "__ZTVN4absl12lts_2024011613time_internal4cctz14ZoneInfoSourceE",
            "__ZTVN4absl12lts_2024011615CommandLineFlagE",
            "__ZN4absl12lts_2024011619str_format_internal28FormatConversionCharInternal1iE",
            "__ZNSt3__114numeric_limitsIN4absl12lts_202401167uint128EE6digitsE",
            "__ZN4absl12lts_2024011619str_format_internal28FormatConversionCharInternal1uE",
            "__ZNSt3__114numeric_limitsIN4absl12lts_202401167uint128EE12max_exponentE",
            "__ZN4absl12lts_2024011619str_format_internal31FormatConversionCharSetInternal1FE",
            "__ZTVN4absl12lts_2024011613cord_internal11CordzHandleE",
            "__ZN4absl12lts_2024011619str_format_internal31FormatConversionCharSetInternal1gE",
            "__ZN4absl12lts_2024011619str_format_internal31FormatConversionCharSetInternal1pE",
            "__ZTSN4absl12lts_2024011612crc_internal23FallbackCrcMemcpyEngineE",
            "__ZN4absl12lts_2024011619str_format_internal28FormatConversionCharInternal1EE",
            "__ZN4absl12lts_2024011615RFC1123_no_wdayE",
            "__ZN4absl12lts_2024011619str_format_internal28FormatConversionCharInternal1nE",
            "__ZNSt3__114numeric_limitsIN4absl12lts_202401166int128EE13has_quiet_NaNE",
            "__ZNSt3__114numeric_limitsIN4absl12lts_202401167uint128EE10has_denormE",
            "__ZTSN4absl12lts_2024011616SeedGenExceptionE",
            "__ZNSt3__114numeric_limitsIN4absl12lts_202401167uint128EE12has_infinityE",
            "__ZN4absl12lts_2024011619str_format_internal28FormatConversionCharInternal1GE",
            "__ZNSt3__114numeric_limitsIN4absl12lts_202401167uint128EE12max_digits10E",
            "__ZTSN4absl12lts_2024011614flags_internal18FlagStateInterfaceE",
            "__ZN4absl12lts_2024011613hash_internal15MixingHashState5kSeedE",
            "__ZNSt3__114numeric_limitsIN4absl12lts_202401167uint128EE15has_denorm_lossE",
            "__ZTSN4absl12lts_2024011612bad_any_castE",
            "__ZN4absl12lts_2024011613cord_internal9CordzInfo14kMaxStackDepthE",
            "__ZN4absl12lts_2024011619str_format_internal31FormatConversionCharSetInternal1uE",
            "__ZTIN4absl12lts_2024011613time_internal4cctz10TimeZoneIfE",
            "_abslVersionString",
            "__ZTIN4absl12lts_2024011616strings_internal13OStringStream9StreambufE",
            "__ZN4absl12lts_2024011619str_format_internal31FormatConversionCharSetInternal1iE",
            "__ZN4absl12lts_2024011619str_format_internal28FormatConversionCharInternal1aE",
            "__ZNSt3__114numeric_limitsIN4absl12lts_202401167uint128EE9is_signedE",
            "__ZTIN4absl12lts_2024011612crc_internal5CRC32E",
            "__ZN4absl12lts_2024011624synchronization_internal13KernelTimeout9kMaxNanosE",
            "__ZN4absl12lts_2024011624synchronization_internal10WaiterBase12kIdlePeriodsE",
            "__ZN4absl12lts_2024011619str_format_internal31FormatConversionCharSetInternal1GE",
            "__ZN4absl12lts_2024011613base_internal8SpinLock13kWaitTimeMaskE",
            "__ZNSt3__114numeric_limitsIN4absl12lts_202401166int128EE14min_exponent10E",
            "__ZTVN4absl12lts_2024011612crc_internal23FallbackCrcMemcpyEngineE"
          ],
          "objc_class": [
            "PodsDummy_abseil"
          ],
          "thread_local": [
            "__ZN4absl12lts_2024011613base_internal19thread_identity_ptrE"
          ],
          "weak": [
            "__ZNSt3__114numeric_limitsIfE12max_digits10E",
            "__ZN4absl12lts_2024011613base_internal11FastTypeTagINSt3__112basic_stringIcNS3_11char_traitsIcEENS3_9allocatorIcEEEEE9dummy_varE",
            "__ZN4absl12lts_2024011613base_internal11FastTypeTagINSt3__16vectorINS3_12basic_stringIcNS3_11char_traitsIcEENS3_9allocatorIcEEEENS8_ISA_EEEEE9dummy_varE",
            "__ZN4absl12lts_2024011613base_internal11FastTypeTagIsE9dummy_varE",
            "__ZZN4absl12lts_2024011613base_internal12CallOnceImplIRFvvEJEEEvPNSt3__16atomicIjEENS1_14SchedulingModeEOT_DpOT0_E5trans",
            "__ZZN4absl12lts_2024011613base_internal12CallOnceImplIMNS0_14flags_internal8FlagImplEFvvEJPS4_EEEvPNSt3__16atomicIjEENS1_14SchedulingModeEOT_DpOT0_E5trans",
            "__ZN4absl12lts_2024011613base_internal11FastTypeTagIiE9dummy_varE",
            "__ZN4absl12lts_2024011613base_internal11FastTypeTagIlE9dummy_varE",
            "__ZN4absl12lts_2024011613base_internal11FastTypeTagIxE9dummy_varE",
            "__ZN4absl12lts_2024011613base_internal11FastTypeTagIbE9dummy_varE",
            "__ZN4absl12lts_2024011613time_internal14cctz_extension24zone_info_source_factoryE",
            "__ZN4absl12lts_2024011613base_internal11FastTypeTagIyE9dummy_varE",
            "__ZNSt3__114numeric_limitsIfE8digits10E",
            "__ZN4absl12lts_2024011613base_internal11FastTypeTagImE9dummy_varE",
            "__ZN4absl12lts_2024011613base_internal11FastTypeTagItE9dummy_varE",
            "__ZN4absl12lts_2024011613base_internal11FastTypeTagIfE9dummy_varE",
            "__ZN4absl12lts_2024011640AbslInternalInlineVariableHolderin_placeIvE9kInstanceE",
            "__ZNSt3__114numeric_limitsIdE8digits10E",
            "__ZNSt3__114numeric_limitsIdE12max_digits10E",
            "__ZN4absl12lts_2024011613base_internal11FastTypeTagIjE9dummy_varE",
            "__ZN4absl12lts_2024011613base_internal11FastTypeTagIdE9dummy_varE",
            "__ZN4absl12lts_2024011639AbslInternalInlineVariableHoldernulloptIvE9kInstanceE"
          ]
        },
        "text": {
          "global": [
            "__ZN4absl12lts_2024011614flags_internal8FlagImpl4InitEv",
            "__ZN4absl12lts_2024011616SeedGenExceptionD2Ev",
            "__ZNK4absl12lts_2024011615CommandLineFlag9IsRetiredEv",
            "__ZN4absl12lts_2024011613time_internal15AbslUnparseFlagENS1_4cctz6detail10civil_timeINS1_8year_tagEEE",
            "__ZN4absl12lts_2024011624synchronization_internal11GraphCycles3PtrENS1_7GraphIdE",
            "__ZN4absl12lts_2024011618bad_variant_accessD2Ev",
            "__ZN4absl12lts_2024011619str_format_internal17FormatConvertImplERKNSt3__112basic_stringIwNS2_11char_traitsIwEENS2_9allocatorIwEEEENS1_24FormatConversionSpecImplEPNS1_14FormatSinkImplE",
            "__ZN4absl12lts_2024011624synchronization_internal13KernelTimeoutC2ENS0_4TimeE",
            "__ZN4absl12lts_2024011626RemoveExtraAsciiWhitespaceEPNSt3__112basic_stringIcNS1_11char_traitsIcEENS1_9allocatorIcEEEE",
            "__ZN4absl12lts_2024011612crc_internal12CrcCordStateC2Ev",
            "__ZN4absl12lts_2024011613base_internal20ThrowStdRuntimeErrorERKNSt3__112basic_stringIcNS2_11char_traitsIcEENS2_9allocatorIcEEEE",
            "__ZN4absl12lts_202401165Mutex7TryLockEv",
            "__ZN4absl12lts_2024011612crc_internal3CRCD1Ev",
            "__ZN4absl12lts_2024011613cord_internal11CordzHandle6DeleteEPS2_",
            "__ZN4absl12lts_2024011613cord_internal12CordRepBtree7RebuildEPPS2_S3_b",
            "__ZNK4absl12lts_202401167uint1288ToStringEv",
            "__ZN4absl12lts_2024011610IsInternalERKNS0_6StatusE",
            "__ZN4absl12lts_202401165Mutex12ReaderUnlockEv",
            "__ZN4absl12lts_2024011616strings_internal13StringifySink6AppendENS0_11string_viewE",
            "__ZN4absl12lts_2024011615Utf8SafeCEscapeENS0_11string_viewE",
            "__ZN4absl12lts_2024011617IsUnauthenticatedERKNS0_6StatusE",
            "__ZN4absl12lts_2024011613DataLossErrorENS0_11string_viewE",
            "__ZN4absl12lts_2024011612UnknownErrorENS0_11string_viewE",
            "__ZN4absl12lts_2024011613ParseDurationENS0_11string_viewEPNS0_8DurationE",
            "__ZN4absl12lts_2024011613time_internal13AbslParseFlagENS0_11string_viewEPNS1_4cctz6detail10civil_timeINS1_7day_tagEEEPNSt3__112basic_stringIcNS9_11char_traitsIcEENS9_9allocatorIcEEEE",
            "__ZN4absl12lts_2024011613time_internal4cctz13utc_time_zoneEv",
            "__ZN4absl12lts_2024011616strings_internal15SingleArgStrCatEx",
            "__ZN4absl12lts_2024011614flags_internal13AbslParseFlagENS0_11string_viewEPiPNSt3__112basic_stringIcNS4_11char_traitsIcEENS4_9allocatorIcEEEE",
            "__ZN4absl12lts_2024011613time_internal4cctz12TimeZoneInfo4MakeERKNSt3__112basic_stringIcNS4_11char_traitsIcEENS4_9allocatorIcEEEE",
            "__ZN4absl12lts_2024011618container_internal12UnsampleSlowEPNS1_14HashtablezInfoE",
            "__ZN4absl12lts_2024011618container_internal28RecordClearedReservationSlowEPNS1_14HashtablezInfoE",
            "__ZN4absl12lts_202401166Status15MovedFromStringEv",
            "__ZN4absl12lts_2024011614flags_internal13AbslParseFlagENS0_11string_viewEPyPNSt3__112basic_stringIcNS4_11char_traitsIcEENS4_9allocatorIcEEEE",
            "__ZN4absl12lts_202401168DurationdVEx",
            "__ZN4absl12lts_2024011620ToChronoMicrosecondsENS0_8DurationE",
            "__ZN4absl12lts_2024011618container_internal16RecordRehashSlowEPNS1_14HashtablezInfoEm",
            "__ZN4absl12lts_2024011614Base64UnescapeENS0_11string_viewEPNSt3__112basic_stringIcNS2_11char_traitsIcEENS2_9allocatorIcEEEE",
            "__ZN4absl12lts_2024011618container_internal23GlobalHashtablezSamplerEv",
            "__ZNK4absl12lts_2024011612crc_internal5CRC328ScrambleEPj",
            "__ZN4absl12lts_202401164Cord9InlineRep10AssignSlowERKS2_",
            "__ZN4absl12lts_2024011616numbers_internal17SixDigitsToBufferEdPc",
            "__ZN4absl12lts_2024011612NotificationD1Ev",
            "__ZN4absl12lts_2024011613cord_internal12CordRepBtree4DumpEPKNS1_7CordRepERNSt3__113basic_ostreamIcNS6_11char_traitsIcEEEE",
            "__ZN4absl12lts_2024011616strings_internal15SingleArgStrCatEj",
            "__ZN4absl12lts_2024011615IsUnimplementedERKNS0_6StatusE",
            "__ZN4absl12lts_2024011613time_internallsERNSt3__113basic_ostreamIcNS2_11char_traitsIcEEEENS1_4cctz6detail10civil_timeINS1_10minute_tagEEE",
            "__ZN4absl12lts_202401164Cord17AssignLargeStringEONSt3__112basic_stringIcNS2_11char_traitsIcEENS2_9allocatorIcEEEE",
            "__ZN4absl12lts_202401167CondVar6RemoveEPNS0_13base_internal14PerThreadSynchE",
            "__ZN4absl12lts_2024011612crc_internal12CrcCordStateD1Ev",
            "__ZN4absl12lts_2024011616strings_internal13StringifySink6AppendEmc",
            "__ZNK4absl12lts_2024011612Notification30WaitForNotificationWithTimeoutENS0_8DurationE",
            "__ZN4absl12lts_2024011615FormatCivilTimeENS0_13time_internal4cctz6detail10civil_timeINS1_9month_tagEEE",
            "__ZN4absl12lts_202401165Mutex3FerEPNS0_13base_internal14PerThreadSynchE",
            "__ZN4absl12lts_2024011619str_format_internal11FILERawSink5WriteENS0_11string_viewE",
            "__ZN4absl12lts_2024011612crc_internal12CrcCordStateD2Ev",
            "__ZNK4absl12lts_2024011613time_internal4cctz12TimeZoneLibC11DescriptionEv",
            "__ZN4absl12lts_2024011619str_format_internal16ConvertFloatImplEdRKNS1_24FormatConversionSpecImplEPNS1_14FormatSinkImplE",
            "__ZN4absl12lts_2024011624synchronization_internal13PthreadWaiter9TimedWaitENS1_13KernelTimeoutE",
            "__ZN4absl12lts_2024011619GetCurrentTimeNanosEv",
            "__ZN4absl12lts_2024011619str_format_internal9SummarizeENS1_21UntypedFormatSpecImplENS0_4SpanIKNS1_13FormatArgImplEEE",
            "__ZN4absl12lts_2024011613cord_internal12CordRepBtree10CopyPrefixEmb",
            "__ZN4absl12lts_202401169ToTimevalENS0_4TimeE",
            "__ZN4absl12lts_2024011612crc_internal5CRC3218ExtendByZeroesImplEPjmPKjS5_",
            "__ZN4absl12lts_2024011619str_format_internal17FormatConvertImplENS1_7VoidPtrENS1_24FormatConversionSpecImplEPNS1_14FormatSinkImplE",
            "__ZN4absl12lts_2024011619str_format_internal17FormatConvertImplENS0_11string_viewENS1_24FormatConversionSpecImplEPNS1_14FormatSinkImplE",
            "__ZN4absl12lts_2024011613base_internal13LowLevelAlloc5ArenaC2Ej",
            "__ZN4absl12lts_2024011613cord_internal12CordRepBtree6AppendEPS2_NS0_11string_viewEm",
            "__ZN4absl12lts_2024011615random_internal21ThrowSeedGenExceptionEv",
            "__ZN4absl12lts_2024011611GetAllFlagsEv",
            "__ZN4absl12lts_2024011613cord_internal12CordRepBtree11AssertValidEPKS2_b",
            "__ZN4absl12lts_2024011613time_internal13AbslParseFlagENS0_11string_viewEPNS1_4cctz6detail10civil_timeINS1_8year_tagEEEPNSt3__112basic_stringIcNS9_11char_traitsIcEENS9_9allocatorIcEEEE",
            "__ZN4absl12lts_2024011613time_internal15AbslUnparseFlagENS1_4cctz6detail10civil_timeINS1_9month_tagEEE",
            "__ZN4absl12lts_2024011617BadStatusOrAccessaSERKS1_",
            "__ZN4absl12lts_2024011619str_format_internal17FormatConvertImplEiNS1_24FormatConversionSpecImplEPNS1_14FormatSinkImplE",
            "__ZNK4absl12lts_2024011614flags_internal8FlagImpl17AtomicBufferValueEv",
            "__ZNK4absl12lts_2024011624synchronization_internal13KernelTimeout20InNanosecondsFromNowEv",
            "__ZN4absl12lts_2024011619substitute_internal3ArgC2EPKv",
            "__ZN4absl12lts_2024011613cord_internal9CordzInfoC2EPNS1_7CordRepEPKS2_NS1_18CordzUpdateTracker16MethodIdentifierE",
            "__ZNK4absl12lts_2024011613time_internal4cctz12TimeZoneLibC14NextTransitionERKNSt3__16chrono10time_pointINS5_12system_clockENS5_8durationIxNS4_5ratioILl1ELl1EEEEEEEPNS2_9time_zone16civil_transitionE",
            "__ZN4absl12lts_2024011615random_internal10RandenSlow8GenerateEPKvPv",
            "__ZN4absl12lts_2024011614flags_internal13AbslParseFlagENS0_11string_viewEPlPNSt3__112basic_stringIcNS4_11char_traitsIcEENS4_9allocatorIcEEEE",
            "__ZN4absl12lts_2024011616strings_internal21AppendIntegerToStringIlEENSt3__19enable_ifIXsr3std11is_integralIT_EE5valueEvE4typeERNS3_12basic_stringIcNS3_11char_traitsIcEENS3_9allocatorIcEEEES5_",
            "__ZN4absl12lts_2024011620UnauthenticatedErrorENS0_11string_viewE",
            "__ZN4absl12lts_2024011613base_internal20ThrowStdRuntimeErrorEPKc",
            "__ZN4absl12lts_202401165Mutex11AwaitCommonERKNS0_9ConditionENS0_24synchronization_internal13KernelTimeoutE",
            "__ZN4absl12lts_2024011619str_format_internal16ConvertFloatImplEeRKNS1_24FormatConversionSpecImplEPNS1_14FormatSinkImplE",
            "__ZN4absl12lts_20240116lsERNSt3__113basic_ostreamIcNS1_11char_traitsIcEEEENS0_10StatusCodeE",
            "__ZN4absl12lts_202401167ToUDateENS0_4TimeE",
            "__ZN4absl12lts_2024011614flags_internal13AbslParseFlagENS0_11string_viewEPdPNSt3__112basic_stringIcNS4_11char_traitsIcEENS4_9allocatorIcEEEE",
            "__ZN4absl12lts_2024011610SimpleAtodENS0_11string_viewEPd",
            "__ZN4absl12lts_2024011613AbslParseFlagENS0_11string_viewEPNS0_8DurationEPNSt3__112basic_stringIcNS4_11char_traitsIcEENS4_9allocatorIcEEEE",
            "__ZN4absl12lts_2024011614flags_internal7UnparseEb",
            "__ZN4absl12lts_2024011613time_internal4cctz12TimeZoneLibC4MakeERKNSt3__112basic_stringIcNS4_11char_traitsIcEENS4_9allocatorIcEEEE",
            "__ZN4absl12lts_2024011612ToUnixMicrosENS0_4TimeE",
            "__ZN4absl12lts_2024011619str_format_internal17FormatConvertImplEPKcNS1_24FormatConversionSpecImplEPNS1_14FormatSinkImplE",
            "__ZN4absl12lts_2024011613base_internal24RegisterSpinLockProfilerEPFvPKvxE",
            "__ZN4absl12lts_2024011614flags_internal8FlagImpl11SetCallbackEPFvvE",
            "__ZN4absl12lts_2024011616HexStringToBytesENS0_11string_viewE",
            "__ZN4absl12lts_2024011619str_format_internal17FormatConvertImplEsNS1_24FormatConversionSpecImplEPNS1_14FormatSinkImplE",
            "__ZN4absl12lts_2024011615status_internal23GetStatusPayloadPrinterEv",
            "__ZN4absl12lts_202401165MutexD2Ev",
            "__ZN4absl12lts_2024011611UnparseFlagENS0_8DurationE",
            "__ZN4absl12lts_2024011616CopyCordToStringERKNS0_4CordEPNSt3__112basic_stringIcNS4_11char_traitsIcEENS4_9allocatorIcEEEE",
            "__ZN4absl12lts_2024011619str_format_internal17FormatConvertImplEyNS1_24FormatConversionSpecImplEPNS1_14FormatSinkImplE",
            "__ZN4absl12lts_202401165Mutex11TryLockSlowEv",
            "__ZN4absl12lts_2024011614CancelledErrorENS0_11string_viewE",
            "__ZN4absl12lts_2024011616numbers_internal15FastIntToBufferExPc",
            "__ZN4absl12lts_2024011618container_internal29find_first_non_full_outoflineERKNS1_12CommonFieldsEm",
            "__ZN4absl12lts_202401164Cord9InlineRep11AppendArrayENS0_11string_viewENS0_13cord_internal18CordzUpdateTracker16MethodIdentifierE",
            "__ZN4absl12lts_2024011619str_format_internal17FormatConvertImplEeNS1_24FormatConversionSpecImplEPNS1_14FormatSinkImplE",
            "__ZN4absl12lts_2024011613cord_internal11CordzHandle25DiagnosticsGetDeleteQueueEv",
            "__ZN4absl12lts_2024011618debugging_internal14DemangleStringEPKc",
            "__ZN4absl12lts_2024011615random_internal6RandenC2Ev",
            "__ZN4absl12lts_2024011615random_internal15GetSaltMaterialEv",
            "__ZN4absl12lts_2024011613base_internal8SpinLock8SlowLockEv",
            "__ZN4absl12lts_2024011624synchronization_internal12PerThreadSem23GetThreadBlockedCounterEv",
            "__ZN4absl12lts_202401164CeilENS0_8DurationES1_",
            "__ZN4absl12lts_2024011616numbers_internal18safe_strtou64_baseENS0_11string_viewEPyi",
            "__ZN4absl12lts_202401167CondVar9SignalAllEv",
            "__ZNK4absl12lts_2024011613time_internal4cctz9time_zone7versionEv",
            "__ZN4absl12lts_2024011613time_internal4cctz6detaillsERNSt3__113basic_ostreamIcNS4_11char_traitsIcEEEERKNS3_10civil_timeINS3_9month_tagEEE",
            "__ZN4absl12lts_2024011617ErrnoToStatusCodeEi",
            "__ZN4absl12lts_2024011613IsUnavailableERKNS0_6StatusE",
            "__ZN4absl12lts_2024011617BadStatusOrAccessC2ENS0_6StatusE",
            "__ZN4absl12lts_2024011613InternalErrorENS0_11string_viewE",
            "__ZN4absl12lts_2024011614flags_internal21PrivateHandleAccessor9SaveStateERNS0_15CommandLineFlagE",
            "__ZN4absl12lts_2024011618UnimplementedErrorENS0_11string_viewE",
            "__ZN4absl12lts_2024011613base_internal12GetCachedTIDEv",
            "__ZNK4absl12lts_2024011613time_internal4cctz12TimeZoneInfo11DescriptionEv",
            "__ZN4absl12lts_2024011612crc_internal5CRC3210InitTablesEv",
            "__ZN4absl12lts_2024011613cord_internal7CordRep7DestroyEPS2_",
            "__ZNK4absl12lts_202401164Cord10EqualsImplENS0_11string_viewEm",
            "__ZN4absl12lts_2024011619str_format_internal17FormatConvertImplEtNS1_24FormatConversionSpecImplEPNS1_14FormatSinkImplE",
            "__ZN4absl12lts_202401163NowEv",
            "__ZN4absl12lts_2024011616raw_log_internal25AsyncSignalSafeWriteErrorEPKcm",
            "__ZNK4absl12lts_2024011613time_internal4cctz9time_zone4nameEv",
            "__ZN4absl12lts_202401165Mutex20LockSlowWithDeadlineEPKNS0_6MuHowSEPKNS0_9ConditionENS0_24synchronization_internal13KernelTimeoutEi",
            "__ZN4absl12lts_202401167CondVar10WaitCommonEPNS0_5MutexENS0_24synchronization_internal13KernelTimeoutE",
            "__ZN4absl12lts_2024011618container_internal14HashtablezInfoC1Ev",
            "__ZNK4absl12lts_2024011624synchronization_internal13KernelTimeout16ToChronoDurationEv",
            "__ZN4absl12lts_2024011613time_internal4cctz6detaillsERNSt3__113basic_ostreamIcNS4_11char_traitsIcEEEENS3_7weekdayE",
            "__ZNK4absl12lts_2024011617BadStatusOrAccess6statusEv",
            "__ZN4absl12lts_2024011618container_internal24DropDeletesWithoutResizeERNS1_12CommonFieldsERKNS1_15PolicyFunctionsEPv",
            "__ZN4absl12lts_202401169StrAppendEPNSt3__112basic_stringIcNS1_11char_traitsIcEENS1_9allocatorIcEEEERKNS0_8AlphaNumE",
            "__ZN4absl12lts_2024011613base_internal8SpinLockC1ENS1_14SchedulingModeE",
            "__ZNK4absl12lts_202401164Cord8EndsWithERKS1_",
            "__ZN4absl12lts_2024011624synchronization_internal13KernelTimeoutC1ENS0_8DurationE",
            "__ZN4absl12lts_202401169FlagSaverD1Ev",
            "__ZN4absl12lts_2024011613base_internal23ThrowStdInvalidArgumentEPKc",
            "__ZN4absl12lts_2024011612MemcpyCrc32cEPvPKvmNS0_8crc32c_tE",
            "__ZN4absl12lts_2024011613cord_internal7ConsumeEPNS1_7CordRepENS0_11FunctionRefIFvS3_mmEEE",
            "__ZN4absl12lts_2024011618debugging_internal8DemangleEPKcPcm",
            "__ZN4absl12lts_2024011623FindLongestCommonPrefixENS0_11string_viewES1_",
            "__ZNK4absl12lts_202401165Mutex10AssertHeldEv",
            "__ZNK4absl12lts_2024011611string_view17find_first_not_ofES1_m",
            "__ZN4absl12lts_2024011619str_format_internal17FormatConvertImplEDnNS1_24FormatConversionSpecImplEPNS1_14FormatSinkImplE",
            "__ZN4absl12lts_2024011612crc_internal12CrcCordStateC1EOS2_",
            "__ZN4absl12lts_2024011618profiling_internal17ExponentialBiased9GetStrideEx",
            "__ZN4absl12lts_202401166StrCatERKNS0_8AlphaNumES3_S3_S3_",
            "__ZN4absl12lts_2024011615FormatCivilTimeENS0_13time_internal4cctz6detail10civil_timeINS1_8hour_tagEEE",
            "__ZN4absl12lts_2024011615random_internal6RandenC1Ev",
            "__ZN4absl12lts_202401167uint128C1Ed",
            "__ZN4absl12lts_2024011613base_internal13LowLevelAlloc5AllocEm",
            "__ZN4absl12lts_2024011613cord_internal12CordRepBtree14ConsumeBeginToEPS2_mm",
            "__ZN4absl12lts_2024011616numbers_internal15FastIntToBufferEiPc",
            "__ZN4absl12lts_2024011613cord_internal9CordzInfo9TrackCordERNS1_10InlineDataERKS3_NS1_18CordzUpdateTracker16MethodIdentifierE",
            "__ZN4absl12lts_2024011624synchronization_internal13KernelTimeout14SteadyClockNowEv",
            "__ZN4absl12lts_2024011613cord_internal12CordRepBtree10AppendSlowEPS2_PNS1_7CordRepE",
            "__ZN4absl12lts_2024011613time_internal15AbslUnparseFlagENS1_4cctz6detail10civil_timeINS1_10second_tagEEE",
            "__ZN4absl12lts_2024011613cord_internal11CordzHandleC1Eb",
            "__ZN4absl12lts_2024011613time_internal4cctz12TimeZoneLibCC2ERKNSt3__112basic_stringIcNS4_11char_traitsIcEENS4_9allocatorIcEEEE",
            "__ZN4absl12lts_2024011618container_internal17ClearBackingArrayERNS1_12CommonFieldsERKNS1_15PolicyFunctionsEb",
            "__ZN4absl12lts_2024011616numbers_internal18safe_strtou32_baseENS0_11string_viewEPji",
            "__ZN4absl12lts_202401168DurationrMES1_",
            "__ZN4absl12lts_2024011618container_internal20SetHashtablezEnabledEb",
            "__ZN4absl12lts_2024011612crc_internal9CrcMemcpy22GetArchSpecificEnginesEv",
            "__ZN4absl12lts_2024011616strings_internal37STLStringAppendUninitializedAmortizedEPNSt3__112basic_stringIcNS2_11char_traitsIcEENS2_9allocatorIcEEEEm",
            "__ZN4absl12lts_2024011613cord_internal38IsCordBtreeExhaustiveValidationEnabledEv",
            "__ZN4absl12lts_2024011612bad_any_castD2Ev",
            "__ZNK4absl12lts_202401164Cord8FindImplENS1_12CharIteratorENS0_11string_viewE",
            "__ZN4absl12lts_2024011614flags_internal8FlagImpl5WriteEPKv",
            "__ZN4absl12lts_2024011613time_internal4cctz12TimeZoneInfo3UTCEv",
            "__ZNK4absl12lts_2024011614flags_internal8FlagImpl13MakeInitValueEv",
            "__ZN4absl12lts_2024011624synchronization_internal13KernelTimeoutC1ENS0_4TimeE",
            "__ZN4absl12lts_2024011613cord_internal21CordRepBtreeNavigator4ReadEmm",
            "__ZN4absl12lts_2024011619str_format_internal10AppendPackEPNSt3__112basic_stringIcNS2_11char_traitsIcEENS2_9allocatorIcEEEENS1_21UntypedFormatSpecImplENS0_4SpanIKNS1_13FormatArgImplEEE",
            "__ZN4absl12lts_2024011616strings_internal21AppendIntegerToStringImEENSt3__19enable_ifIXsr3std11is_integralIT_EE5valueEvE4typeERNS3_12basic_stringIcNS3_11char_traitsIcEENS3_9allocatorIcEEEES5_",
            "__ZN4absl12lts_202401164Cord13AppendPreciseENS0_11string_viewENS0_13cord_internal18CordzUpdateTracker16MethodIdentifierE",
            "__ZN4absl12lts_2024011616numbers_internal18safe_strto128_baseENS0_11string_viewEPNS0_6int128Ei",
            "__ZN4absl12lts_202401168ByStringC2ENS0_11string_viewE",
            "__ZN4absl12lts_2024011616BytesToHexStringENS0_11string_viewE",
            "__ZN4absl12lts_2024011613cord_internal23get_cordz_mean_intervalEv",
            "__ZNK4absl12lts_202401164Cord4FindERKS1_",
            "__ZNK4absl12lts_202401164Cord16ExpectedChecksumEv",
            "__ZN4absl12lts_2024011613cord_internal12CordRepBtree7AddDataILNS2_8EdgeTypeE1EEENS0_11string_viewES5_m",
            "__ZN4absl12lts_20240116lsERNSt3__113basic_ostreamIcNS1_11char_traitsIcEEEENS0_18LogSeverityAtLeastE",
            "__ZN4absl12lts_2024011614flags_internal18FlagStateInterfaceD1Ev",
            "__ZN4absl12lts_202401167uint128C2Ed",
            "__ZN4absl12lts_2024011617BadStatusOrAccessC2EOS1_",
            "__ZN4absl12lts_2024011618container_internal23SetHashtablezMaxSamplesEm",
            "__ZN4absl12lts_2024011614flags_internal7UnparseEy",
            "__ZN4absl12lts_2024011620ExtendCrc32cByZeroesENS0_8crc32c_tEm",
            "__ZN4absl12lts_2024011613cord_internal23GetEstimatedMemoryUsageEPKNS1_7CordRepE",
            "__ZN4absl12lts_2024011615status_internal23SetStatusPayloadPrinterEPFNS0_8optionalINSt3__112basic_stringIcNS3_11char_traitsIcEENS3_9allocatorIcEEEEEENS0_11string_viewERKNS0_4CordEE",
            "__ZN4absl12lts_2024011618container_internal28SetHashtablezEnabledInternalEb",
            "__ZN4absl12lts_2024011619bad_optional_accessD2Ev",
            "__ZN4absl12lts_202401167CEscapeENS0_11string_viewE",
            "__ZNK4absl12lts_2024011613cord_internal11CordzHandle12SafeToDeleteEv",
            "__ZN4absl12lts_202401166Status15PrepareToModifyEm",
            "__ZN4absl12lts_2024011616numbers_internal32GetNumDigitsOrNegativeIfNegativeEi",
            "__ZN4absl12lts_2024011613cord_internal14ReverseConsumeEPNS1_7CordRepENS0_11FunctionRefIFvS3_mmEEE",
            "__ZN4absl12lts_2024011624synchronization_internal11GraphCycles13GetStackTraceENS1_7GraphIdEPPPv",
            "__ZN4absl12lts_202401168DurationmLEd",
            "__ZN4absl12lts_2024011614GetStackFramesEPPvPiii",
            "__ZN4absl12lts_2024011614flags_internal13AbslParseFlagENS0_11string_viewEPtPNSt3__112basic_stringIcNS4_11char_traitsIcEENS4_9allocatorIcEEEE",
            "__ZN4absl12lts_2024011619ReleasableMutexLock7ReleaseEv",
            "__ZN4absl12lts_2024011620IsFailedPreconditionERKNS0_6StatusE",
            "__ZN4absl12lts_202401165Mutex12LockSlowLoopEPNS0_15SynchWaitParamsEi",
            "__ZN4absl12lts_202401167uint128C1Ee",
            "__ZN4absl12lts_2024011613time_internal15AbslUnparseFlagENS1_4cctz6detail10civil_timeINS1_7day_tagEEE",
            "__ZNK4absl12lts_2024011614flags_internal8FlagImpl12DefaultValueEv",
            "__ZNK4absl12lts_202401168ByString4FindENS0_11string_viewEm",
            "__ZNK4absl12lts_2024011613time_internal4cctz12TimeZoneInfo8MakeTimeERKNS2_6detail10civil_timeINS4_10second_tagEEE",
            "__ZN4absl12lts_2024011613cord_internal9CordzInfo4LockENS1_18CordzUpdateTracker16MethodIdentifierE",
            "__ZN4absl12lts_2024011613time_internallsERNSt3__113basic_ostreamIcNS2_11char_traitsIcEEEENS1_4cctz6detail10civil_timeINS1_8year_tagEEE",
            "__ZN4absl12lts_2024011613cord_internal12CordRepBtree12ExtractFrontEPS2_",
            "__ZNK4absl12lts_202401166ByChar4FindENS0_11string_viewEm",
            "__ZN4absl12lts_2024011618container_internal14HashtablezInfoD1Ev",
            "__ZNK4absl12lts_2024011613time_internal4cctz12TimeZoneInfo16EquivTransitionsEhh",
            "__ZN4absl12lts_202401167uint128C2Ef",
            "__ZN4absl12lts_2024011614flags_internal7UnparseEl",
            "__ZN4absl12lts_2024011613time_internal4cctz6detaillsERNSt3__113basic_ostreamIcNS4_11char_traitsIcEEEERKNS3_10civil_timeINS3_7day_tagEEE",
            "__ZN4absl12lts_2024011618container_internal31SetHashtablezMaxSamplesInternalEm",
            "__ZN4absl12lts_2024011618container_internal14HashtablezInfo18PrepareForSamplingExm",
            "__ZN4absl12lts_2024011614ToInt64MinutesENS0_8DurationE",
            "__ZN4absl12lts_2024011619WebSafeBase64EscapeENS0_11string_viewEPNSt3__112basic_stringIcNS2_11char_traitsIcEENS2_9allocatorIcEEEE",
            "__ZN4absl12lts_2024011616strings_internal18SingleArgStrAppendERNSt3__112basic_stringIcNS2_11char_traitsIcEENS2_9allocatorIcEEEEm",
            "__ZN4absl12lts_2024011613time_internal4cctz10TimeZoneIfD2Ev",
            "__ZN4absl12lts_2024011613base_internal23ThrowStdInvalidArgumentERKNSt3__112basic_stringIcNS2_11char_traitsIcEENS2_9allocatorIcEEEE",
            "__ZN4absl12lts_2024011615random_internal11RandenHwAes8GenerateEPKvPv",
            "__ZN4absl12lts_2024011618container_internal19IsHashtablezEnabledEv",
            "__ZN4absl12lts_2024011619str_format_internal17FormatConvertImplEPKwNS1_24FormatConversionSpecImplEPNS1_14FormatSinkImplE",
            "__ZN4absl12lts_2024011619str_format_internal17FormatConvertImplEfNS1_24FormatConversionSpecImplEPNS1_14FormatSinkImplE",
            "__ZN4absl12lts_202401164Cord12PrependArrayENS0_11string_viewENS0_13cord_internal18CordzUpdateTracker16MethodIdentifierE",
            "__ZNK4absl12lts_2024011617BadStatusOrAccess8InitWhatEv",
            "__ZN4absl12lts_202401164CordC1ENS0_11string_viewENS0_13cord_internal18CordzUpdateTracker16MethodIdentifierE",
            "__ZN4absl12lts_2024011618container_internal28GetHashtablezSampleParameterEv",
            "__ZN4absl12lts_2024011613base_internal13LowLevelAlloc5ArenaC1Ej",
            "__ZNK4absl12lts_2024011611string_view13find_first_ofES1_m",
            "__ZN4absl12lts_2024011616strings_internal14CordTestAccess13MaxFlatLengthEv",
            "__ZNK4absl12lts_2024011613time_internal4cctz14ZoneInfoSource7VersionEv",
            "__ZN4absl12lts_202401166Status11EmptyStringEv",
            "__ZN4absl12lts_2024011615TimeFromTimevalE7timeval",
            "__ZNK4absl12lts_2024011613cord_internal11CordzHandle32DiagnosticsHandleIsSafeToInspectEPKS2_",
            "__ZN4absl12lts_2024011613time_internal15AbslUnparseFlagENS1_4cctz6detail10civil_timeINS1_10minute_tagEEE",
            "__ZN4absl12lts_2024011618container_internal15EmptyGenerationEv",
            "__ZNK4absl12lts_202401165Mutex13AssertNotHeldEv",
            "__ZN4absl12lts_2024011619str_format_internal17FormatConvertImplEcNS1_24FormatConversionSpecImplEPNS1_14FormatSinkImplE",
            "__ZN4absl12lts_2024011617internal_statusor22ThrowBadStatusOrAccessENS0_6StatusE",
            "__ZN4absl12lts_2024011610ToTimespecENS0_4TimeE",
            "__ZNK4absl12lts_202401164Cord8ContainsERKS1_",
            "__ZN4absl12lts_2024011613hash_internal19CityHash64WithSeedsEPKcmyy",
            "__ZN4absl12lts_202401164Cord15ForEachChunkAuxEPNS0_13cord_internal7CordRepENS0_11FunctionRefIFvNS0_11string_viewEEEE",
            "__ZN4absl12lts_202401164Cord9InlineRep9UnrefTreeEv",
            "__ZN4absl12lts_2024011613base_internal18ThrowStdRangeErrorERKNSt3__112basic_stringIcNS2_11char_traitsIcEENS2_9allocatorIcEEEE",
            "__ZN4absl12lts_2024011613base_internal19ThrowStdDomainErrorERKNSt3__112basic_stringIcNS2_11char_traitsIcEENS2_9allocatorIcEEEE",
            "__ZN4absl12lts_2024011615AsciiStrToUpperEPNSt3__112basic_stringIcNS1_11char_traitsIcEENS1_9allocatorIcEEEE",
            "__ZN4absl12lts_2024011614flags_internal16FinalizeRegistryEv",
            "__ZN4absl12lts_2024011613cord_internal11CordzHandleD2Ev",
            "__ZN4absl12lts_2024011610ToTimespecENS0_8DurationE",
            "__ZN4absl12lts_2024011614flags_internal12FlagRegistry12RegisterFlagERNS0_15CommandLineFlagEPKc",
            "__ZN4absl12lts_2024011613base_internal18ThrowStdOutOfRangeEPKc",
            "__ZN4absl12lts_2024011613cord_internal12CordRepBtree4DumpEPKNS1_7CordRepENS0_11string_viewEbRNSt3__113basic_ostreamIcNS7_11char_traitsIcEEEE",
            "__ZN4absl12lts_2024011614flags_internal7UnparseENS0_7uint128E",
            "__ZN4absl12lts_2024011613base_internal18ThrowStdLogicErrorERKNSt3__112basic_stringIcNS2_11char_traitsIcEENS2_9allocatorIcEEEE",
            "__ZN4absl12lts_2024011616raw_log_internal30RegisterLogFilterAndPrefixHookEPFbNS0_11LogSeverityEPKciPPcPiE",
            "__ZN4absl12lts_2024011615CommandLineFlag9ParseFromENS0_11string_viewEPNSt3__112basic_stringIcNS3_11char_traitsIcEENS3_9allocatorIcEEEE",
            "__ZN4absl12lts_2024011613base_internal8SpinLock16EncodeWaitCyclesExx",
            "__ZN4absl12lts_2024011619ToChronoNanosecondsENS0_8DurationE",
            "__ZN4absl12lts_2024011619str_format_internal17FormatConvertImplEaNS1_24FormatConversionSpecImplEPNS1_14FormatSinkImplE",
            "__ZN4absl12lts_2024011615ToChronoMinutesENS0_8DurationE",
            "__ZN4absl12lts_2024011613time_internal12IDivDurationEbNS0_8DurationES2_PS2_",
            "__ZN4absl12lts_2024011624synchronization_internal13PthreadWaiter4WaitENS1_13KernelTimeoutE",
            "__ZN4absl12lts_2024011619str_format_internal17FormatConvertImplERKNSt3__112basic_stringIcNS2_11char_traitsIcEENS2_9allocatorIcEEEENS1_24FormatConversionSpecImplEPNS1_14FormatSinkImplE",
            "__ZN4absl12lts_2024011619substitute_internal3ArgC2ENS0_3DecE",
            "__ZN4absl12lts_2024011618debugging_internal22StackTraceWorksForTestEv",
            "__ZNK4absl12lts_2024011611string_view17find_first_not_ofEcm",
            "__ZN4absl12lts_2024011619str_format_internal17FormatConvertImplENS0_7uint128ENS1_24FormatConversionSpecImplEPNS1_14FormatSinkImplE",
            "__ZNK4absl12lts_2024011613cord_internal9CordzInfo18GetCordzStatisticsEv",
            "__ZN4absl12lts_2024011613base_internal18ThrowStdOutOfRangeERKNSt3__112basic_stringIcNS2_11char_traitsIcEENS2_9allocatorIcEEEE",
            "__ZN4absl12lts_2024011614flags_internal21PrivateHandleAccessor24IsSpecifiedOnCommandLineERKNS0_15CommandLineFlagE",
            "__ZN4absl12lts_2024011613time_internal13AbslParseFlagENS0_11string_viewEPNS1_4cctz6detail10civil_timeINS1_10second_tagEEEPNSt3__112basic_stringIcNS9_11char_traitsIcEENS9_9allocatorIcEEEE",
            "__ZN4absl12lts_2024011613base_internal13LowLevelAlloc8NewArenaEj",
            "__ZN4absl12lts_202401168ByLengthC2El",
            "__ZN4absl12lts_2024011613time_internal4cctz12TimeZoneInfo4LoadEPNS2_14ZoneInfoSourceE",
            "__ZN4absl12lts_2024011618container_internal19HashSetResizeHelper35GrowSizeIntoSingleGroupTransferableERNS1_12CommonFieldsEPvm",
            "__ZN4absl12lts_2024011611MakeSeedSeqEv",
            "__ZN4absl12lts_2024011616strings_internal12AppendPiecesEPNSt3__112basic_stringIcNS2_11char_traitsIcEENS2_9allocatorIcEEEESt16initializer_listINS0_11string_viewEE",
            "__ZN4absl12lts_2024011620InitializeSymbolizerEPKc",
            "__ZN4absl12lts_202401169ParseFlagERKNSt3__112basic_stringIcNS1_11char_traitsIcEENS1_9allocatorIcEEEEPNS0_8DurationEPS7_",
            "__ZNK4absl12lts_2024011611string_view16find_last_not_ofEcm",
            "__ZNK4absl12lts_2024011613time_internal4cctz12TimeZoneLibC9BreakTimeERKNSt3__16chrono10time_pointINS5_12system_clockENS5_8durationIxNS4_5ratioILl1ELl1EEEEEEE",
            "__ZN4absl12lts_2024011614flags_internal13AbslParseFlagENS0_11string_viewEPNSt3__112basic_stringIcNS3_11char_traitsIcEENS3_9allocatorIcEEEESA_",
            "__ZNK4absl12lts_202401164Cord8ContainsENS0_11string_viewE",
            "__ZNK4absl12lts_2024011624synchronization_internal13KernelTimeout15MakeAbsTimespecEv",
            "__ZN4absl12lts_2024011619str_format_internal13BufferRawSink5WriteENS0_11string_viewE",
            "__ZN4absl12lts_202401169Condition15GuaranteedEqualEPKS1_S3_",
            "__ZN4absl12lts_2024011624synchronization_internal25OneTimeInitThreadIdentityEPNS0_13base_internal14ThreadIdentityE",
            "__ZN4absl12lts_2024011613cord_internal12CordRepBtree10CopySuffixEm",
            "__ZN4absl12lts_2024011614flags_internal14GetUsageConfigEv",
            "__ZN4absl12lts_2024011621ParseLenientCivilTimeENS0_11string_viewEPNS0_13time_internal4cctz6detail10civil_timeINS2_10minute_tagEEE",
            "__ZN4absl12lts_2024011613ToDoubleHoursENS0_8DurationE",
            "__ZNK4absl12lts_202401168TimeZone2AtENS0_13time_internal4cctz6detail10civil_timeINS2_10second_tagEEE",
            "__ZN4absl12lts_202401165Mutex14EnableDebugLogEPKc",
            "__ZNK4absl12lts_2024011614flags_internal8FlagImpl15AssertValidTypeEPKvPFPKSt9type_infovE",
            "__ZN4absl12lts_2024011618EndsWithIgnoreCaseENS0_11string_viewES1_",
            "__ZNK4absl12lts_2024011615status_internal9StatusRep14ForEachPayloadENS0_11FunctionRefIFvNS0_11string_viewERKNS0_4CordEEEE",
            "__ZN4absl12lts_2024011613ComputeCrc32cENS0_11string_viewE",
            "__ZN4absl12lts_2024011619str_format_internal32ConsumeUnboundConversionNoInlineEPKcS3_PNS1_17UnboundConversionEPi",
            "__ZN4absl12lts_2024011616strings_internal14CordTestAccess21SizeofCordRepExternalEv",
            "__ZN4absl12lts_2024011615status_internal9StatusRep10SetPayloadENS0_11string_viewENS0_4CordE",
            "__ZN4absl12lts_2024011613base_internal21ThrowStdOverflowErrorERKNSt3__112basic_stringIcNS2_11char_traitsIcEENS2_9allocatorIcEEEE",
            "__ZN4absl12lts_2024011619bad_optional_accessD0Ev",
            "__ZN4absl12lts_202401169IsAbortedERKNS0_6StatusE",
            "__ZN4absl12lts_2024011610FormatTimeENS0_4TimeENS0_8TimeZoneE",
            "__ZN4absl12lts_2024011619ToDoubleNanosecondsENS0_8DurationE",
            "__ZN4absl12lts_2024011612crc_internal3CRCD2Ev",
            "__ZN4absl12lts_202401164Cord19SetExpectedChecksumEj",
            "__ZN4absl12lts_202401169Condition19CallVoidPtrFunctionEPKS1_",
            "__ZN4absl12lts_202401167CondVar14EnableDebugLogEPKc",
            "__ZN4absl12lts_2024011619WebSafeBase64EscapeENS0_11string_viewE",
            "__ZNK4absl12lts_2024011614flags_internal8FlagImpl17ModificationCountEv",
            "__ZN4absl12lts_2024011616strings_internal18ApplySubstitutionsENS0_11string_viewEPNSt3__16vectorINS1_18ViableSubstitutionENS3_9allocatorIS5_EEEEPNS3_12basic_stringIcNS3_11char_traitsIcEENS6_IcEEEE",
            "__ZN4absl12lts_202401169ConditionC2EPFbPvES2_",
            "__ZN4absl12lts_2024011613base_internal8StrErrorEi",
            "__ZN4absl12lts_202401168DurationmLEx",
            "__ZN4absl12lts_2024011619str_format_internal14ConvertBoolArgEbPNS1_14FormatSinkImplE",
            "__ZN4absl12lts_2024011616strings_internal14CordTestAccess15FlatTagToLengthEh",
            "__ZN4absl12lts_202401166StrCatERKNS0_8AlphaNumES3_S3_",
            "__ZN4absl12lts_202401165Mutex4LockEv",
            "__ZN4absl12lts_202401167ToTimeTENS0_4TimeE",
            "__ZN4absl12lts_202401165Mutex17DecrementSynchSemEPS1_PNS0_13base_internal14PerThreadSynchENS0_24synchronization_internal13KernelTimeoutE",
            "__ZN4absl12lts_2024011619str_format_internal17FormatConvertImplEmNS1_24FormatConversionSpecImplEPNS1_14FormatSinkImplE",
            "__ZNK4absl12lts_2024011612crc_internal5CRC3210UnscrambleEPj",
            "__ZN4absl12lts_2024011613time_internal4cctz9time_zone4ImplC1ERKNSt3__112basic_stringIcNS5_11char_traitsIcEENS5_9allocatorIcEEEE",
            "__ZN4absl12lts_2024011617BadStatusOrAccessC1ENS0_6StatusE",
            "__ZN4absl12lts_2024011613time_internal4cctz9time_zone4ImplC2Ev",
            "__ZNK4absl12lts_2024011612Notification19WaitForNotificationEv",
            "__ZN4absl12lts_2024011616strings_internal18SingleArgStrAppendERNSt3__112basic_stringIcNS2_11char_traitsIcEENS2_9allocatorIcEEEEy",
            "__ZNK4absl12lts_2024011612Notification31WaitForNotificationWithDeadlineENS0_4TimeE",
            "__ZN4absl12lts_20240116lsERNSt3__113basic_ostreamIcNS1_11char_traitsIcEEEENS0_7uint128E",
            "__ZN4absl12lts_2024011613base_internal19ThrowStdDomainErrorEPKc",
            "__ZN4absl12lts_2024011616strings_internal15IntegerToStringImEENSt3__19enable_ifIXsr3std11is_integralIT_EE5valueENS3_12basic_stringIcNS3_11char_traitsIcEENS3_9allocatorIcEEEEE4typeES5_",
            "__ZN4absl12lts_2024011619str_format_internal8SnprintFEPcmNS1_21UntypedFormatSpecImplENS0_4SpanIKNS1_13FormatArgImplEEE",
            "__ZN4absl12lts_202401164Cord9InlineRep11PrependTreeEPNS0_13cord_internal7CordRepENS3_18CordzUpdateTracker16MethodIdentifierE",
            "__ZN4absl12lts_2024011615random_internal10RandenSlow6AbsorbEPKvPv",
            "__ZN4absl12lts_2024011615BlockingCounterC2Ei",
            "__ZN4absl12lts_2024011615random_internal11RandenHwAes6AbsorbEPKvPv",
            "__ZN4absl12lts_2024011613time_internal4cctz6detaillsERNSt3__113basic_ostreamIcNS4_11char_traitsIcEEEERKNS3_10civil_timeINS3_10second_tagEEE",
            "__ZN4absl12lts_202401168ByLengthC1El",
            "__ZN4absl12lts_2024011615BlockingCounter4WaitEv",
            "__ZN4absl12lts_2024011621StrContainsIgnoreCaseENS0_11string_viewES1_",
            "__ZN4absl12lts_2024011612AbortedErrorENS0_11string_viewE",
            "__ZN4absl12lts_2024011612crc_internal12CrcCordState6PoisonEv",
            "__ZN4absl12lts_2024011620InvalidArgumentErrorENS0_11string_viewE",
            "__ZN4absl12lts_2024011613time_internal4cctz12TimeZoneLibCC1ERKNSt3__112basic_stringIcNS4_11char_traitsIcEENS4_9allocatorIcEEEE",
            "__ZN4absl12lts_2024011616variant_internal21ThrowBadVariantAccessEv",
            "__ZN4absl12lts_2024011614ParseCivilTimeENS0_11string_viewEPNS0_13time_internal4cctz6detail10civil_timeINS2_7day_tagEEE",
            "__ZN4absl12lts_2024011621DeadlineExceededErrorENS0_11string_viewE",
            "__ZN4absl12lts_2024011614flags_internal7UnparseEm",
            "__ZNK4absl12lts_2024011613time_internal4cctz12TimeZoneInfo7VersionEv",
            "__ZN4absl12lts_2024011612ToChronoTimeENS0_4TimeE",
            "__ZNK4absl12lts_202401164CordixEm",
            "__ZN4absl12lts_2024011610IsNotFoundERKNS0_6StatusE",
            "__ZN4absl12lts_2024011621RegisterMutexProfilerEPFvxE",
            "__ZN4absl12lts_2024011624synchronization_internal13KernelTimeoutC2ENS0_8DurationE",
            "__ZNK4absl12lts_2024011614flags_internal8FlagImpl6TypeIdEv",
            "__ZN4absl12lts_2024011616strings_internal13OStringStream9Streambuf6xsputnEPKcl",
            "__ZN4absl12lts_202401164Cord7PrependERKS1_",
            "__ZN4absl12lts_2024011613time_internal4cctz14load_time_zoneERKNSt3__112basic_stringIcNS3_11char_traitsIcEENS3_9allocatorIcEEEEPNS2_9time_zoneE",
            "__ZNK4absl12lts_2024011613time_internal4cctz12TimeZoneInfo9LocalTimeExRKNS2_10TransitionE",
            "__ZN4absl12lts_2024011613base_internal24SetCurrentThreadIdentityEPNS1_14ThreadIdentityEPFvPvE",
            "__ZN4absl12lts_2024011614flags_internal15AbslUnparseFlagENS0_11string_viewE",
            "__ZN4absl12lts_2024011615ToDoubleSecondsENS0_8DurationE",
            "__ZN4absl12lts_2024011619str_format_internal12BindWithPackEPKNS1_17UnboundConversionENS0_4SpanIKNS1_13FormatArgImplEEEPNS1_15BoundConversionE",
            "__ZN4absl12lts_2024011615FormatCivilTimeENS0_13time_internal4cctz6detail10civil_timeINS1_8year_tagEEE",
            "__ZN4absl12lts_2024011612ConcatCrc32cENS0_8crc32c_tES1_m",
            "__ZN4absl12lts_2024011617IsInvalidArgumentERKNS0_6StatusE",
            "__ZN4absl12lts_202401169FromUDateEd",
            "__ZN4absl12lts_202401164Cord9InlineRep19AppendTreeToInlinedEPNS0_13cord_internal7CordRepENS3_18CordzUpdateTracker16MethodIdentifierE",
            "__ZN4absl12lts_2024011614flags_internal13AbslParseFlagENS0_11string_viewEPNS0_6int128EPNSt3__112basic_stringIcNS5_11char_traitsIcEENS5_9allocatorIcEEEE",
            "__ZN4absl12lts_2024011613base_internal8SpinLock8SpinLoopEv",
            "__ZN4absl12lts_2024011619str_format_internal17FormatConvertImplEjNS1_24FormatConversionSpecImplEPNS1_14FormatSinkImplE",
            "__ZN4absl12lts_2024011610IsDataLossERKNS0_6StatusE",
            "__ZN4absl12lts_2024011613cord_internal12CordRepBtree7NewLeafILNS2_8EdgeTypeE1EEEPS2_NS0_11string_viewEm",
            "__ZN4absl12lts_2024011618AlreadyExistsErrorENS0_11string_viewE",
            "__ZN4absl12lts_2024011619str_format_internal17FormatConvertImplEwNS1_24FormatConversionSpecImplEPNS1_14FormatSinkImplE",
            "__ZN4absl12lts_2024011612crc_internal10GetCpuTypeEv",
            "__ZN4absl12lts_2024011618container_internal28SetHashtablezSampleParameterEi",
            "__ZNK4absl12lts_2024011613time_internal4cctz9time_zone11descriptionEv",
            "__ZN4absl12lts_2024011613base_internal24SpinLockSuggestedDelayNSEi",
            "__ZNK4absl12lts_2024011612crc_internal26CrcNonTemporalMemcpyEngine7ComputeEPvPKvmNS0_8crc32c_tE",
            "__ZN4absl12lts_2024011619substitute_internal3ArgC1ENS0_3HexE",
            "__ZN4absl12lts_2024011614flags_internal8FlagImpl10StoreValueEPKv",
            "__ZN4absl12lts_2024011621RegisterCondVarTracerEPFvPKcPKvE",
            "__ZN4absl12lts_2024011613cord_internal11CordzHandleC2Eb",
            "__ZNK4absl12lts_2024011624synchronization_internal13KernelTimeout12MakeAbsNanosEv",
            "__ZN4absl12lts_202401166FromTMERK2tmNS0_8TimeZoneE",
            "__ZNK4absl12lts_2024011624synchronization_internal13KernelTimeout20MakeRelativeTimespecEv",
            "__ZNK4absl12lts_2024011615status_internal9StatusRep5UnrefEv",
            "__ZN4absl12lts_2024011615random_internal29ReadSeedMaterialFromOSEntropyENS0_4SpanIjEE",
            "__ZN4absl12lts_2024011619str_format_internal13FlagsToStringENS1_5FlagsE",
            "__ZN4absl12lts_2024011613time_internal4cctz9time_zone4Impl7UTCImplEv",
            "__ZN4absl12lts_2024011613base_internal18ThrowStdLogicErrorEPKc",
            "__ZN4absl12lts_2024011612crc_internal12CrcCordStateC2ERKS2_",
            "__ZN4absl12lts_2024011624synchronization_internal20CreateThreadIdentityEv",
            "__ZN4absl12lts_2024011613cord_internal11CordzHandle41DiagnosticsGetSafeToInspectDeletedHandlesEv",
            "__ZTWN4absl12lts_2024011613base_internal19thread_identity_ptrE",
            "__ZN4absl12lts_2024011624synchronization_internal12StdcppWaiter4PostEv",
            "__ZN4absl12lts_2024011615AsciiStrToLowerEPNSt3__112basic_stringIcNS1_11char_traitsIcEENS1_9allocatorIcEEEE",
            "__ZN4absl12lts_2024011613time_internal4cctz6detaillsERNSt3__113basic_ostreamIcNS4_11char_traitsIcEEEERKNS3_10civil_timeINS3_8hour_tagEEE",
            "__ZNK4absl12lts_202401164Cord4FindENS0_11string_viewE",
            "__ZNK4absl12lts_2024011618container_internal19HashSetResizeHelper43GrowIntoSingleGroupShuffleTransferableSlotsEPvS3_m",
            "__ZN4absl12lts_2024011615ToChronoSecondsENS0_8DurationE",
            "__ZN4absl12lts_2024011624synchronization_internal11GraphCycles16UpdateStackTraceENS1_7GraphIdEiPFiPPviE",
            "__ZN4absl12lts_2024011616strings_internal18SingleArgStrAppendERNSt3__112basic_stringIcNS2_11char_traitsIcEENS2_9allocatorIcEEEEj",
            "__ZN4absl12lts_2024011618container_internal13EraseMetaOnlyERNS1_12CommonFieldsEmm",
            "__ZN4absl12lts_2024011624synchronization_internal12PerThreadSem23SetThreadBlockedCounterEPNSt3__16atomicIiEE",
            "__ZN4absl12lts_2024011616strings_internal18SingleArgStrAppendERNSt3__112basic_stringIcNS2_11char_traitsIcEENS2_9allocatorIcEEEEx",
            "__ZNK4absl12lts_2024011613time_internal4cctz12TimeZoneInfo9BreakTimeERKNSt3__16chrono10time_pointINS5_12system_clockENS5_8durationIxNS4_5ratioILl1ELl1EEEEEEE",
            "__ZN4absl12lts_2024011618container_internal14HashtablezInfoC2Ev",
            "__ZN4absl12lts_2024011614flags_internal15AbslUnparseFlagERKNSt3__16vectorINS2_12basic_stringIcNS2_11char_traitsIcEENS2_9allocatorIcEEEENS7_IS9_EEEE",
            "__ZN4absl12lts_2024011615AbslUnparseFlagENS0_8DurationE",
            "__ZN4absl12lts_202401165Mutex17IncrementSynchSemEPS1_PNS0_13base_internal14PerThreadSynchE",
            "__ZN4absl12lts_2024011613base_internal12SpinLockWaitEPNSt3__16atomicIjEEiPKNS1_22SpinLockWaitTransitionENS1_14SchedulingModeE",
            "__ZN4absl12lts_2024011617BadStatusOrAccessC1EOS1_",
            "__ZN4absl12lts_2024011614flags_internal11ForEachFlagENSt3__18functionIFvRNS0_15CommandLineFlagEEEE",
            "__ZN4absl12lts_2024011619substitute_internal3ArgC2ENS0_3HexE",
            "__ZN4absl12lts_2024011616numbers_internal32GetNumDigitsOrNegativeIfNegativeEs",
            "__ZN4absl12lts_2024011613time_internallsERNSt3__113basic_ostreamIcNS2_11char_traitsIcEEEENS1_4cctz6detail10civil_timeINS1_9month_tagEEE",
            "__ZN4absl12lts_2024011618container_internal21RecordReservationSlowEPNS1_14HashtablezInfoEm",
            "__ZN4absl12lts_2024011614flags_internal23RegisterCommandLineFlagERNS0_15CommandLineFlagEPKc",
            "__ZN4absl12lts_2024011617internal_statusor6Helper5CrashERKNS0_6StatusE",
            "__ZN4absl12lts_202401169ByAnyCharC2ENS0_11string_viewE",
            "__ZN4absl12lts_2024011613cord_internal25GetMorePreciseMemoryUsageEPKNS1_7CordRepE",
            "__ZN4absl12lts_2024011613time_internal4cctz6detail5parseERKNSt3__112basic_stringIcNS4_11char_traitsIcEENS4_9allocatorIcEEEESC_RKNS2_9time_zoneEPNS4_6chrono10time_pointINSG_12system_clockENSG_8durationIxNS4_5ratioILl1ELl1EEEEEEEPNSJ_IxNSK_ILl1ELl1000000000000000EEEEEPSA_",
            "__ZN4absl12lts_202401165Mutex18ForgetDeadlockInfoEv",
            "__ZN4absl12lts_2024011614flags_internal13AbslParseFlagENS0_11string_viewEPNS0_7uint128EPNSt3__112basic_stringIcNS5_11char_traitsIcEENS5_9allocatorIcEEEE",
            "__ZN4absl12lts_2024011616strings_internal18SingleArgStrAppendERNSt3__112basic_stringIcNS2_11char_traitsIcEENS2_9allocatorIcEEEEl",
            "__ZN4absl12lts_2024011619str_format_internal7FprintFEP7__sFILENS1_21UntypedFormatSpecImplENS0_4SpanIKNS1_13FormatArgImplEEE",
            "__ZN4absl12lts_202401168DurationmIES1_",
            "__ZNK4absl12lts_2024011618container_internal33CommonFieldsGenerationInfoEnabled41should_rehash_for_bug_detection_on_insertEPKNS1_6ctrl_tEm",
            "__ZNK4absl12lts_202401164Cord19CopyToArraySlowPathEPc",
            "__ZNK4absl12lts_2024011615status_internal9StatusRep8ToStringENS0_18StatusToStringModeE",
            "__ZN4absl12lts_2024011616raw_log_internal27RegisterInternalLogFunctionEPFvNS0_11LogSeverityEPKciRKNSt3__112basic_stringIcNS5_11char_traitsIcEENS5_9allocatorIcEEEEE",
            "__ZN4absl12lts_2024011616numbers_internal32GetNumDigitsOrNegativeIfNegativeEy",
            "__ZN4absl12lts_202401169ToTimevalENS0_8DurationE",
            "__ZNK4absl12lts_2024011612crc_internal5CRC326ExtendEPjPKvm",
            "__ZNK4absl12lts_2024011614flags_internal8FlagImpl4NameEv",
            "__ZN4absl12lts_2024011614ParseCivilTimeENS0_11string_viewEPNS0_13time_internal4cctz6detail10civil_timeINS2_9month_tagEEE",
            "__ZN4absl12lts_2024011613cord_internal12CordRepBtree19ExtractAppendBufferEPS2_m",
            "__ZN4absl12lts_2024011610from_charsEPKcS2_RfNS0_12chars_formatE",
            "__ZNK4absl12lts_2024011613cord_internal9CordzInfo4NextERKNS1_13CordzSnapshotE",
            "__ZN4absl12lts_2024011616SetStackUnwinderEPFiPPvPiiiPKvS3_E",
            "__ZN4absl12lts_2024011618debugging_internal17AddressIsReadableEPKv",
            "__ZNK4absl12lts_2024011614flags_internal8FlagImpl11ReadOneBoolEv",
            "__ZN4absl12lts_2024011614flags_internal15DynValueDeleterC2EPFPvNS1_6FlagOpEPKvS3_S3_E",
            "__ZN4absl12lts_2024011617BadStatusOrAccessC2ERKS1_",
            "__ZN4absl12lts_2024011624synchronization_internal12PerThreadSem4TickEPNS0_13base_internal14ThreadIdentityE",
            "__ZN4absl12lts_2024011615status_internal9StatusRep12ErasePayloadENS0_11string_viewE",
            "__ZN4absl12lts_2024011613cord_internal9CordzInfo7UntrackEv",
            "__ZN4absl12lts_202401168DurationpLES1_",
            "__ZN4absl12lts_2024011613cord_internal12CordRepBtree10MergeTreesEPS2_S3_",
            "__ZN4absl12lts_202401165Mutex9TryRemoveEPNS0_13base_internal14PerThreadSynchE",
            "__ZN4absl12lts_2024011613hash_internal12LowLevelHashEPKvmyPKy",
            "__ZN4absl12lts_2024011614flags_internal26ShortProgramInvocationNameEv",
            "__ZN4absl12lts_2024011624synchronization_internal13PthreadWaiter19InternalCondVarPokeEv",
            "__ZN4absl12lts_2024011619FindCommandLineFlagENS0_11string_viewE",
            "__ZN4absl12lts_2024011619StatusMessageAsCStrERKNS0_6StatusE",
            "__ZN4absl12lts_2024011621PermissionDeniedErrorENS0_11string_viewE",
            "__ZN4absl12lts_2024011624synchronization_internal13PthreadWaiterC1Ev",
            "__ZN4absl12lts_202401164Cord15SetCrcCordStateENS0_12crc_internal12CrcCordStateE",
            "__ZNK4absl12lts_2024011619bad_optional_access4whatEv",
            "__ZN4absl12lts_2024011613time_internallsERNSt3__113basic_ostreamIcNS2_11char_traitsIcEEEENS1_4cctz6detail10civil_timeINS1_8hour_tagEEE",
            "__ZN4absl12lts_2024011618bad_variant_accessD1Ev",
            "__ZN4absl12lts_2024011612crc_internal22UnextendCrc32cByZeroesENS0_8crc32c_tEm",
            "__ZN4absl12lts_2024011613base_internal22ThrowStdUnderflowErrorEPKc",
            "__ZN4absl12lts_2024011612Base64EscapeENS0_11string_viewE",
            "__ZN4absl12lts_2024011613StrReplaceAllESt16initializer_listINSt3__14pairINS0_11string_viewES4_EEEPNS2_12basic_stringIcNS2_11char_traitsIcEENS2_9allocatorIcEEEE",
            "__ZN4absl12lts_2024011610FormatTimeENS0_11string_viewENS0_4TimeENS0_8TimeZoneE",
            "__ZN4absl12lts_202401169ConditionC1EPKb",
            "__ZN4absl12lts_2024011613FromUniversalEx",
            "__ZN4absl12lts_2024011613cord_internal12CordRepBtree19GetAppendBufferSlowEm",
            "__ZN4absl12lts_202401164Cord12RemovePrefixEm",
            "__ZN4absl12lts_2024011613cord_internal11CordzHandleD0Ev",
            "__ZN4absl12lts_2024011610CHexEscapeENS0_11string_viewE",
            "__ZN4absl12lts_2024011615AbslUnparseFlagENS0_11LogSeverityE",
            "__ZN4absl12lts_2024011620ToDoubleMillisecondsENS0_8DurationE",
            "__ZN4absl12lts_2024011618ToInt64NanosecondsENS0_8DurationE",
            "__ZN4absl12lts_2024011614flags_internal13AbslParseFlagENS0_11string_viewEPxPNSt3__112basic_stringIcNS4_11char_traitsIcEENS4_9allocatorIcEEEE",
            "__ZN4absl12lts_2024011619substitute_internal24SubstituteAndAppendArrayEPNSt3__112basic_stringIcNS2_11char_traitsIcEENS2_9allocatorIcEEEENS0_11string_viewEPKSA_m",
            "__ZNK4absl12lts_2024011612crc_internal12CrcCordState29NormalizedPrefixCrcAtNthChunkEm",
            "__ZN4absl12lts_202401167uint128C2Ee",
            "__ZN4absl12lts_202401165Mutex4DtorEv",
            "__ZN4absl12lts_2024011613cord_internal18CordRepBtreeReader4ReadEmmRPNS1_7CordRepE",
            "__ZN4absl12lts_2024011619str_format_internal17FormatConvertImplExNS1_24FormatConversionSpecImplEPNS1_14FormatSinkImplE",
            "__ZN4absl12lts_2024011624synchronization_internal12StdcppWaiter4PokeEv",
            "__ZN4absl12lts_2024011612IsOutOfRangeERKNS0_6StatusE",
            "__ZN4absl12lts_2024011613base_internal8SpinLock16DecodeWaitCyclesEj",
            "__ZN4absl12lts_2024011613cord_internal12CordRepBtree10CreateSlowEPNS1_7CordRepE",
            "__ZN4absl12lts_2024011613time_internal4cctz14ZoneInfoSourceD1Ev",
            "__ZN4absl12lts_202401169StrAppendEPNSt3__112basic_stringIcNS1_11char_traitsIcEENS1_9allocatorIcEEEERKNS0_8AlphaNumESB_SB_SB_",
            "__ZN4absl12lts_202401164Cord9InlineRep16AppendTreeToTreeEPNS0_13cord_internal7CordRepENS3_18CordzUpdateTracker16MethodIdentifierE",
            "__ZN4absl12lts_202401169ParseTimeENS0_11string_viewES1_PNS0_4TimeEPNSt3__112basic_stringIcNS4_11char_traitsIcEENS4_9allocatorIcEEEE",
            "__ZN4absl12lts_2024011613cord_internal16LogFatalNodeTypeEPNS1_7CordRepE",
            "__ZN4absl12lts_2024011614flags_internal13AbslParseFlagENS0_11string_viewEPsPNSt3__112basic_stringIcNS4_11char_traitsIcEENS4_9allocatorIcEEEE",
            "__ZN4absl12lts_2024011613hash_internal15MixingHashState16LowLevelHashImplEPKhm",
            "__ZN4absl12lts_2024011616numbers_internal23FastIntToBufferBackwardEyPcj",
            "__ZN4absl12lts_2024011612Notification6NotifyEv",
            "__ZN4absl12lts_2024011618RemoveCrc32cPrefixENS0_8crc32c_tES1_m",
            "__ZN4absl12lts_2024011614flags_internal21PrivateHandleAccessor9ParseFromERNS0_15CommandLineFlagENS0_11string_viewENS1_15FlagSettingModeENS1_11ValueSourceERNSt3__112basic_stringIcNS8_11char_traitsIcEENS8_9allocatorIcEEEE",
            "__ZN4absl12lts_2024011614flags_internal7UnparseENS0_6int128E",
            "__ZN4absl12lts_202401164Cord9InlineRep20PrependTreeToInlinedEPNS0_13cord_internal7CordRepENS3_18CordzUpdateTracker16MethodIdentifierE",
            "__ZN4absl12lts_2024011614flags_internal16ReportUsageErrorENS0_11string_viewEb",
            "__ZN4absl12lts_202401165Mutex6UnlockEv",
            "__ZN4absl12lts_2024011621ParseLenientCivilTimeENS0_11string_viewEPNS0_13time_internal4cctz6detail10civil_timeINS2_8year_tagEEE",
            "__ZN4absl12lts_20240116lsERNSt3__113basic_ostreamIcNS1_11char_traitsIcEEEENS0_17LogSeverityAtMostE",
            "__ZN4absl12lts_202401169ConditionC2EPKb",
            "__ZN4absl12lts_2024011618container_internal23GetHashtablezMaxSamplesEv",
            "__ZN4absl12lts_2024011616strings_internal9CatPiecesESt16initializer_listINS0_11string_viewEE",
            "__ZNK4absl12lts_2024011613time_internal4cctz9time_zone14effective_implEv",
            "__ZNK4absl12lts_2024011613time_internal4cctz9time_zone6lookupERKNSt3__16chrono10time_pointINS5_12system_clockENS5_8durationIxNS4_5ratioILl1ELl1EEEEEEE",
            "__ZN4absl12lts_2024011613StrReplaceAllENS0_11string_viewESt16initializer_listINSt3__14pairIS1_S1_EEE",
            "__ZN4absl12lts_2024011616strings_internal15SingleArgStrCatEm",
            "__ZNK4absl12lts_202401168TimeZone2AtENS0_4TimeE",
            "__ZNK4absl12lts_2024011613time_internal4cctz12TimeZoneInfo14PrevTransitionERKNSt3__16chrono10time_pointINS5_12system_clockENS5_8durationIxNS4_5ratioILl1ELl1EEEEEEEPNS2_9time_zone16civil_transitionE",
            "__ZN4absl12lts_2024011615FormatCivilTimeENS0_13time_internal4cctz6detail10civil_timeINS1_10minute_tagEEE",
            "__ZN4absl12lts_2024011616strings_internal32CappedDamerauLevenshteinDistanceENS0_11string_viewES2_h",
            "__ZN4absl12lts_202401169FlagSaverD2Ev",
            "__ZN4absl12lts_2024011612Base64EscapeENS0_11string_viewEPNSt3__112basic_stringIcNS2_11char_traitsIcEENS2_9allocatorIcEEEE",
            "__ZN4absl12lts_2024011614ParseCivilTimeENS0_11string_viewEPNS0_13time_internal4cctz6detail10civil_timeINS2_8hour_tagEEE",
            "__ZN4absl12lts_2024011618container_internal15RecordEraseSlowEPNS1_14HashtablezInfoE",
            "__ZNK4absl12lts_202401165Mutex16AssertReaderHeldEv",
            "__ZN4absl12lts_2024011613cord_internal32SetCordBtreeExhaustiveValidationEb",
            "__ZN4absl12lts_2024011614flags_internal21ProgramInvocationNameEv",
            "__ZNK4absl12lts_2024011613time_internal4cctz12TimeZoneLibC14PrevTransitionERKNSt3__16chrono10time_pointINS5_12system_clockENS5_8durationIxNS4_5ratioILl1ELl1EEEEEEEPNS2_9time_zone16civil_transitionE",
            "__ZNK4absl12lts_2024011624synchronization_internal11GraphCycles7HasEdgeENS1_7GraphIdES3_",
            "__ZN4absl12lts_2024011616numbers_internal23FastIntToBufferBackwardEiPcj",
            "__ZN4absl12lts_202401165Mutex10ReaderLockEv",
            "__ZN4absl12lts_2024011618container_internal14HashtablezInfoD2Ev",
            "__ZN4absl12lts_202401166Status12ToStringSlowEmNS0_18StatusToStringModeE",
            "__ZN4absl12lts_2024011618bad_variant_accessD0Ev",
            "__ZN4absl12lts_2024011621StrContainsIgnoreCaseENS0_11string_viewEc",
            "__ZN4absl12lts_2024011612crc_internal3CRCC2Ev",
            "__ZN4absl12lts_202401169FlagSaverC1Ev",
            "__ZNK4absl12lts_2024011611string_view5rfindEcm",
            "__ZN4absl12lts_2024011612bad_any_castD0Ev",
            "__ZN4absl12lts_202401164Cord23GetAppendBufferSlowPathEmmm",
            "__ZN4absl12lts_2024011616raw_log_internal17RegisterAbortHookEPFvPKciS3_S3_S3_E",
            "__ZNK4absl12lts_2024011614flags_internal15DynValueDeleterclEPv",
            "__ZN4absl12lts_2024011613cord_internal12CordRepBtree7AddDataILNS2_8EdgeTypeE0EEENS0_11string_viewES5_m",
            "__ZN4absl12lts_2024011612crc_internal12CrcCordState17RefSharedEmptyRepEv",
            "__ZN4absl12lts_2024011613base_internal8SpinLock10SlowUnlockEj",
            "__ZN4absl12lts_2024011613time_internal4cctz6detaillsERNSt3__113basic_ostreamIcNS4_11char_traitsIcEEEERKNS3_10civil_timeINS3_8year_tagEEE",
            "__ZN4absl12lts_2024011615random_internal22CPUSupportsRandenHwAesEv",
            "__ZN4absl12lts_202401169CUnescapeENS0_11string_viewEPNSt3__112basic_stringIcNS2_11char_traitsIcEENS2_9allocatorIcEEEES9_",
            "__ZN4absl12lts_2024011614flags_internal15DynValueDeleterC1EPFPvNS1_6FlagOpEPKvS3_S3_E",
            "__ZN4absl12lts_2024011616variant_internal7RethrowEv",
            "__ZN4absl12lts_2024011613time_internal4cctz9time_zone4Impl3UTCEv",
            "__ZN4absl12lts_202401169ByAnyCharC1ENS0_11string_viewE",
            "__ZN4absl12lts_2024011613cord_internal12CordRepBtree7IsValidEPKS2_b",
            "__ZN4absl12lts_2024011624synchronization_internal11GraphCyclesD2Ev",
            "__ZN4absl12lts_202401168DurationdVEd",
            "__ZNK4absl12lts_2024011613time_internal4cctz12TimeZoneLibC7VersionEv",
            "__ZN4absl12lts_2024011612FDivDurationENS0_8DurationES1_",
            "__ZNK4absl12lts_202401164CordcvNSt3__112basic_stringIcNS2_11char_traitsIcEENS2_9allocatorIcEEEEEv",
            "__ZN4absl12lts_2024011616strings_internal15SingleArgStrCatEf",
            "__ZN4absl12lts_2024011613cord_internal12CordRepBtree12RemoveSuffixEPS2_m",
            "__ZN4absl12lts_2024011613time_internal4cctz12TimeZoneInfo4LoadERKNSt3__112basic_stringIcNS4_11char_traitsIcEENS4_9allocatorIcEEEE",
            "__ZN4absl12lts_2024011613cord_internal10CordRepCrc3NewEPNS1_7CordRepENS0_12crc_internal12CrcCordStateE",
            "__ZN4absl12lts_2024011618container_internal16RecordInsertSlowEPNS1_14HashtablezInfoEmm",
            "__ZN4absl12lts_2024011619str_format_internal17FormatConvertImplENS0_6int128ENS1_24FormatConversionSpecImplEPNS1_14FormatSinkImplE",
            "__ZN4absl12lts_2024011614flags_internal18FlagStateInterfaceD2Ev",
            "__ZNK4absl12lts_202401168ByLength4FindENS0_11string_viewEm",
            "__ZN4absl12lts_2024011619str_format_internal10FormatPackENS1_21UntypedFormatSpecImplENS0_4SpanIKNS1_13FormatArgImplEEE",
            "__ZN4absl12lts_2024011618container_internal24RecordStorageChangedSlowEPNS1_14HashtablezInfoEmm",
            "__ZNK4absl12lts_2024011618container_internal33CommonFieldsGenerationInfoEnabled39should_rehash_for_bug_detection_on_moveEPKNS1_6ctrl_tEm",
            "__ZN4absl12lts_202401166StatusC1ENS0_10StatusCodeENS0_11string_viewE",
            "__ZN4absl12lts_2024011624synchronization_internal11GraphCyclesC2Ev",
            "__ZN4absl12lts_2024011616numbers_internal15FastIntToBufferEjPc",
            "__ZN4absl12lts_202401164Cord13ChunkIterator19AdvanceAndReadBytesEm",
            "__ZN4absl12lts_2024011613time_internal4cctz9time_zone4ImplC1Ev",
            "__ZN4absl12lts_2024011619str_format_internal17FormatConvertImplEdNS1_24FormatConversionSpecImplEPNS1_14FormatSinkImplE",
            "__ZN4absl12lts_2024011624synchronization_internal12StdcppWaiterC1Ev",
            "__ZN4absl12lts_2024011613hash_internal18CityHash64WithSeedEPKcmy",
            "__ZN4absl12lts_202401165Mutex24EnableInvariantDebuggingEPFvPvES2_",
            "__ZN4absl12lts_2024011613time_internal4cctz10TimeZoneIf3UTCEv",
            "__ZN4absl12lts_2024011619str_format_internal17FormatConvertImplEhNS1_24FormatConversionSpecImplEPNS1_14FormatSinkImplE",
            "__ZN4absl12lts_2024011613time_internal4cctz14ParsePosixSpecERKNSt3__112basic_stringIcNS3_11char_traitsIcEENS3_9allocatorIcEEEEPNS2_13PosixTimeZoneE",
            "__ZNK4absl12lts_2024011613time_internal4cctz12TimeZoneLibC8MakeTimeERKNS2_6detail10civil_timeINS4_10second_tagEEE",
            "__ZN4absl12lts_202401169IsUnknownERKNS0_6StatusE",
            "__ZN4absl12lts_2024011614flags_internal21PrivateHandleAccessor18ValidateInputValueERKNS0_15CommandLineFlagENS0_11string_viewE",
            "__ZN4absl12lts_20240116lsERNSt3__113basic_ostreamIcNS1_11char_traitsIcEEEENS0_11LogSeverityE",
            "__ZNK4absl12lts_2024011613time_internal4cctz9time_zone15next_transitionERKNSt3__16chrono10time_pointINS5_12system_clockENS5_8durationIxNS4_5ratioILl1ELl1EEEEEEEPNS3_16civil_transitionE",
            "__ZNK4absl12lts_2024011613time_internal4cctz9time_zone6lookupERKNS2_6detail10civil_timeINS4_10second_tagEEE",
            "__ZN4absl12lts_2024011616strings_internal14CordTestAccess22SizeofCordRepSubstringEv",
            "__ZNK4absl12lts_2024011614flags_internal8FlagImpl18ValidateInputValueENS0_11string_viewE",
            "__ZN4absl12lts_202401165Mutex5BlockEPNS0_13base_internal14PerThreadSynchE",
            "__ZN4absl12lts_20240116lsERNSt3__113basic_ostreamIcNS1_11char_traitsIcEEEENS0_11string_viewE",
            "__ZNK4absl12lts_2024011614flags_internal8FlagImpl4ReadEPv",
            "__ZN4absl12lts_2024011613base_internal13LowLevelAlloc14AllocWithArenaEmPNS2_5ArenaE",
            "__ZN4absl12lts_2024011610SimpleAtobENS0_11string_viewEPb",
            "__ZN4absl12lts_2024011616numbers_internal32GetNumDigitsOrNegativeIfNegativeEa",
            "__ZN4absl12lts_2024011619str_format_internal16ConvertFloatImplEfRKNS1_24FormatConversionSpecImplEPNS1_14FormatSinkImplE",
            "__ZN4absl12lts_2024011612crc_internal20ExtendCrc32cInternalENS0_8crc32c_tENS0_11string_viewE",
            "__ZN4absl12lts_2024011612bad_any_castD1Ev",
            "__ZNK4absl12lts_2024011613cord_internal12CordRepBtree12GetCharacterEm",
            "__ZN4absl12lts_2024011613base_internal23ThrowStdBadFunctionCallEv",
            "__ZN4absl12lts_2024011616strings_internal15SingleArgStrCatEi",
            "__ZN4absl12lts_2024011613cord_internal32GetEstimatedFairShareMemoryUsageEPKNS1_7CordRepE",
            "__ZN4absl12lts_2024011618Utf8SafeCHexEscapeENS0_11string_viewE",
            "__ZN4absl12lts_2024011614ToInt64SecondsENS0_8DurationE",
            "__ZN4absl12lts_2024011624synchronization_internal13PthreadWaiterC2Ev",
            "__ZN4absl12lts_2024011613base_internal19NominalCPUFrequencyEv",
            "__ZN4absl12lts_2024011613base_internal19ThrowStdLengthErrorERKNSt3__112basic_stringIcNS2_11char_traitsIcEENS2_9allocatorIcEEEE",
            "__ZN4absl12lts_2024011611IsCancelledERKNS0_6StatusE",
            "__ZN4absl12lts_2024011629SetMutexDeadlockDetectionModeENS0_15OnDeadlockCycleE",
            "__ZNK4absl12lts_2024011618container_internal19HashSetResizeHelper38GrowIntoSingleGroupShuffleControlBytesEPNS1_6ctrl_tEm",
            "__ZN4absl12lts_2024011614flags_internal7UnparseEt",
            "__ZNK4absl12lts_2024011614flags_internal8FlagImpl22ReadSequenceLockedDataEPv",
            "__ZN4absl12lts_2024011613cord_internal12CordRepBtree4DumpEPKNS1_7CordRepENS0_11string_viewERNSt3__113basic_ostreamIcNS7_11char_traitsIcEEEE",
            "__ZN4absl12lts_2024011618profiling_internal17ExponentialBiased10InitializeEv",
            "__ZNK4absl12lts_2024011615status_internal9StatusRep10GetPayloadENS0_11string_viewE",
            "__ZN4absl12lts_2024011618container_internal37ConvertDeletedToEmptyAndFullToDeletedEPNS1_6ctrl_tEm",
            "__ZNK4absl12lts_2024011616SeedGenException4whatEv",
            "__ZN4absl12lts_2024011614flags_internal21PrivateHandleAccessor33CheckDefaultValueParsingRoundtripERKNS0_15CommandLineFlagE",
            "__ZN4absl12lts_2024011616SeedGenExceptionD0Ev",
            "__ZN4absl12lts_2024011611ToUnixNanosENS0_4TimeE",
            "__ZN4absl12lts_2024011613cord_internal9CordzInfo6UnlockEv",
            "__ZN4absl12lts_2024011613time_internal4cctz12TimeZoneInfo17ResetToBuiltinUTCERKNSt3__16chrono8durationIxNS4_5ratioILl1ELl1EEEEE",
            "__ZN4absl12lts_2024011614ParseCivilTimeENS0_11string_viewEPNS0_13time_internal4cctz6detail10civil_timeINS2_10second_tagEEE",
            "__ZN4absl12lts_2024011616numbers_internal12PutTwoDigitsEjPc",
            "__ZN4absl12lts_202401169SymbolizeEPKvPci",
            "__ZNK4absl12lts_2024011612crc_internal5CRC3216UnextendByZeroesEPjm",
            "__ZN4absl12lts_2024011613time_internal4cctz9time_zone4Impl12LoadTimeZoneERKNSt3__112basic_stringIcNS5_11char_traitsIcEENS5_9allocatorIcEEEEPS3_",
            "__ZN4absl12lts_2024011613time_internal4cctz10TimeZoneIfD0Ev",
            "__ZNK4absl12lts_2024011614flags_internal8FlagImpl12CurrentValueEv",
            "__ZNK4absl12lts_2024011617BadStatusOrAccess4whatEv",
            "__ZN4absl12lts_2024011613time_internal4cctz17FixedOffsetToNameERKNSt3__16chrono8durationIxNS3_5ratioILl1ELl1EEEEE",
            "__ZN4absl12lts_2024011613time_internal4cctz12TimeZoneInfo17GetTransitionTypeEibRKNSt3__112basic_stringIcNS4_11char_traitsIcEENS4_9allocatorIcEEEEPh",
            "__ZN4absl12lts_2024011614FormatDurationENS0_8DurationE",
            "__ZN4absl12lts_2024011616numbers_internal32GetNumDigitsOrNegativeIfNegativeEx",
            "__ZN4absl12lts_2024011613base_internal13LowLevelAlloc4FreeEPv",
            "__ZN4absl12lts_2024011613base_internal19ThrowStdLengthErrorEPKc",
            "__ZN4absl12lts_2024011619str_format_internal17LengthModToStringENS0_9LengthModE",
            "__ZNK4absl12lts_2024011612crc_internal29CrcNonTemporalMemcpyAVXEngine7ComputeEPvPKvmNS0_8crc32c_tE",
            "__ZN4absl12lts_2024011625GetStackFramesWithContextEPPvPiiiPKvS3_",
            "__ZN4absl12lts_2024011614flags_internal13AbslParseFlagENS0_11string_viewEPmPNSt3__112basic_stringIcNS4_11char_traitsIcEENS4_9allocatorIcEEEE",
            "__ZN4absl12lts_202401165Mutex8LockSlowEPKNS0_6MuHowSEPKNS0_9ConditionEi",
            "__ZN4absl12lts_2024011614flags_internal7UnparseEi",
            "__ZN4absl12lts_2024011613cord_internal9CordzInfoD0Ev",
            "__ZN4absl12lts_2024011616TimeFromTimespecE8timespec",
            "__ZN4absl12lts_202401169ParseTimeENS0_11string_viewES1_NS0_8TimeZoneEPNS0_4TimeEPNSt3__112basic_stringIcNS5_11char_traitsIcEENS5_9allocatorIcEEEE",
            "__ZNK4absl12lts_202401164Cord10EqualsImplERKS1_m",
            "__ZN4absl12lts_2024011615status_internal14MapToLocalCodeEi",
            "__ZN4absl12lts_2024011618RemoveCrc32cSuffixENS0_8crc32c_tES1_m",
            "__ZN4absl12lts_202401167Barrier5BlockEv",
            "__ZN4absl12lts_2024011613AbslParseFlagENS0_11string_viewEPNS0_11LogSeverityEPNSt3__112basic_stringIcNS4_11char_traitsIcEENS4_9allocatorIcEEEE",
            "__ZN4absl12lts_2024011610FormatTimeENS0_4TimeE",
            "__ZN4absl12lts_2024011613base_internal18ThrowStdRangeErrorEPKc",
            "__ZN4absl12lts_202401166StrCatERKNS0_8AlphaNumES3_",
            "__ZNK4absl12lts_2024011613cord_internal9CordzInfo8GetStackEv",
            "__ZN4absl12lts_2024011624synchronization_internal12StdcppWaiter19InternalCondVarPokeEv",
            "__ZN4absl12lts_2024011613time_internal4cctz10TimeZoneIfD1Ev",
            "__ZN4absl12lts_2024011612ToUnixMillisENS0_4TimeE",
            "__ZN4absl12lts_2024011616numbers_internal32GetNumDigitsOrNegativeIfNegativeEh",
            "__ZNK4absl12lts_202401169Condition4EvalEv",
            "__ZN4absl12lts_2024011616strings_internal10memcasecmpEPKcS3_m",
            "__ZN4absl12lts_2024011619bad_optional_accessD1Ev",
            "__ZN4absl12lts_2024011624synchronization_internal12StdcppWaiterC2Ev",
            "__ZN4absl12lts_2024011615random_internal28HasRandenHwAesImplementationEv",
            "__ZN4absl12lts_2024011619IsResourceExhaustedERKNS0_6StatusE",
            "__ZNK4absl12lts_2024011614flags_internal8FlagImpl18AlignedBufferValueEv",
            "__ZN4absl12lts_2024011614flags_internal13AbslParseFlagENS0_11string_viewEPjPNSt3__112basic_stringIcNS4_11char_traitsIcEENS4_9allocatorIcEEEE",
            "__ZN4absl12lts_2024011613hash_internal15MixingHashState28CombineLargeContiguousImpl32EyPKhm",
            "__ZN4absl12lts_2024011624synchronization_internal13PthreadWaiter4PostEv",
            "__ZNK4absl12lts_2024011614flags_internal8FlagImpl8FilenameEv",
            "__ZN4absl12lts_2024011616raw_log_internal24RawLoggingFullySupportedEv",
            "__ZN4absl12lts_2024011613time_internal13AbslParseFlagENS0_11string_viewEPNS1_4cctz6detail10civil_timeINS1_8hour_tagEEEPNSt3__112basic_stringIcNS9_11char_traitsIcEENS9_9allocatorIcEEEE",
            "__ZN4absl12lts_202401164Cord15DestroyCordSlowEv",
            "__ZN4absl12lts_202401165Mutex17ReaderTryLockSlowEv",
            "__ZN4absl12lts_2024011616numbers_internal19safe_strtou128_baseENS0_11string_viewEPNS0_7uint128Ei",
            "__ZN4absl12lts_2024011615OutOfRangeErrorENS0_11string_viewE",
            "__ZN4absl12lts_202401165Mutex14LockWhenCommonERKNS0_9ConditionENS0_24synchronization_internal13KernelTimeoutEb",
            "__ZN4absl12lts_2024011612crc_internal12CrcCordStateC2EOS2_",
            "__ZN4absl12lts_2024011612crc_internal3CRCD0Ev",
            "__ZN4absl12lts_2024011613base_internal13LowLevelAlloc11DeleteArenaEPNS2_5ArenaE",
            "__ZN4absl12lts_2024011616strings_internal20Base64EscapeInternalEPKhmPcmPKcb",
            "__ZN4absl12lts_202401164Cord10GetFlatAuxEPNS0_13cord_internal7CordRepEPNS0_11string_viewE",
            "__ZN4absl12lts_2024011619RegisterMutexTracerEPFvPKcPKvxE",
            "__ZN4absl12lts_2024011613base_internal8SpinLockC2ENS1_14SchedulingModeE",
            "__ZN4absl12lts_2024011616strings_internal15SingleArgStrCatEd",
            "__ZN4absl12lts_2024011613cord_internal9CordzInfoD1Ev",
            "__ZN4absl12lts_2024011613cord_internal9CordzInfo5TrackEv",
            "__ZN4absl12lts_2024011612NotificationD2Ev",
            "__ZN4absl12lts_2024011618container_internal27SetHashtablezConfigListenerEPFvvE",
            "__ZNK4absl12lts_2024011614flags_internal8FlagImpl11ReadOneWordEv",
            "__ZN4absl12lts_2024011614flags_internal13AbslParseFlagENS0_11string_viewEPNSt3__16vectorINS3_12basic_stringIcNS3_11char_traitsIcEENS3_9allocatorIcEEEENS8_ISA_EEEEPSA_",
            "__ZN4absl12lts_2024011616strings_internal15IntegerToStringIlEENSt3__19enable_ifIXsr3std11is_integralIT_EE5valueENS3_12basic_stringIcNS3_11char_traitsIcEENS3_9allocatorIcEEEEE4typeES5_",
            "__ZN4absl12lts_202401165Mutex10UnlockSlowEPNS0_15SynchWaitParamsE",
            "__ZNK4absl12lts_2024011613time_internal4cctz12TimeZoneInfo14NextTransitionERKNSt3__16chrono10time_pointINS5_12system_clockENS5_8durationIxNS4_5ratioILl1ELl1EEEEEEEPNS2_9time_zone16civil_transitionE",
            "__ZN4absl12lts_202401164Cord9InlineRep10AppendTreeEPNS0_13cord_internal7CordRepENS3_18CordzUpdateTracker16MethodIdentifierE",
            "__ZN4absl12lts_2024011612crc_internal7CRCImpl15FillZeroesTableEjPA256_j",
            "__ZN4absl12lts_2024011613cord_internal9CordzInfo9TrackCordERNS1_10InlineDataENS1_18CordzUpdateTracker16MethodIdentifierE",
            "__ZN4absl12lts_202401164CordaSENS0_11string_viewE",
            "__ZN4absl12lts_2024011613time_internal4cctz14ZoneInfoSourceD0Ev",
            "__ZN4absl12lts_2024011614flags_internal18FlagStateInterfaceD0Ev",
            "__ZN4absl12lts_2024011623FindLongestCommonSuffixENS0_11string_viewES1_",
            "__ZN4absl12lts_2024011613time_internal4cctz9time_zone4Impl24ClearTimeZoneMapTestOnlyEv",
            "__ZN4absl12lts_2024011615FormatCivilTimeENS0_13time_internal4cctz6detail10civil_timeINS1_10second_tagEEE",
            "__ZN4absl12lts_2024011629EnableMutexInvariantDebuggingEb",
            "__ZN4absl12lts_202401164Cord6AppendERKS1_",
            "__ZNK4absl12lts_2024011614flags_internal8FlagImpl4HelpEv",
            "__ZN4absl12lts_202401168ByStringC1ENS0_11string_viewE",
            "__ZN4absl12lts_202401165FloorENS0_8DurationES1_",
            "__ZN4absl12lts_2024011613time_internal4cctz17FixedOffsetToAbbrERKNSt3__16chrono8durationIxNS3_5ratioILl1ELl1EEEEE",
            "__ZNK4absl12lts_2024011613time_internal4cctz12TimeZoneInfo9LocalTimeExRKNS2_14TransitionTypeE",
            "__ZN4absl12lts_2024011619substitute_internal3ArgC1EPKv",
            "__ZN4absl12lts_202401165MutexD1Ev",
            "__ZN4absl12lts_2024011613hash_internal10CityHash64EPKcm",
            "__ZN4absl12lts_2024011613cord_internal9CordzInfo15GetParentMethodEPKS2_",
            "__ZN4absl12lts_2024011613cord_internal12CordRepBtree7NewLeafILNS2_8EdgeTypeE0EEEPS2_NS0_11string_viewEm",
            "__ZN4absl12lts_2024011616strings_internal13OStringStream9Streambuf8overflowEi",
            "__ZN4absl12lts_2024011613cord_internal12CordRepBtree7DestroyEPS2_",
            "__ZN4absl12lts_2024011618StatusCodeToStringENS0_10StatusCodeE",
            "__ZN4absl12lts_2024011618IsDeadlineExceededERKNS0_6StatusE",
            "__ZNK4absl12lts_202401169ByAnyChar4FindENS0_11string_viewEm",
            "__ZN4absl12lts_2024011620ToDoubleMicrosecondsENS0_8DurationE",
            "__ZN4absl12lts_2024011610SimpleAtofENS0_11string_viewEPf",
            "__ZN4absl12lts_202401167CondVar6SignalEv",
            "__ZNK4absl12lts_202401164Cord7SubcordEmm",
            "__ZN4absl12lts_2024011619str_format_internal13FormatUntypedENS1_17FormatRawSinkImplENS1_21UntypedFormatSpecImplENS0_4SpanIKNS1_13FormatArgImplEEE",
            "__ZN4absl12lts_2024011613time_internal4cctz6detaillsERNSt3__113basic_ostreamIcNS4_11char_traitsIcEEEERKNS3_10civil_timeINS3_10minute_tagEEE",
            "__ZNK4absl12lts_202401164Cord7CompareENS0_11string_viewE",
            "__ZN4absl12lts_2024011615random_internal10RandenSlow7GetKeysEv",
            "__ZNK4absl12lts_2024011613time_internal4cctz12TimeZoneInfo9TimeLocalERKNS2_6detail10civil_timeINS4_10second_tagEEEx",
            "__ZN4absl12lts_2024011615random_internal11RandenHwAes7GetKeysEv",
            "__ZN4absl12lts_202401165Mutex13ReaderTryLockEv",
            "__ZN4absl12lts_2024011612crc_internal9CrcMemcpy13GetTestEngineEii",
            "__ZN4absl12lts_2024011619str_format_internal17FormatConvertImplElNS1_24FormatConversionSpecImplEPNS1_14FormatSinkImplE",
            "__ZN4absl12lts_2024011613cord_internal23set_cordz_mean_intervalEi",
            "__ZNK4absl12lts_2024011614flags_internal8FlagImpl14InvokeCallbackEv",
            "__ZN4absl12lts_2024011613cord_internal9CordzInfo18MaybeTrackCordImplERNS1_10InlineDataERKS3_NS1_18CordzUpdateTracker16MethodIdentifierE",
            "__ZNK4absl12lts_2024011624synchronization_internal13KernelTimeout17ToChronoTimePointEv",
            "__ZN4absl12lts_2024011616numbers_internal32GetNumDigitsOrNegativeIfNegativeEj",
            "__ZN4absl12lts_2024011615ToDoubleMinutesENS0_8DurationE",
            "__ZN4absl12lts_2024011613time_internallsERNSt3__113basic_ostreamIcNS2_11char_traitsIcEEEENS1_4cctz6detail10civil_timeINS1_7day_tagEEE",
            "__ZN4absl12lts_2024011616EqualsIgnoreCaseENS0_11string_viewES1_",
            "__ZN4absl12lts_2024011616numbers_internal17safe_strto64_baseENS0_11string_viewEPxi",
            "__ZN4absl12lts_202401164Cord15FlattenSlowPathEv",
            "__ZN4absl12lts_2024011614flags_internal13AbslParseFlagENS0_11string_viewEPbPNSt3__112basic_stringIcNS4_11char_traitsIcEENS4_9allocatorIcEEEE",
            "__ZN4absl12lts_2024011613time_internal13AbslParseFlagENS0_11string_viewEPNS1_4cctz6detail10civil_timeINS1_9month_tagEEEPNSt3__112basic_stringIcNS9_11char_traitsIcEENS9_9allocatorIcEEEE",
            "__ZN4absl12lts_2024011615random_internal19MixIntoSeedMaterialENS0_4SpanIKjEENS2_IjEE",
            "__ZN4absl12lts_2024011613base_internal10CycleClock3NowEv",
            "__ZNK4absl12lts_202401168TimeZone14PrevTransitionENS0_4TimeEPNS1_15CivilTransitionE",
            "__ZN4absl12lts_2024011619str_format_internal16ParsedFormatBaseC2ENS0_11string_viewEbSt16initializer_listINS0_23FormatConversionCharSetEE",
            "__ZN4absl12lts_2024011612crc_internal3CRC6Crc32cEv",
            "__ZN4absl12lts_2024011613time_internallsERNSt3__113basic_ostreamIcNS2_11char_traitsIcEEEENS1_4cctz6detail10civil_timeINS1_10second_tagEEE",
            "__ZN4absl12lts_2024011613ToUnixSecondsENS0_4TimeE",
            "__ZN4absl12lts_2024011612ToInt64HoursENS0_8DurationE",
            "__ZN4absl12lts_2024011612crc_internal12CrcCordStateC1ERKS2_",
            "__ZN4absl12lts_2024011616numbers_internal15FastIntToBufferEyPc",
            "__ZN4absl12lts_2024011614flags_internal6RetireEPKcPKvPc",
            "__ZN4absl12lts_2024011618IsPermissionDeniedERKNS0_6StatusE",
            "__ZN4absl12lts_202401164Cord14PrependPreciseENS0_11string_viewENS0_13cord_internal18CordzUpdateTracker16MethodIdentifierE",
            "__ZN4absl12lts_2024011614flags_internal12FlagRegistry8FindFlagENS0_11string_viewE",
            "__ZNK4absl12lts_2024011614flags_internal8FlagImpl8TryParseENS0_11string_viewERNSt3__112basic_stringIcNS4_11char_traitsIcEENS4_9allocatorIcEEEE",
            "__ZN4absl12lts_2024011613base_internal16ThrowStdBadAllocEv",
            "__ZN4absl12lts_2024011613cord_internal12CordRepBtree7PrependEPS2_NS0_11string_viewEm",
            "__ZNK4absl12lts_2024011617ByAsciiWhitespace4FindENS0_11string_viewEm",
            "__ZN4absl12lts_2024011617BadStatusOrAccessaSEOS1_",
            "__ZN4absl12lts_2024011624synchronization_internal12StdcppWaiter4WaitENS1_13KernelTimeoutE",
            "__ZN4absl12lts_2024011613ErrnoToStatusEiNS0_11string_viewE",
            "__ZN4absl12lts_2024011613cord_internal9CordzInfo4HeadERKNS1_13CordzSnapshotE",
            "__ZN4absl12lts_2024011613cord_internal12CordRepBtree7SubTreeEmm",
            "__ZN4absl12lts_2024011614flags_internal12FlagRegistry14GlobalRegistryEv",
            "__ZN4absl12lts_2024011614flags_internal8FlagImpl12RestoreStateERKNS1_9FlagStateE",
            "__ZN4absl12lts_2024011617internal_statusor6Helper26HandleInvalidStatusCtorArgEPNS0_6StatusE",
            "__ZNK4absl12lts_2024011612crc_internal5CRC3214ExtendByZeroesEPjm",
            "__ZN4absl12lts_2024011619str_format_internal14FormatSinkImpl15PutPaddedStringENS0_11string_viewEiib",
            "__ZN4absl12lts_202401169ParseFlagERKNSt3__112basic_stringIcNS1_11char_traitsIcEENS1_9allocatorIcEEEEPNS0_4TimeEPS7_",
            "__ZN4absl12lts_2024011615ConvertDateTimeExiiiiiNS0_8TimeZoneE",
            "__ZN4absl12lts_2024011613cord_internal21CordRepBtreeNavigator4SkipEm",
            "__ZN4absl12lts_2024011620ToChronoMillisecondsENS0_8DurationE",
            "__ZN4absl12lts_2024011614flags_internal7UnparseEd",
            "__ZN4absl12lts_2024011615BlockingCounterC1Ei",
            "__ZN4absl12lts_2024011612crc_internal12CrcCordStateaSEOS2_",
            "__ZN4absl12lts_2024011616strings_internal18SingleArgStrAppendERNSt3__112basic_stringIcNS2_11char_traitsIcEENS2_9allocatorIcEEEEi",
            "__ZN4absl12lts_2024011614ParseCivilTimeENS0_11string_viewEPNS0_13time_internal4cctz6detail10civil_timeINS2_10minute_tagEEE",
            "__ZN4absl12lts_202401165Mutex6WakeupEPNS0_13base_internal14PerThreadSynchE",
            "__ZN4absl12lts_2024011615FormatCivilTimeENS0_13time_internal4cctz6detail10civil_timeINS1_7day_tagEEE",
            "__ZN4absl12lts_2024011616numbers_internal23FastIntToBufferBackwardExPcj",
            "__ZNK4absl12lts_2024011613cord_internal12CordRepBtree6IsFlatEPNS0_11string_viewE",
            "__ZN4absl12lts_2024011617BadStatusOrAccessC1ERKS1_",
            "__ZN4absl12lts_2024011610FromChronoERKNSt3__16chrono10time_pointINS2_12system_clockENS2_8durationIxNS1_5ratioILl1ELl1000000EEEEEEE",
            "__ZN4absl12lts_2024011613cord_internal9CordzInfoD2Ev",
            "__ZN4absl12lts_2024011624synchronization_internal11GraphCycles5GetIdEPv",
            "__ZN4absl12lts_2024011614flags_internal21PrivateHandleAccessor6TypeIdERKNS0_15CommandLineFlagE",
            "__ZN4absl12lts_2024011611UnparseFlagENS0_4TimeE",
            "__ZN4absl12lts_2024011618container_internal10SampleSlowERNS1_13SamplingStateEm",
            "__ZN4absl12lts_2024011613base_internal21ThrowStdOverflowErrorEPKc",
            "__ZN4absl12lts_2024011616strings_internal14CordTestAccess12FlatOverheadEv",
            "__ZN4absl12lts_2024011613time_internal13AbslParseFlagENS0_11string_viewEPNS1_4cctz6detail10civil_timeINS1_10minute_tagEEEPNSt3__112basic_stringIcNS9_11char_traitsIcEENS9_9allocatorIcEEEE",
            "__ZN4absl12lts_2024011613cord_internal9CordzInfoC1EPNS1_7CordRepEPKS2_NS1_18CordzUpdateTracker16MethodIdentifierE",
            "__ZN4absl12lts_2024011616numbers_internal32GetNumDigitsOrNegativeIfNegativeEm",
            "__ZN4absl12lts_2024011615BlockingCounter14DecrementCountEv",
            "__ZNK4absl12lts_202401164Cord20MaybeGetCrcCordStateEv",
            "__ZN4absl12lts_2024011613hash_internal10CityHash32EPKcm",
            "__ZN4absl12lts_2024011623FailedPreconditionErrorENS0_11string_viewE",
            "__ZN4absl12lts_20240116lsERNSt3__113basic_ostreamIcNS1_11char_traitsIcEEEERKNS0_6StatusE",
            "__ZNK4absl12lts_2024011618bad_variant_access4whatEv",
            "__ZN4absl12lts_202401164CordC2ENS0_11string_viewENS0_13cord_internal18CordzUpdateTracker16MethodIdentifierE",
            "__ZN4absl12lts_2024011614flags_internal7UnparseEj",
            "__ZNK4absl12lts_2024011619str_format_internal10Streamable5PrintERNSt3__113basic_ostreamIcNS3_11char_traitsIcEEEE",
            "__ZN4absl12lts_2024011613base_internal10CycleClock9FrequencyEv",
            "__ZN4absl12lts_2024011619SetFlagsUsageConfigENS0_16FlagsUsageConfigE",
            "__ZN4absl12lts_2024011613time_internal4cctz14ZoneInfoSourceD2Ev",
            "__ZN4absl12lts_202401165Mutex5TransEPKNS0_6MuHowSE",
            "__ZN4absl12lts_2024011624synchronization_internal11GraphCycles7HasNodeENS1_7GraphIdE",
            "__ZNK4absl12lts_202401164Cord11CompareImplERKS1_",
            "__ZN4absl12lts_2024011618container_internal21ShouldInsertBackwardsEmPKNS1_6ctrl_tE",
            "__ZNK4absl12lts_2024011614flags_internal8FlagImpl12OneWordValueEv",
            "__ZN4absl12lts_2024011613time_internal4cctz6detail6formatERKNSt3__112basic_stringIcNS4_11char_traitsIcEENS4_9allocatorIcEEEERKNS4_6chrono10time_pointINSD_12system_clockENSD_8durationIxNS4_5ratioILl1ELl1EEEEEEERKNSG_IxNSH_ILl1ELl1000000000000000EEEEERKNS2_9time_zoneE",
            "__ZN4absl12lts_2024011613GetStackTraceEPPvii",
            "__ZNK4absl12lts_2024011614flags_internal8FlagImpl9DataGuardEv",
            "__ZN4absl12lts_2024011613time_internal4cctz15local_time_zoneEv",
            "__ZN4absl12lts_2024011619DurationFromTimevalE7timeval",
            "__ZN4absl12lts_2024011619ToInt64MicrosecondsENS0_8DurationE",
            "__ZN4absl12lts_2024011616strings_internal15SingleArgStrCatEy",
            "__ZN4absl12lts_2024011620StartsWithIgnoreCaseENS0_11string_viewES1_",
            "__ZNK4absl12lts_2024011611string_view12find_last_ofES1_m",
            "__ZN4absl12lts_2024011620DefaultStackUnwinderEPPvPiiiPKvS3_",
            "__ZN4absl12lts_202401164Cord9InlineRep17PrependTreeToTreeEPNS0_13cord_internal7CordRepENS3_18CordzUpdateTracker16MethodIdentifierE",
            "__ZN4absl12lts_2024011614flags_internal13AbslParseFlagENS0_11string_viewEPfPNSt3__112basic_stringIcNS4_11char_traitsIcEENS4_9allocatorIcEEEE",
            "__ZN4absl12lts_2024011612crc_internal36NewCRC32AcceleratedX86ARMCombinedAllEv",
            "__ZN4absl12lts_2024011614flags_internal7UnparseEf",
            "__ZN4absl12lts_2024011616strings_internal15SingleArgStrCatEl",
            "__ZN4absl12lts_2024011612crc_internal12CrcCordState9NormalizeEv",
            "__ZN4absl12lts_2024011613cord_internal25InitializeCordRepExternalENS0_11string_viewEPNS1_15CordRepExternalE",
            "__ZNK4absl12lts_2024011613cord_internal12CordRepBtree6IsFlatEmmPNS0_11string_viewE",
            "__ZNK4absl12lts_2024011615status_internal9StatusRep13CloneAndUnrefEv",
            "__ZN4absl12lts_2024011613cord_internal11CordzHandleD1Ev",
            "__ZN4absl12lts_2024011612any_internal15ThrowBadAnyCastEv",
            "__ZN4absl12lts_2024011615status_internal19MakeCheckFailStringEPKNS0_6StatusEPKc",
            "__ZN4absl12lts_2024011616numbers_internal32GetNumDigitsOrNegativeIfNegativeEt",
            "__ZN4absl12lts_2024011613AbslParseFlagENS0_11string_viewEPNS0_4TimeEPNSt3__112basic_stringIcNS4_11char_traitsIcEENS4_9allocatorIcEEEE",
            "__ZN4absl12lts_2024011618profiling_internal17ExponentialBiased12GetSkipCountEx",
            "__ZN4absl12lts_2024011624GetStackTraceWithContextEPPviiPKvPi",
            "__ZNK4absl12lts_2024011624synchronization_internal11GraphCycles8FindPathENS1_7GraphIdES3_iPS3_",
            "__ZN4absl12lts_2024011611ToUniversalENS0_4TimeE",
            "__ZNK4absl12lts_2024011613cord_internal9CordzInfo14GetParentStackEv",
            "__ZN4absl12lts_202401166StatusC2ENS0_10StatusCodeENS0_11string_viewE",
            "__ZN4absl12lts_20240116lsERNSt3__113basic_ostreamIcNS1_11char_traitsIcEEEENS0_6int128E",
            "__ZN4absl12lts_2024011613ToChronoHoursENS0_8DurationE",
            "__ZNK4absl12lts_2024011615status_internal9StatusRepeqERKS2_",
            "__ZN4absl12lts_2024011616numbers_internal23FastIntToBufferBackwardEjPcj",
            "__ZN4absl12lts_202401169StrAppendEPNSt3__112basic_stringIcNS1_11char_traitsIcEENS1_9allocatorIcEEEERKNS0_8AlphaNumESB_",
            "__ZN4absl12lts_2024011624synchronization_internal11GraphCycles10RemoveEdgeENS1_7GraphIdES3_",
            "__ZN4absl12lts_2024011612crc_internal36TryNewCRC32AcceleratedX86ARMCombinedEv",
            "__ZN4absl12lts_202401169ConditionC1EPFbPvES2_",
            "__ZNK4absl12lts_2024011614flags_internal8FlagImpl24IsSpecifiedOnCommandLineEv",
            "__ZN4absl12lts_2024011613cord_internal12CordRepBtree11AssertValidEPS2_b",
            "__ZN4absl12lts_2024011615IsAlreadyExistsERKNS0_6StatusE",
            "__ZNK4absl12lts_2024011611string_view4findES1_m",
            "__ZN4absl12lts_2024011624synchronization_internal11GraphCycles10InsertEdgeENS1_7GraphIdES3_",
            "__ZN4absl12lts_2024011613time_internal4cctz15fixed_time_zoneERKNSt3__16chrono8durationIxNS3_5ratioILl1ELl1EEEEE",
            "__ZNK4absl12lts_2024011613time_internal4cctz9time_zone15prev_transitionERKNSt3__16chrono10time_pointINS5_12system_clockENS5_8durationIxNS4_5ratioILl1ELl1EEEEEEEPNS3_16civil_transitionE",
            "__ZNK4absl12lts_2024011624synchronization_internal11GraphCycles15CheckInvariantsEv",
            "__ZNK4absl12lts_2024011611string_view5rfindES1_m",
            "__ZNK4absl12lts_2024011612crc_internal23FallbackCrcMemcpyEngine7ComputeEPvPKvmNS0_8crc32c_tE",
            "__ZN4absl12lts_2024011616raw_log_internal6RawLogENS0_11LogSeverityEPKciS4_z",
            "__ZN4absl12lts_2024011624synchronization_internal11GraphCyclesD1Ev",
            "__ZNK4absl12lts_2024011612bad_any_cast4whatEv",
            "__ZN4absl12lts_2024011621ParseLenientCivilTimeENS0_11string_viewEPNS0_13time_internal4cctz6detail10civil_timeINS2_7day_tagEEE",
            "__ZN4absl12lts_2024011624synchronization_internal11GraphCyclesC1Ev",
            "__ZN4absl12lts_2024011612crc_internal7CRCImpl13FillWordTableEjjiPA256_j",
            "__ZN4absl12lts_2024011614flags_internal8FlagImpl9SaveStateEv",
            "__ZN4absl12lts_2024011613cord_internal12CordRepBtree7RebuildEPS2_",
            "__ZNK4absl12lts_202401166int1288ToStringEv",
            "__ZN4absl12lts_2024011617optional_internal25throw_bad_optional_accessEv",
            "__ZN4absl12lts_202401164ToTMENS0_4TimeENS0_8TimeZoneE",
            "__ZN4absl12lts_202401165TruncENS0_8DurationES1_",
            "__ZN4absl12lts_2024011613base_internal13LowLevelAlloc12DefaultArenaEv",
            "__ZN4absl12lts_2024011614flags_internal8FlagImpl9ParseFromENS0_11string_viewENS1_15FlagSettingModeENS1_11ValueSourceERNSt3__112basic_stringIcNS6_11char_traitsIcEENS6_9allocatorIcEEEE",
            "__ZN4absl12lts_202401169StrAppendEPNSt3__112basic_stringIcNS1_11char_traitsIcEENS1_9allocatorIcEEEERKNS0_8AlphaNumESB_SB_",
            "__ZN4absl12lts_2024011616strings_internal33CalculateBase64EscapedLenInternalEmb",
            "__ZN4absl12lts_202401164Cord12RemoveSuffixEm",
            "__ZN4absl12lts_202401169FlagSaverC2Ev",
            "__ZN4absl12lts_2024011616numbers_internal17safe_strto32_baseENS0_11string_viewEPii",
            "__ZN4absl12lts_2024011622ResourceExhaustedErrorENS0_11string_viewE",
            "__ZN4absl12lts_2024011616SeedGenExceptionD1Ev",
            "__ZN4absl12lts_2024011615random_internal24InitDiscreteDistributionEPNSt3__16vectorIdNS2_9allocatorIdEEEE",
            "__ZN4absl12lts_202401167uint128C1Ef",
            "__ZN4absl12lts_2024011613time_internal4cctz12TimeZoneInfo17ExtendTransitionsEv",
            "__ZN4absl12lts_2024011616strings_internal14EncodeUTF8CharEPcDi",
            "__ZN4absl12lts_2024011612crc_internal7CRCImpl11NewInternalEv",
            "__ZN4absl12lts_2024011619substitute_internal3ArgC1ENS0_3DecE",
            "__ZNK4absl12lts_202401168TimeZone14NextTransitionENS0_4TimeEPNS1_15CivilTransitionE",
            "__ZN4absl12lts_2024011616numbers_internal32GetNumDigitsOrNegativeIfNegativeEl",
            "__ZN4absl12lts_202401164Cord5ClearEv",
            "__ZN4absl12lts_2024011612crc_internal12CrcCordStateC1Ev",
            "__ZN4absl12lts_2024011616UnavailableErrorENS0_11string_viewE",
            "__ZN4absl12lts_2024011613hash_internal15MixingHashState28CombineLargeContiguousImpl64EyPKhm",
            "__ZN4absl12lts_2024011613cord_internal10CordRepCrc7DestroyEPS2_",
            "__ZN4absl12lts_2024011616strings_internal14CordTestAccess11LengthToTagEm",
            "__ZNK4absl12lts_202401164Time2InENS0_8TimeZoneE",
            "__ZN4absl12lts_2024011621WebSafeBase64UnescapeENS0_11string_viewEPNSt3__112basic_stringIcNS2_11char_traitsIcEENS2_9allocatorIcEEEE",
            "__ZNK4absl12lts_2024011611string_view4findEcm",
            "__ZN4absl12lts_2024011621ParseLenientCivilTimeENS0_11string_viewEPNS0_13time_internal4cctz6detail10civil_timeINS2_10second_tagEEE",
            "__ZN4absl12lts_2024011613base_internal6GetTIDEv",
            "__ZNK4absl12lts_2024011612crc_internal12CrcCordState8ChecksumEv",
            "__ZN4absl12lts_2024011614flags_internal7UnparseEs",
            "__ZN4absl12lts_2024011613base_internal7NumCPUsEv",
            "__ZN4absl12lts_2024011624synchronization_internal10WaiterBase15MaybeBecomeIdleEv",
            "__ZNK4absl12lts_2024011614flags_internal8FlagImpl33CheckDefaultValueParsingRoundtripEv",
            "__ZN4absl12lts_2024011613base_internal22ThrowStdUnderflowErrorERKNSt3__112basic_stringIcNS2_11char_traitsIcEENS2_9allocatorIcEEEE",
            "__ZN4absl12lts_2024011619ToInt64MillisecondsENS0_8DurationE",
            "__ZN4absl12lts_2024011621ParseLenientCivilTimeENS0_11string_viewEPNS0_13time_internal4cctz6detail10civil_timeINS2_9month_tagEEE",
            "__ZN4absl12lts_2024011619str_format_internal16ParsedFormatBaseC1ENS0_11string_viewEbSt16initializer_listINS0_23FormatConversionCharSetEE",
            "__ZN4absl12lts_2024011613base_internal26ClearCurrentThreadIdentityEv",
            "__ZN4absl12lts_2024011615AbslUnparseFlagENS0_4TimeE",
            "__ZNK4absl12lts_2024011624synchronization_internal13KernelTimeout25MakeClockAbsoluteTimespecE9clockid_t",
            "__ZN4absl12lts_2024011620DurationFromTimespecE8timespec",
            "__ZN4absl12lts_202401164Cord6AppendEOS1_",
            "__ZNK4absl12lts_2024011624synchronization_internal11GraphCycles11IsReachableENS1_7GraphIdES3_",
            "__ZN4absl12lts_2024011613cord_internal9CordzInfo15FillParentStackEPKS2_PPv",
            "__ZN4absl12lts_2024011612crc_internal12CrcCordStateaSERKS2_",
            "__ZN4absl12lts_2024011613cord_internal12CordRepBtree11PrependSlowEPS2_PNS1_7CordRepE",
            "__ZN4absl12lts_2024011614flags_internal24SetProgramInvocationNameENS0_11string_viewE",
            "__ZN4absl12lts_2024011624synchronization_internal13PthreadWaiter4PokeEv",
            "__ZN4absl12lts_2024011618container_internal36SetHashtablezSampleParameterInternalEi",
            "__ZNK4absl12lts_2024011619str_format_internal16ParsedFormatBase18MatchesConversionsEbSt16initializer_listINS0_23FormatConversionCharSetEE",
            "__ZNK4absl12lts_202401164Cord8EndsWithENS0_11string_viewE",
            "__ZNK4absl12lts_2024011611string_view16find_last_not_ofES1_m",
            "__ZN4absl12lts_2024011624synchronization_internal11GraphCycles10RemoveNodeEPv",
            "__ZN4absl12lts_202401165Mutex45InternalAttemptToUseMutexInFatalSignalHandlerEv",
            "__ZN4absl12lts_2024011613time_internal4cctz19FixedOffsetFromNameERKNSt3__112basic_stringIcNS3_11char_traitsIcEENS3_9allocatorIcEEEEPNS3_6chrono8durationIxNS3_5ratioILl1ELl1EEEEE",
            "__ZN4absl12lts_2024011614flags_internal7UnparseEx",
            "__ZN4absl12lts_2024011613NotFoundErrorENS0_11string_viewE",
            "__ZN4absl12lts_20240116lsERNSt3__113basic_ostreamIcNS1_11char_traitsIcEEEERKNS0_4CordE",
            "__ZN4absl12lts_2024011613time_internal15AbslUnparseFlagENS1_4cctz6detail10civil_timeINS1_8hour_tagEEE",
            "__ZN4absl12lts_2024011610from_charsEPKcS2_RdNS0_12chars_formatE",
            "__ZNK4absl12lts_2024011624synchronization_internal13KernelTimeout21InMillisecondsFromNowEv",
            "__ZN4absl12lts_2024011614ParseCivilTimeENS0_11string_viewEPNS0_13time_internal4cctz6detail10civil_timeINS2_8year_tagEEE",
            "__ZN4absl12lts_2024011612crc_internal21SupportsArmCRC32PMULLEv",
            "__ZN4absl12lts_2024011624synchronization_internal10MutexDelayEii",
            "__ZN4absl12lts_2024011613base_internal30CurrentThreadIdentityIfPresentEv",
            "__ZN4absl12lts_2024011621ParseLenientCivilTimeENS0_11string_viewEPNS0_13time_internal4cctz6detail10civil_timeINS2_8hour_tagEEE",
            "__ZN4absl12lts_2024011613time_internal4cctz10TimeZoneIf4MakeERKNSt3__112basic_stringIcNS4_11char_traitsIcEENS4_9allocatorIcEEEE",
            "__ZN4absl12lts_2024011613time_internal4cctz9time_zone4ImplC2ERKNSt3__112basic_stringIcNS5_11char_traitsIcEENS5_9allocatorIcEEEE"
          ],
          "weak": [
            "__ZNSt3__113basic_filebufIcNS_11char_traitsIcEEE12__write_modeEv",
            "__ZN4absl12lts_2024011616numbers_internal10IsNegativeIiEENSt3__19enable_ifIXntsr3std11is_unsignedIT_EE5valueEbE4typeERKS5_",
            "__ZNSt3__18functionIFNS_12basic_stringIcNS_11char_traitsIcEENS_9allocatorIcEEEEvEEaSIPS7_vEERS8_OT_",
            "__ZNSt3__114__split_bufferIPN4absl12lts_2024011612crc_internal12CrcCordState9PrefixCrcERNS_9allocatorIS6_EEE18__construct_at_endINS_13move_iteratorIPS6_EEEENS_9enable_ifIXsr31__has_forward_iterator_categoryIT_EE5valueEvE4typeESG_SG_",
            "__ZN4absl12lts_2024011616numbers_internal10IsNegativeIaEENSt3__19enable_ifIXntsr3std11is_unsignedIT_EE5valueEbE4typeERKS5_",
            "__ZN4absl12lts_2024011616strings_internal11BigUnsignedILi4EE10MultiplyByEj",
            "__ZN4absl12lts_2024011616strings_internal11BigUnsignedILi84EE10MultiplyByEy",
            "__ZN4absl12lts_2024011612crc_internal7RoundUpILi4EEEPKhS4_",
            "__ZN4absl12lts_2024011619str_format_internal13ConvertIntArgINS0_7uint128EEEbT_NS1_24FormatConversionSpecImplEPNS1_14FormatSinkImplE",
            "__ZN4absl12lts_2024011619str_format_internal13FormatArgImpl8DispatchIeEEbNS2_4DataENS1_24FormatConversionSpecImplEPv",
            "__ZN4absl12lts_2024011610FixedArrayIcLm18446744073709551615ENSt3__19allocatorIcEEE22NonEmptyInlinedStorage17AnnotateConstructEm",
            "__ZN4absl12lts_2024011619str_format_internal13ConvertIntArgIjEEbT_NS1_24FormatConversionSpecImplEPNS1_14FormatSinkImplE",
            "__ZN4absl12lts_2024011616strings_internal11BigUnsignedILi84EE9ShiftLeftEi",
            "__ZN4absl12lts_2024011616strings_internal11BigUnsignedILi84EE10MultiplyByEj",
            "__ZN4absl12lts_2024011619str_format_internal11InvokeFlushINS1_13BufferRawSinkEEEDTcl15AbslFormatFlushfp_fp0_EEPT_NS0_11string_viewE",
            "__ZN4absl12lts_2024011613cord_internal12CordRepBtree7AddDataILNS2_8EdgeTypeE1EEEPS2_S5_NS0_11string_viewEm",
            "__ZN4absl12lts_2024011615random_internal10RandenPoolIyEC2Ev",
            "__ZNSt3__112__hash_tableIPKN4absl12lts_2024011613cord_internal7CordRepENS_4hashIS6_EENS_8equal_toIS6_EENS_9allocatorIS6_EEE25__emplace_unique_key_argsIS6_JRKS6_EEENS_4pairINS_15__hash_iteratorIPNS_11__hash_nodeIS6_PvEEEEbEERKT_DpOT0_",
            "__ZN4absl12lts_2024011613StrReplaceAllISt16initializer_listINSt3__14pairINS0_11string_viewES5_EEEEEiRKT_PNS3_12basic_stringIcNS3_11char_traitsIcEENS3_9allocatorIcEEEE",
            "__ZN4absl12lts_2024011616numbers_internal12Base10DigitsIyEENSt3__19enable_ifIXsr3std11is_unsignedIT_EE5valueEjE4typeES5_j",
            "__ZN4absl12lts_2024011616strings_internal11BigUnsignedILi84EEC2Ev",
            "__ZN4absl12lts_2024011616numbers_internal15FastIntToBufferIcEEPcT_S3_",
            "__ZN4absl12lts_2024011616numbers_internal16safe_strtoi_baseImEEbNS0_11string_viewEPT_i",
            "__ZN4absl12lts_20240116mlIdEENS0_8DurationET_S2_",
            "__ZN4absl12lts_2024011619str_format_internal13FormatArgImpl8DispatchIxEEbNS2_4DataENS1_24FormatConversionSpecImplEPv",
            "__ZN4absl12lts_2024011618container_internal13DecomposePairINS1_12raw_hash_setINS1_17FlatHashMapPolicyINS0_11string_viewEPNS0_15CommandLineFlagEEENS1_10StringHashENS1_8StringEqENSt3__19allocatorINSB_4pairIKS5_S7_EEEEE11HashElementEJRSF_EEEDTclsr15memory_internalE17DecomposePairImplclsr3stdE7forwardIT_Efp_Ecl8PairArgsspclsr3stdE7forwardIT0_Efp0_EEEEOSK_DpOSL_",
            "__ZN4absl12lts_2024011619str_format_internal13FormatArgImpl8DispatchINSt3__112basic_stringIcNS4_11char_traitsIcEENS4_9allocatorIcEEEEEEbNS2_4DataENS1_24FormatConversionSpecImplEPv",
            "__ZN4absl12lts_2024011613base_internal6invokeIMNS0_14flags_internal8FlagImplEFvvEJPS4_EEEDTclsr7InvokerIT_DpT0_E4typeE6Invokeclsr3stdE7declvalIS8_EEspclsr3stdE7declvalIS9_EEEEOS8_DpOS9_",
            "_AbslInternalSpinLockDelay_lts_20240116",
            "__ZN4absl12lts_2024011614flags_internal15InvokeParseFlagIdEEbNS0_11string_viewEPT_PNSt3__112basic_stringIcNS6_11char_traitsIcEENS6_9allocatorIcEEEE",
            "__ZN4absl12lts_2024011613StrReplaceAllISt16initializer_listINSt3__14pairINS0_11string_viewES5_EEEEENS3_12basic_stringIcNS3_11char_traitsIcEENS3_9allocatorIcEEEES5_RKT_",
            "__ZN4absl12lts_2024011613hash_internal13HashStateBaseINS1_15MixingHashStateEE7combineImJEEES3_S3_RKT_DpRKT0_",
            "__ZN4absl12lts_2024011615random_internal10RandenPoolIyEclEv",
            "__ZN4absl12lts_2024011616strings_internal11BigUnsignedILi84EE12MultiplyStepEiPKjii",
            "__ZN4absl12lts_2024011615random_internal10RandenPoolIjEC2Ev",
            "__ZN4absl12lts_2024011615random_internal10RandenPoolIjEclEv",
            "__ZN4absl12lts_20240116dvIxEENS0_8DurationES2_T_",
            "__ZN4absl12lts_2024011619str_format_internal13FormatArgImpl8DispatchIyEEbNS2_4DataENS1_24FormatConversionSpecImplEPv",
            "__ZN4absl12lts_2024011619str_format_internal13FormatArgImpl8DispatchIlEEbNS2_4DataENS1_24FormatConversionSpecImplEPv",
            "__ZN4absl12lts_2024011614flags_internal23UnparseFloatingPointValIdEENSt3__112basic_stringIcNS3_11char_traitsIcEENS3_9allocatorIcEEEET_",
            "__ZN4absl12lts_2024011623inlined_vector_internal7StorageINS0_15status_internal7PayloadELm1ENSt3__19allocatorIS4_EEE5EraseEPKS4_SA_",
            "__ZN4absl12lts_2024011616numbers_internal10IsNegativeIlEENSt3__19enable_ifIXntsr3std11is_unsignedIT_EE5valueEbE4typeERKS5_",
            "__ZN4absl12lts_2024011613hash_internal13HashStateBaseINS1_15MixingHashStateEE18combine_contiguousIcEES3_S3_PKT_m",
            "__ZN4absl12lts_2024011614flags_internal15InvokeParseFlagIfEEbNS0_11string_viewEPT_PNSt3__112basic_stringIcNS6_11char_traitsIcEENS6_9allocatorIcEEEE",
            "__ZN4absl12lts_2024011616strings_internal21AppendIntegerToStringIjEENSt3__19enable_ifIXsr3std11is_integralIT_EE5valueEvE4typeERNS3_12basic_stringIcNS3_11char_traitsIcEENS3_9allocatorIcEEEES5_",
            "__ZN4absl12lts_2024011618container_internal10DeallocateILm8ENSt3__19allocatorINS3_4pairIKNS0_11string_viewEPNS0_15CommandLineFlagEEEEEEEvPT0_Pvm",
            "__ZNSt3__114__split_bufferIN4absl12lts_2024011613time_internal4cctz10TransitionERNS_9allocatorIS5_EEE28__construct_at_end_with_sizeINS_13move_iteratorIPS5_EEEEvT_m",
            "__ZNSt3__114__split_bufferIN4absl12lts_2024011613time_internal4cctz10TransitionERNS_9allocatorIS5_EEE18__construct_at_endINS_13move_iteratorIPS5_EEEENS_9enable_ifIXsr31__has_forward_iterator_categoryIT_EE5valueEvE4typeESF_SF_",
            "__ZNSt3__112__hash_tableINS_17__hash_value_typeINS_12basic_stringIcNS_11char_traitsIcEENS_9allocatorIcEEEEPKN4absl12lts_2024011613time_internal4cctz9time_zone4ImplEEENS_22__unordered_map_hasherIS7_SG_NS_4hashIS7_EENS_8equal_toIS7_EELb1EEENS_21__unordered_map_equalIS7_SG_SL_SJ_Lb1EEENS5_ISG_EEE4findIS7_EENS_15__hash_iteratorIPNS_11__hash_nodeISG_PvEEEERKT_",
            "__ZNSt3__18functionIFNS_12basic_stringIcNS_11char_traitsIcEENS_9allocatorIcEEEEvEEaSIRS7_vEERS8_OT_",
            "__ZNSt3__113basic_filebufIcNS_11char_traitsIcEEE4openEPKcj",
            "__ZN4absl12lts_2024011616strings_internal11BigUnsignedILi84EE12AddWithCarryEij",
            "__ZN4absl12lts_2024011614flags_internal23UnparseFloatingPointValIfEENSt3__112basic_stringIcNS3_11char_traitsIcEENS3_9allocatorIcEEEET_",
            "__ZN4absl12lts_2024011616numbers_internal21UnsignedAbsoluteValueIlEENSt3__19enable_ifIXntsr3std11is_unsignedIT_EE5valueEu15__make_unsignedIS5_EE4typeES5_",
            "__ZNSt3__15dequeIN4absl12lts_2024011612crc_internal12CrcCordState9PrefixCrcENS_9allocatorIS5_EEE6assignINS_16__deque_iteratorIS5_PKS5_RSB_PKSC_lLl256EEEEEvT_SH_PNS_9enable_ifIXsr37__has_random_access_iterator_categoryISH_EE5valueEvE4typeE",
            "__ZN4absl12lts_2024011614GenericCompareIbNS0_11string_viewEEET_RKNS0_4CordERKT0_m",
            "__ZN4absl12lts_2024011615random_internal10RandenPoolIhE8GenerateEv",
            "__ZN4absl12lts_2024011623inlined_vector_internal17ConstructElementsINSt3__19allocatorIPNS0_13cord_internal7CordRepEEENS1_20IteratorValueAdapterIS8_NS3_13move_iteratorIPS7_EEEEEEvRNS1_12TypeIdentityIT_E4typeENS3_16allocator_traitsISF_E7pointerERT0_NSK_9size_typeE",
            "__ZN4absl12lts_2024011615random_internal10RandenPoolIjE4FillENS0_4SpanIjEE",
            "__ZN4absl12lts_2024011610FixedArrayIcLm18446744073709551615ENSt3__19allocatorIcEEE22NonEmptyInlinedStorage16AnnotateDestructEm",
            "__ZN4absl12lts_2024011619str_format_internal13FormatArgImpl8DispatchIcEEbNS2_4DataENS1_24FormatConversionSpecImplEPv",
            "__ZN4absl12lts_2024011616numbers_internal21UnsignedAbsoluteValueIsEENSt3__19enable_ifIXntsr3std11is_unsignedIT_EE5valueEu15__make_unsignedIS5_EE4typeES5_",
            "__ZN4absl12lts_2024011615random_internal10RandenPoolIyE3maxEv",
            "__ZNK4absl12lts_2024011616strings_internal11BigUnsignedILi4EE7GetWordEi",
            "__ZN4absl12lts_2024011619str_format_internal11InvokeFlushINSt3__113basic_ostreamIcNS3_11char_traitsIcEEEEEEDTcl15AbslFormatFlushfp_fp0_EEPT_NS0_11string_viewE",
            "__ZN4absl12lts_2024011619str_format_internal13FormatArgImpl8DispatchItEEbNS2_4DataENS1_24FormatConversionSpecImplEPv",
            "__ZN4absl12lts_2024011616numbers_internal16safe_strtoi_baseIyEEbNS0_11string_viewEPT_i",
            "__ZN4absl12lts_2024011618container_internal13DecomposePairINS1_12raw_hash_setINS1_17FlatHashMapPolicyINS0_11string_viewEPNS0_15CommandLineFlagEEENS1_10StringHashENS1_8StringEqENSt3__19allocatorINSB_4pairIKS5_S7_EEEEE19EmplaceDecomposableEJNSD_IS5_S7_EEEEEDTclsr15memory_internalE17DecomposePairImplclsr3stdE7forwardIT_Efp_Ecl8PairArgsspclsr3stdE7forwardIT0_Efp0_EEEEOSK_DpOSL_",
            "__ZNSt3__112__hash_tableINS_17__hash_value_typeINS_12basic_stringIcNS_11char_traitsIcEENS_9allocatorIcEEEEPKN4absl12lts_2024011613time_internal4cctz9time_zone4ImplEEENS_22__unordered_map_hasherIS7_SG_NS_4hashIS7_EENS_8equal_toIS7_EELb1EEENS_21__unordered_map_equalIS7_SG_SL_SJ_Lb1EEENS5_ISG_EEE21__construct_node_hashIRKNS_21piecewise_construct_tEJNS_5tupleIJRKS7_EEENSV_IJEEEEEENS_10unique_ptrINS_11__hash_nodeISG_PvEENS_22__hash_node_destructorINS5_IS13_EEEEEEmOT_DpOT0_",
            "__ZN4absl12lts_2024011616strings_internal20Base64EscapeInternalINSt3__112basic_stringIcNS3_11char_traitsIcEENS3_9allocatorIcEEEEEEvPKhmPT_bPKc",
            "__ZN4absl12lts_2024011619str_format_internal13FormatArgImpl8DispatchIdEEbNS2_4DataENS1_24FormatConversionSpecImplEPv",
            "__ZN4absl12lts_2024011623inlined_vector_internal7StorageINS0_15status_internal7PayloadELm1ENSt3__19allocatorIS4_EEE15EmplaceBackSlowIJS4_EEERS4_DpOT_",
            "__ZN4absl12lts_2024011615random_internal10RandenPoolIhE4FillENS0_4SpanIhEE",
            "__ZN4absl12lts_2024011615random_internal10RandenPoolItE8GenerateEv",
            "__ZN4absl12lts_2024011618container_internal13DecomposePairINS1_12raw_hash_setINS1_17FlatHashMapPolicyINS0_11string_viewEPNS0_15CommandLineFlagEEENS1_10StringHashENS1_8StringEqENSt3__19allocatorINSB_4pairIKS5_S7_EEEEE12EqualElementIS5_EEJRSF_EEEDTclsr15memory_internalE17DecomposePairImplclsr3stdE7forwardIT_Efp_Ecl8PairArgsspclsr3stdE7forwardIT0_Efp0_EEEEOSL_DpOSM_",
            "__ZN4absl12lts_2024011613base_internal6invokeIRFvvEJEEEDTclsr7InvokerIT_DpT0_E4typeE6Invokeclsr3stdE7declvalIS5_EEspclsr3stdE7declvalIS6_EEEEOS5_DpOS6_",
            "__ZNK4absl12lts_2024011616strings_internal11BigUnsignedILi4EE4sizeEv",
            "__ZN4absl12lts_2024011623inlined_vector_internal17ConstructElementsINSt3__19allocatorINS0_15status_internal7PayloadEEENS1_20IteratorValueAdapterIS7_NS3_13move_iteratorIPS6_EEEEEEvRNS1_12TypeIdentityIT_E4typeENS3_16allocator_traitsISE_E7pointerERT0_NSJ_9size_typeE",
            "__ZN4absl12lts_2024011619str_format_internal13ConvertIntArgIhEEbT_NS1_24FormatConversionSpecImplEPNS1_14FormatSinkImplE",
            "__ZN4absl12lts_2024011616numbers_internal12Base10DigitsIjEENSt3__19enable_ifIXsr3std11is_unsignedIT_EE5valueEjE4typeES5_j",
            "_AbslInternalPerThreadSemPost_lts_20240116",
            "__ZN4absl12lts_2024011616strings_internal11BigUnsignedILi4EE10ReadDigitsEPKcS5_i",
            "__ZN4absl12lts_2024011616strings_internal21AppendIntegerToStringIyEENSt3__19enable_ifIXsr3std11is_integralIT_EE5valueEvE4typeERNS3_12basic_stringIcNS3_11char_traitsIcEENS3_9allocatorIcEEEES5_",
            "__ZN4absl12lts_2024011619str_format_internal13ConvertIntArgIiEEbT_NS1_24FormatConversionSpecImplEPNS1_14FormatSinkImplE",
            "__ZN4absl12lts_2024011616strings_internal13FloatToStringIdEENSt3__19enable_ifIXsr3std17is_floating_pointIT_EE5valueENS3_12basic_stringIcNS3_11char_traitsIcEENS3_9allocatorIcEEEEE4typeES5_",
            "__ZN4absl12lts_2024011613cord_internal12CordRepBtree5MergeILNS2_8EdgeTypeE0EEEPS2_S5_S5_",
            "__ZN4absl12lts_2024011616strings_internal11BigUnsignedILi84EE8Digits10Ev",
            "__ZN4absl12lts_2024011623inlined_vector_internal7StorageIPNS0_13cord_internal7CordRepELm2ENSt3__19allocatorIS5_EEE11EmplaceBackIJRKS5_EEERS5_DpOT_",
            "__ZN4absl12lts_2024011619str_format_internal13FormatArgImpl8DispatchINS0_11string_viewEEEbNS2_4DataENS1_24FormatConversionSpecImplEPv",
            "__ZN4absl12lts_202401167StrJoinINSt3__16vectorINS2_12basic_stringIcNS2_11char_traitsIcEENS2_9allocatorIcEEEENS7_IS9_EEEEEES9_RKT_NS0_11string_viewE",
            "__ZN4absl12lts_2024011618profiling_internal14SampleRecorderINS0_18container_internal14HashtablezInfoEE8RegisterIJRKxRmEEEPS4_DpOT_",
            "__ZN4absl12lts_202401169Condition19CastAndCallFunctionIKNSt3__16atomicIbEEEEbPKS1_",
            "__ZN4absl12lts_20240116mlIiEENS0_8DurationES2_T_",
            "__ZNSt3__112__hash_tableINS_17__hash_value_typeINS_12basic_stringIcNS_11char_traitsIcEENS_9allocatorIcEEEEPKN4absl12lts_2024011613time_internal4cctz9time_zone4ImplEEENS_22__unordered_map_hasherIS7_SG_NS_4hashIS7_EENS_8equal_toIS7_EELb1EEENS_21__unordered_map_equalIS7_SG_SL_SJ_Lb1EEENS5_ISG_EEE11__do_rehashILb1EEEvm",
            "__ZN4absl12lts_2024011615random_internal10RandenPoolIyE8GenerateEv",
            "__ZNK4absl12lts_2024011616strings_internal11BigUnsignedILi84EE4sizeEv",
            "__ZN4absl12lts_2024011616strings_internal11BigUnsignedILi84EE12FiveToTheNthEi",
            "__ZN4absl12lts_2024011618container_internal8AllocateILm8ENSt3__19allocatorIcEEEEPvPT0_m",
            "__ZNSt3__18functionIFbN4absl12lts_2024011611string_viewEEEaSIPS4_vEERS5_OT_",
            "__ZN4absl12lts_2024011618container_internal8PairArgsIRKNS0_11string_viewERKPNS0_15CommandLineFlagEEENSt3__14pairINSA_5tupleIJOT_EEENSC_IJOT0_EEEEESE_SH_",
            "__ZN4absl12lts_2024011616strings_internal11BigUnsignedILi84EEC1ENS0_11string_viewE",
            "__ZN4absl12lts_2024011616numbers_internal16safe_strtoi_baseIjEEbNS0_11string_viewEPT_i",
            "__ZN4absl12lts_2024011613base_internal12CallOnceImplIRFvvEJEEEvPNSt3__16atomicIjEENS1_14SchedulingModeEOT_DpOT0_",
            "_AbslInternalPerThreadSemPoke_lts_20240116",
            "__ZNSt3__112__hash_tableIPKN4absl12lts_2024011613cord_internal7CordRepENS_4hashIS6_EENS_8equal_toIS6_EENS_9allocatorIS6_EEE8__rehashILb1EEEvm",
            "__ZN4absl12lts_2024011616strings_internal11BigUnsignedILi4EE9SetToZeroEv",
            "__ZN4absl12lts_2024011618container_internal13TrailingZerosIyEEjT_",
            "__ZN4absl12lts_2024011614GenericCompareIiNS0_11string_viewEEET_RKNS0_4CordERKT0_m",
            "__ZN4absl12lts_2024011616strings_internal11BigUnsignedILi84EE9SetToZeroEv",
            "__ZN4absl12lts_2024011616numbers_internal21UnsignedAbsoluteValueIiEENSt3__19enable_ifIXntsr3std11is_unsignedIT_EE5valueEu15__make_unsignedIS5_EE4typeES5_",
            "__ZN4absl12lts_2024011616strings_internal9JoinRangeINSt3__111__wrap_iterIPKNS3_12basic_stringIcNS3_11char_traitsIcEENS3_9allocatorIcEEEEEEEESA_T_SE_NS0_11string_viewE",
            "__ZNSt3__15dequeIN4absl12lts_2024011612crc_internal12CrcCordState9PrefixCrcENS_9allocatorIS5_EEE32__assign_with_size_random_accessB8ue170006INS_16__deque_iteratorIS5_PKS5_RSB_PKSC_lLl256EEEEEvT_l",
            "__ZN4absl12lts_2024011616strings_internal11BigUnsignedILi4EEC1Ev",
            "__ZN4absl12lts_2024011618container_internal15memory_internal17DecomposePairImplINS1_12raw_hash_setINS1_17FlatHashMapPolicyINS0_11string_viewEPNS0_15CommandLineFlagEEENS1_10StringHashENS1_8StringEqENSt3__19allocatorINSC_4pairIKS6_S8_EEEEE19EmplaceDecomposableEOSF_NSC_5tupleIJOS8_EEEEEDTclclsr3stdE7declvalIT_EEclsr3stdE7declvalIRKT0_EEL_ZNSC_L19piecewise_constructEEclsr3stdE7declvalINSL_IJSP_EEEEEclsr3stdE7declvalIT1_EEEEOSO_NSE_ISS_ST_EE",
            "__ZNK4absl12lts_2024011618profiling_internal14SampleRecorderINS0_18container_internal14HashtablezInfoEE13GetMaxSamplesEv",
            "__ZN4absl12lts_2024011616numbers_internal15FastIntToBufferIsEEPcT_S3_",
            "__ZN4absl12lts_2024011616strings_internal11BigUnsignedILi4EE10MultiplyByEy",
            "__ZN4absl12lts_2024011613time_internal16ToChronoDurationINSt3__16chrono8durationIlNS3_5ratioILl60ELl1EEEEEEET_NS0_8DurationE",
            "__ZN4absl12lts_2024011616strings_internal11BigUnsignedILi4EE12FiveToTheNthEi",
            "__ZNSt3__18functionIFNS_12basic_stringIcNS_11char_traitsIcEENS_9allocatorIcEEEEN4absl12lts_2024011611string_viewEEEaSIRSA_vEERSB_OT_",
            "__ZN4absl12lts_2024011618container_internal8PairArgsIKNS0_11string_viewEPNS0_15CommandLineFlagEEENSt3__14pairINS7_5tupleIJOT_EEENS9_IJOT0_EEEEESB_SE_",
            "__ZN4absl12lts_2024011619str_format_internal13ConvertIntArgIsEEbT_NS1_24FormatConversionSpecImplEPNS1_14FormatSinkImplE",
            "__ZN4absl12lts_2024011618container_internal8PairArgsINS0_11string_viewEPNS0_15CommandLineFlagEEENSt3__14pairINS6_5tupleIJOT_EEENS8_IJOT0_EEEEESA_SD_",
            "__ZN4absl12lts_2024011615random_internal10RandenPoolItE3minEv",
            "__ZN4absl12lts_2024011623inlined_vector_internal17ConstructElementsINSt3__19allocatorINS0_15status_internal7PayloadEEENS1_20IteratorValueAdapterIS7_PKS6_EEEEvRNS1_12TypeIdentityIT_E4typeENS3_16allocator_traitsISD_E7pointerERT0_NSI_9size_typeE",
            "_AbslInternalSpinLockWake_lts_20240116",
            "_AbslContainerInternalSampleEverything_lts_20240116",
            "__ZN4absl12lts_2024011613hash_internal13HashStateBaseINS1_15MixingHashStateEE7combineINS0_11string_viewEJEEES3_S3_RKT_DpRKT0_",
            "__ZN4absl12lts_2024011618container_internal15memory_internal17DecomposePairImplINS1_12raw_hash_setINS1_17FlatHashMapPolicyINS0_11string_viewEPNS0_15CommandLineFlagEEENS1_10StringHashENS1_8StringEqENSt3__19allocatorINSC_4pairIKS6_S8_EEEEE19EmplaceDecomposableEOS6_NSC_5tupleIJOS8_EEEEEDTclclsr3stdE7declvalIT_EEclsr3stdE7declvalIRKT0_EEL_ZNSC_L19piecewise_constructEEclsr3stdE7declvalINSL_IJSP_EEEEEclsr3stdE7declvalIT1_EEEEOSO_NSE_ISS_ST_EE",
            "__ZN4absl12lts_2024011619str_format_internal13ConvertIntArgIyEEbT_NS1_24FormatConversionSpecImplEPNS1_14FormatSinkImplE",
            "__ZN4absl12lts_2024011613cord_internal12CordRepBtree7SetEdgeILNS2_8EdgeTypeE1EEENS2_8OpResultEbPNS1_7CordRepEm",
            "__ZN4absl12lts_2024011619str_format_internal13FormatArgImpl8DispatchImEEbNS2_4DataENS1_24FormatConversionSpecImplEPv",
            "__ZN4absl12lts_2024011613hash_internal13AbslHashValueINS1_15MixingHashStateEEET_S4_NS0_11string_viewE",
            "__ZN4absl12lts_2024011615random_internal10RandenPoolIyE3minEv",
            "__ZN4absl12lts_2024011618container_internal10DeallocateILm8ENSt3__19allocatorIcEEEEvPT0_Pvm",
            "__ZN4absl12lts_2024011616strings_internal15IntegerToStringIyEENSt3__19enable_ifIXsr3std11is_integralIT_EE5valueENS3_12basic_stringIcNS3_11char_traitsIcEENS3_9allocatorIcEEEEE4typeES5_",
            "__ZN4absl12lts_20240116mlIiEENS0_8DurationET_S2_",
            "__ZN4absl12lts_2024011616strings_internal10ParseFloatILi16EEENS1_11ParsedFloatEPKcS5_NS0_12chars_formatE",
            "__ZN4absl12lts_2024011623inlined_vector_internal7StorageINS0_19str_format_internal13FormatArgImplELm4ENSt3__19allocatorIS4_EEE10InitializeINS1_20IteratorValueAdapterIS7_PKS4_EEEEvT_m",
            "__ZN4absl12lts_2024011619str_format_internal13FormatArgImpl8DispatchIfEEbNS2_4DataENS1_24FormatConversionSpecImplEPv",
            "__ZN4absl12lts_202401168exchangeIxiEET_RS2_OT0_",
            "__ZNSt3__16vectorINS_12basic_stringIcNS_11char_traitsIcEENS_9allocatorIcEEEENS4_IS6_EEE18__construct_at_endINS_11__wrap_iterIPKN4absl12lts_2024011611string_viewEEESG_EEvT_T0_m",
            "__ZN4absl12lts_2024011615random_internal10RandenPoolItE3maxEv",
            "__ZN4absl12lts_2024011619str_format_internal13FormatArgImpl8DispatchIjEEbNS2_4DataENS1_24FormatConversionSpecImplEPv",
            "__ZN4absl12lts_2024011616strings_internal13JoinAlgorithmINSt3__111__wrap_iterIPKNS3_12basic_stringIcNS3_11char_traitsIcEENS3_9allocatorIcEEEEEEvEESA_T_SE_NS0_11string_viewENS1_11NoFormatterE",
            "__ZN4absl12lts_2024011616numbers_internal15FastIntToBufferIhEEPcT_S3_",
            "__ZN4absl12lts_2024011613time_internal16ToChronoDurationINSt3__16chrono8durationIxNS3_5ratioILl1ELl1EEEEEEET_NS0_8DurationE",
            "__ZN4absl12lts_2024011616strings_internal11BigUnsignedILi84EE17ReadFloatMantissaERKNS1_11ParsedFloatEi",
            "__ZN4absl12lts_2024011619str_format_internal13FormatArgImpl8DispatchIaEEbNS2_4DataENS1_24FormatConversionSpecImplEPv",
            "__ZN4absl12lts_2024011615random_internal10RandenPoolIhEclEv",
            "__ZN4absl12lts_2024011618container_internal19TransferRelocatableILm24EEEvPvS3_S3_",
            "__ZNSt3__114__split_bufferIN4absl12lts_2024011613time_internal4cctz14TransitionTypeERNS_9allocatorIS5_EEE18__construct_at_endINS_13move_iteratorIPS5_EEEENS_9enable_ifIXsr31__has_forward_iterator_categoryIT_EE5valueEvE4typeESF_SF_",
            "__ZN4absl12lts_2024011618container_internal8PairArgsINS0_11string_viewEPNS0_15CommandLineFlagEEENSt3__14pairINS6_5tupleIJOT_EEENS8_IJOT0_EEEEEONS7_IS9_SC_EE",
            "__ZN4absl12lts_2024011616numbers_internal21UnsignedAbsoluteValueIRhEENSt3__19enable_ifIXsr3std11is_unsignedIu7__decayIT_EEE5valueEOS6_E4typeES8_",
            "__ZN4absl12lts_2024011623inlined_vector_internal7StorageIPNS0_13cord_internal7CordRepELm2ENSt3__19allocatorIS5_EEE15EmplaceBackSlowIJRKS5_EEERS5_DpOT_",
            "__ZN4absl12lts_2024011618container_internal18DeallocateStandardILm8EEEvRNS1_12CommonFieldsERKNS1_15PolicyFunctionsE",
            "__ZN4absl12lts_2024011619str_format_internal11InvokeFlushINS1_11FILERawSinkEEEDTcl15AbslFormatFlushfp_fp0_EEPT_NS0_11string_viewE",
            "__ZNSt3__112__hash_tableIiNS_4hashIiEENS_8equal_toIiEENS_9allocatorIiEEE11__do_rehashILb1EEEvm",
            "__ZN4absl12lts_2024011619str_format_internal13FormatArgImpl8DispatchIiEEbNS2_4DataENS1_24FormatConversionSpecImplEPv",
            "__ZNSt3__112__hash_tableIPKN4absl12lts_2024011613cord_internal7CordRepENS_4hashIS6_EENS_8equal_toIS6_EENS_9allocatorIS6_EEE11__do_rehashILb1EEEvm",
            "__ZNSt3__15dequeIN4absl12lts_2024011612crc_internal12CrcCordState9PrefixCrcENS_9allocatorIS5_EEE12emplace_backIJiNS2_8crc32c_tEEEEvDpOT_",
            "__ZN4absl12lts_2024011616strings_internal11BigUnsignedILi4EEC2ENS0_11string_viewE",
            "__ZN4absl12lts_202401169StrFormatIJidEEENSt3__112basic_stringIcNS2_11char_traitsIcEENS2_9allocatorIcEEEERKNS0_19str_format_internal18FormatSpecTemplateIJXspclsr19str_format_internalE14ArgumentToConvIT_EEEEEEDpRKSB_",
            "__ZN4absl12lts_2024011618container_internal15memory_internal17DecomposePairImplINS1_12raw_hash_setINS1_17FlatHashMapPolicyINS0_11string_viewEPNS0_15CommandLineFlagEEENS1_10StringHashENS1_8StringEqENSt3__19allocatorINSC_4pairIKS6_S8_EEEEE11HashElementERSF_NSC_5tupleIJRKS8_EEEEEDTclclsr3stdE7declvalIT_EEclsr3stdE7declvalIRKT0_EEL_ZNSC_L19piecewise_constructEEclsr3stdE7declvalINSL_IJSQ_EEEEEclsr3stdE7declvalIT1_EEEEOSP_NSE_IST_SU_EE",
            "__ZN4absl12lts_202401164CordC2INSt3__112basic_stringIcNS3_11char_traitsIcEENS3_9allocatorIcEEEELi0EEEOT_",
            "__ZNKSt3__115basic_stringbufIcNS_11char_traitsIcEENS_9allocatorIcEEE3strEv",
            "__ZN4absl12lts_2024011623inlined_vector_internal14AssignElementsINSt3__19allocatorINS0_15status_internal7PayloadEEENS1_20IteratorValueAdapterIS7_NS3_13move_iteratorIPS6_EEEEEEvNS3_16allocator_traitsIT_E7pointerERT0_NSF_9size_typeE",
            "__ZN4absl12lts_2024011615random_internal10RandenPoolIjEC1Ev",
            "__ZN4absl12lts_2024011616strings_internal11BigUnsignedILi84EE12AddWithCarryEiy",
            "__ZN4absl12lts_2024011614GenericCompareIbNS0_4CordEEET_RKS2_RKT0_m",
            "__ZN4absl12lts_2024011616numbers_internal21UnsignedAbsoluteValueIRjEENSt3__19enable_ifIXsr3std11is_unsignedIu7__decayIT_EEE5valueEOS6_E4typeES8_",
            "__ZN4absl12lts_2024011616strings_internal15IntegerToStringIxEENSt3__19enable_ifIXsr3std11is_integralIT_EE5valueENS3_12basic_stringIcNS3_11char_traitsIcEENS3_9allocatorIcEEEEE4typeES5_",
            "__ZN4absl12lts_2024011613cord_internal12CordRepBtree10AddCordRepILNS2_8EdgeTypeE0EEEPS2_S5_PNS1_7CordRepE",
            "__ZN4absl12lts_2024011616numbers_internal21UnsignedAbsoluteValueIRyEENSt3__19enable_ifIXsr3std11is_unsignedIu7__decayIT_EEE5valueEOS6_E4typeES8_",
            "__ZNSt3__114__split_bufferIPN4absl12lts_2024011612crc_internal12CrcCordState9PrefixCrcERNS_9allocatorIS6_EEE28__construct_at_end_with_sizeINS_13move_iteratorIPS6_EEEEvT_m",
            "__ZN4absl12lts_2024011616numbers_internal12Base10DigitsImEENSt3__19enable_ifIXsr3std11is_unsignedIT_EE5valueEjE4typeES5_j",
            "_AbslInternalReportFatalUsageError_lts_20240116",
            "__ZNSt3__114__split_bufferIPPKN4absl12lts_2024011613time_internal4cctz9time_zone4ImplERNS_9allocatorIS9_EEE18__construct_at_endINS_13move_iteratorIPS9_EEEENS_9enable_ifIXsr31__has_forward_iterator_categoryIT_EE5valueEvE4typeESJ_SJ_",
            "__ZNSt3__18functionIFNS_12basic_stringIcNS_11char_traitsIcEENS_9allocatorIcEEEEN4absl12lts_2024011611string_viewEEEaSIPSA_vEERSB_OT_",
            "__ZNSt3__112basic_stringIcNS_11char_traitsIcEENS_9allocatorIcEEE16__init_with_sizeB8ue170006IPcS7_EEvT_T0_m",
            "__ZN4absl12lts_2024011618container_internal13DecomposePairINS1_12raw_hash_setINS1_17FlatHashMapPolicyINS0_11string_viewEPNS0_15CommandLineFlagEEENS1_10StringHashENS1_8StringEqENSt3__19allocatorINSB_4pairIKS5_S7_EEEEE19EmplaceDecomposableEJSF_EEEDTclsr15memory_internalE17DecomposePairImplclsr3stdE7forwardIT_Efp_Ecl8PairArgsspclsr3stdE7forwardIT0_Efp0_EEEEOSJ_DpOSK_",
            "__ZN4absl12lts_2024011619str_format_internal13FormatArgImpl8DispatchIPKcEEbNS2_4DataENS1_24FormatConversionSpecImplEPv",
            "__ZN4absl12lts_2024011619str_format_internal13FormatArgImpl8DispatchINS0_7uint128EEEbNS2_4DataENS1_24FormatConversionSpecImplEPv",
            "__ZN4absl12lts_202401169call_onceIMNS0_14flags_internal8FlagImplEFvvEJPS3_EEEvRNS0_9once_flagEOT_DpOT0_",
            "__ZN4absl12lts_2024011615random_internal10RandenPoolIhEC1Ev",
            "__ZN4absl12lts_2024011616numbers_internal21UnsignedAbsoluteValueIRtEENSt3__19enable_ifIXsr3std11is_unsignedIu7__decayIT_EEE5valueEOS6_E4typeES8_",
            "__ZN4absl12lts_2024011618container_internal8PairArgsIKNS0_11string_viewEPNS0_15CommandLineFlagEEENSt3__14pairINS7_5tupleIJOT_EEENS9_IJOT0_EEEEEONS8_ISA_SD_EE",
            "__ZN4absl12lts_2024011618profiling_internal14SampleRecorderINS0_18container_internal14HashtablezInfoEE8PushDeadEPS4_",
            "__ZN4absl12lts_2024011612crc_internal7RoundUpILi8EEEPKhS4_",
            "__ZNK4absl12lts_2024011616strings_internal11BigUnsignedILi4EE8ToStringEv",
            "__ZN4absl12lts_2024011616strings_internal11BigUnsignedILi4EE12MultiplyStepEiPKjii",
            "__ZN4absl12lts_202401166HashOfIJEJmEEEmDpRKT0_",
            "_AbslInternalMutexYield_lts_20240116",
            "__ZNK4absl12lts_2024011616strings_internal11BigUnsignedILi84EE8ToStringEv",
            "__ZNK4absl12lts_2024011614flags_internal8FlagImpl11OffsetValueINSt3__16atomicIyEEEEPT_v",
            "__ZN4absl12lts_2024011616strings_internal11BigUnsignedILi84EE21MultiplyByTenToTheNthEi",
            "__ZN4absl12lts_2024011623inlined_vector_internal7StorageINS0_15status_internal7PayloadELm1ENSt3__19allocatorIS4_EEE8InitFromERKS8_",
            "__ZN4absl12lts_2024011615random_internal10RandenPoolIyE4FillENS0_4SpanIyEE",
            "__ZN4absl12lts_2024011616strings_internal11BigUnsignedILi4EE12AddWithCarryEij",
            "__ZN4absl12lts_2024011615random_internal10RandenPoolItE4FillENS0_4SpanItEE",
            "__ZN4absl12lts_2024011616strings_internal21AppendIntegerToStringIiEENSt3__19enable_ifIXsr3std11is_integralIT_EE5valueEvE4typeERNS3_12basic_stringIcNS3_11char_traitsIcEENS3_9allocatorIcEEEES5_",
            "__ZN4absl12lts_2024011615random_internal10RandenPoolItEC1Ev",
            "__ZNSt3__112basic_stringIcNS_11char_traitsIcEENS_9allocatorIcEEE16__init_with_sizeB8ue170006IPKcS8_EEvT_T0_m",
            "__ZN4absl12lts_2024011618container_internal13DecomposePairINS1_12raw_hash_setINS1_17FlatHashMapPolicyINS0_11string_viewEPNS0_15CommandLineFlagEEENS1_10StringHashENS1_8StringEqENSt3__19allocatorINSB_4pairIKS5_S7_EEEEE11FindElementEJRSF_EEEDTclsr15memory_internalE17DecomposePairImplclsr3stdE7forwardIT_Efp_Ecl8PairArgsspclsr3stdE7forwardIT0_Efp0_EEEEOSK_DpOSL_",
            "__ZN4absl12lts_2024011615random_internal10RandenPoolItEclEv",
            "__ZN4absl12lts_2024011613hash_internal13AbslHashValueINS1_15MixingHashStateEJRKmEEENSt3__19enable_ifIXsr4absl11conjunctionIDpNS1_11is_hashableIT0_EEEE5valueET_E4typeESC_RKNS6_5tupleIJDpS9_EEE",
            "__ZN4absl12lts_2024011613hash_internal10hash_bytesINS1_15MixingHashStateEmEET_S4_RKT0_",
            "__ZNSt3__16vectorIN4absl12lts_2024011613time_internal4cctz14TransitionTypeENS_9allocatorIS5_EEE7emplaceIJEEENS_11__wrap_iterIPS5_EENSA_IPKS5_EEDpOT_",
            "__ZNSt3__15dequeIN4absl12lts_2024011612crc_internal12CrcCordState9PrefixCrcENS_9allocatorIS5_EEE18__append_with_sizeB8ue170006INS_16__deque_iteratorIS5_PKS5_RSB_PKSC_lLl256EEEEEvT_m",
            "__ZNK4absl12lts_2024011616strings_internal11BigUnsignedILi4EE5wordsEv",
            "__ZN4absl12lts_202401169Condition19CastAndCallFunctionINS0_10SynchEventEEEbPKS1_",
            "__ZN4absl12lts_2024011616numbers_internal15FastIntToBufferItEEPcT_S3_",
            "__ZN4absl12lts_2024011615random_internal10RandenPoolIhE3minEv",
            "__ZN4absl12lts_2024011619str_format_internal13ConvertIntArgImEEbT_NS1_24FormatConversionSpecImplEPNS1_14FormatSinkImplE",
            "__ZN4absl12lts_2024011613base_internal16LowLevelCallOnceIRFvvEJEEEvPNS0_9once_flagEOT_DpOT0_",
            "__ZN4absl12lts_2024011618container_internal15memory_internal17DecomposePairImplINS1_12raw_hash_setINS1_17FlatHashMapPolicyINS0_11string_viewEPNS0_15CommandLineFlagEEENS1_10StringHashENS1_8StringEqENSt3__19allocatorINSC_4pairIKS6_S8_EEEEE12EqualElementIS6_EERSF_NSC_5tupleIJRKS8_EEEEEDTclclsr3stdE7declvalIT_EEclsr3stdE7declvalIRKT0_EEL_ZNSC_L19piecewise_constructEEclsr3stdE7declvalINSM_IJSR_EEEEEclsr3stdE7declvalIT1_EEEEOSQ_NSE_ISU_SV_EE",
            "__ZN4absl12lts_2024011613cord_internal12CordRepBtree7AddDataILNS2_8EdgeTypeE0EEEPS2_S5_NS0_11string_viewEm",
            "__ZN4absl12lts_2024011612crc_internal11RotateRightIjEET_S3_ii",
            "__ZN4absl12lts_2024011616numbers_internal12Base10DigitsItEENSt3__19enable_ifIXsr3std11is_unsignedIT_EE5valueEjE4typeES5_j",
            "__ZN4absl12lts_2024011618profiling_internal14SampleRecorderINS0_18container_internal14HashtablezInfoEE10UnregisterEPS4_",
            "__ZN4absl12lts_2024011623inlined_vector_internal17ConstructElementsINSt3__19allocatorINS0_19str_format_internal13FormatArgImplEEENS1_20IteratorValueAdapterIS7_PKS6_EEEEvRNS1_12TypeIdentityIT_E4typeENS3_16allocator_traitsISD_E7pointerERT0_NSI_9size_typeE",
            "__ZN4absl12lts_2024011618container_internal15memory_internal17DecomposePairImplINS1_12raw_hash_setINS1_17FlatHashMapPolicyINS0_11string_viewEPNS0_15CommandLineFlagEEENS1_10StringHashENS1_8StringEqENSt3__19allocatorINSC_4pairIKS6_S8_EEEEE11FindElementERSF_NSC_5tupleIJRKS8_EEEEEDTclclsr3stdE7declvalIT_EEclsr3stdE7declvalIRKT0_EEL_ZNSC_L19piecewise_constructEEclsr3stdE7declvalINSL_IJSQ_EEEEEclsr3stdE7declvalIT1_EEEEOSP_NSE_IST_SU_EE",
            "__ZN4absl12lts_2024011616numbers_internal15FastIntToBufferImEEPcT_S3_",
            "__ZN4absl12lts_2024011623inlined_vector_internal7StorageINS0_15status_internal7PayloadELm1ENSt3__19allocatorIS4_EEE15DestroyContentsEv",
            "__ZNK4absl12lts_2024011614flags_internal8FlagImpl11OffsetValueINS1_16FlagOneWordValueEEEPT_v",
            "__ZN4absl12lts_2024011618profiling_internal14SampleRecorderINS0_18container_internal14HashtablezInfoEE7PopDeadIJxmEEEPS4_DpT_",
            "__ZN4absl12lts_2024011618profiling_internal14SampleRecorderINS0_18container_internal14HashtablezInfoEE13SetMaxSamplesEm",
            "__ZN4absl12lts_2024011614flags_internal15InvokeParseFlagIiEEbNS0_11string_viewEPT_PNSt3__112basic_stringIcNS6_11char_traitsIcEENS6_9allocatorIcEEEE",
            "__ZN4absl12lts_2024011616strings_internal11BigUnsignedILi4EE8Digits10Ev",
            "__ZN4absl12lts_2024011616strings_internal11BigUnsignedILi4EEC2Ey",
            "__ZNSt3__112__hash_tableIiNS_4hashIiEENS_8equal_toIiEENS_9allocatorIiEEE25__emplace_unique_key_argsIiJRKiEEENS_4pairINS_15__hash_iteratorIPNS_11__hash_nodeIiPvEEEEbEERKT_DpOT0_",
            "__ZNSt3__114__split_bufferIPPKN4absl12lts_2024011613time_internal4cctz9time_zone4ImplERNS_9allocatorIS9_EEE28__construct_at_end_with_sizeINS_13move_iteratorIPS9_EEEEvT_m",
            "__ZN4absl12lts_2024011613hash_internal13HashStateBaseINS1_15MixingHashStateEE7combineINSt3__15tupleIJRKmEEEJEEES3_S3_RKT_DpRKT0_",
            "__ZN4absl12lts_2024011612StreamFormatIJjEEENS0_19str_format_internal10StreamableERKNS2_18FormatSpecTemplateIJXspclsr19str_format_internalE14ArgumentToConvIT_EEEEEEDpRKS5_",
            "__ZN4absl12lts_2024011619str_format_internal13ConvertIntArgIwEEbT_NS1_24FormatConversionSpecImplEPNS1_14FormatSinkImplE",
            "__ZN4absl12lts_2024011616numbers_internal16safe_strtoi_baseIiEEbNS0_11string_viewEPT_i",
            "__ZN4absl12lts_2024011616strings_internal21AppendIntegerToStringIxEENSt3__19enable_ifIXsr3std11is_integralIT_EE5valueEvE4typeERNS3_12basic_stringIcNS3_11char_traitsIcEENS3_9allocatorIcEEEES5_",
            "__ZN4absl12lts_2024011616strings_internal17FindSubstitutionsISt16initializer_listINSt3__14pairINS0_11string_viewES6_EEEEENS4_6vectorINS1_18ViableSubstitutionENS4_9allocatorISA_EEEES6_RKT_",
            "__ZN4absl12lts_2024011619str_format_internal13FormatArgImpl8DispatchIPKwEEbNS2_4DataENS1_24FormatConversionSpecImplEPv",
            "__ZNSt3__18functionIFbN4absl12lts_2024011611string_viewEEEaSIRS4_vEERS5_OT_",
            "__ZN4absl12lts_2024011619str_format_internal17FormatConvertImplIbLi0EEENS1_16ArgConvertResultILNS0_23FormatConversionCharSetE655355EEET_NS1_24FormatConversionSpecImplEPNS1_14FormatSinkImplE",
            "__ZN4absl12lts_2024011616strings_internal11BigUnsignedILi84EE22MultiplyByFiveToTheNthEi",
            "__ZN4absl12lts_202401168StrSplitIcNS0_10AllowEmptyEEENS0_16strings_internal8SplitterINS3_15SelectDelimiterIT_E4typeET0_NS0_11string_viewEEENS3_23ConvertibleToStringViewES6_S9_",
            "__ZN4absl12lts_2024011612crc_internal12MaskOfLengthIjEET_i",
            "__ZN4absl12lts_2024011616strings_internal13FloatToStringIfEENSt3__19enable_ifIXsr3std17is_floating_pointIT_EE5valueENS3_12basic_stringIcNS3_11char_traitsIcEENS3_9allocatorIcEEEEE4typeES5_",
            "__ZN4absl12lts_2024011619str_format_internal13ConvertIntArgItEEbT_NS1_24FormatConversionSpecImplEPNS1_14FormatSinkImplE",
            "_AbslInternalPerThreadSemWait_lts_20240116",
            "__ZNSt3__114__split_bufferIN4absl12lts_2024011613time_internal4cctz14TransitionTypeERNS_9allocatorIS5_EEE12emplace_backIJEEEvDpOT_",
            "__ZN4absl12lts_2024011616strings_internal9JoinRangeINSt3__16vectorINS3_12basic_stringIcNS3_11char_traitsIcEENS3_9allocatorIcEEEENS8_ISA_EEEEEESA_RKT_NS0_11string_viewE",
            "__ZNSt3__113basic_filebufIcNS_11char_traitsIcEEE11__read_modeEv",
            "__ZN4absl12lts_2024011613hash_internal10hash_tupleINS1_15MixingHashStateENSt3__15tupleIJRKmEEEJLm0EEEET_S9_RKT0_NS4_16integer_sequenceImJXspT1_EEEE",
            "__ZN4absl12lts_2024011613cord_internal12CordRepBtree10AddCordRepILNS2_8EdgeTypeE1EEEPS2_S5_PNS1_7CordRepE",
            "__ZNSt3__112__hash_tableINS_17__hash_value_typeINS_12basic_stringIcNS_11char_traitsIcEENS_9allocatorIcEEEEPKN4absl12lts_2024011613time_internal4cctz9time_zone4ImplEEENS_22__unordered_map_hasherIS7_SG_NS_4hashIS7_EENS_8equal_toIS7_EELb1EEENS_21__unordered_map_equalIS7_SG_SL_SJ_Lb1EEENS5_ISG_EEE25__emplace_unique_key_argsIS7_JRKNS_21piecewise_construct_tENS_5tupleIJRKS7_EEENSV_IJEEEEEENS_4pairINS_15__hash_iteratorIPNS_11__hash_nodeISG_PvEEEEbEERKT_DpOT0_",
            "__ZN4absl12lts_2024011619str_format_internal13FormatArgImpl8DispatchIhEEbNS2_4DataENS1_24FormatConversionSpecImplEPv",
            "__ZNSt3__112__hash_tableIiNS_4hashIiEENS_8equal_toIiEENS_9allocatorIiEEE8__rehashILb1EEEvm",
            "__ZN4absl12lts_2024011616numbers_internal21UnsignedAbsoluteValueIRmEENSt3__19enable_ifIXsr3std11is_unsignedIu7__decayIT_EEE5valueEOS6_E4typeES8_",
            "__ZNK4absl12lts_2024011616strings_internal11BigUnsignedILi84EE5wordsEv",
            "_AbslInternalPerThreadSemInit_lts_20240116",
            "__ZN4absl12lts_2024011616strings_internal11BigUnsignedILi4EEC2Ev",
            "__ZN4absl12lts_2024011613time_internal16ToChronoDurationINSt3__16chrono8durationIxNS3_5ratioILl1ELl1000000000EEEEEEET_NS0_8DurationE",
            "__ZN4absl12lts_2024011619str_format_internal13FormatArgImpl8DispatchIsEEbNS2_4DataENS1_24FormatConversionSpecImplEPv",
            "__ZN4absl12lts_2024011618profiling_internal14SampleRecorderINS0_18container_internal14HashtablezInfoEE7PushNewEPS4_",
            "__ZN4absl12lts_202401169StrFormatIJifEEENSt3__112basic_stringIcNS2_11char_traitsIcEENS2_9allocatorIcEEEERKNS0_19str_format_internal18FormatSpecTemplateIJXspclsr19str_format_internalE14ArgumentToConvIT_EEEEEEDpRKSB_",
            "__ZN4absl12lts_2024011615random_internal10RandenPoolIjE3maxEv",
            "__ZN4absl12lts_2024011616numbers_internal16safe_strtoi_baseIxEEbNS0_11string_viewEPT_i",
            "__ZN4absl12lts_2024011613hash_internal19hash_range_or_bytesINS1_15MixingHashStateEcEENSt3__19enable_ifIXsr23is_uniquely_representedIT0_EE5valueET_E4typeES7_PKS6_m",
            "__ZNSt3__16vectorIN4absl12lts_2024011613time_internal4cctz10TransitionENS_9allocatorIS5_EEE7emplaceIJEEENS_11__wrap_iterIPS5_EENSA_IPKS5_EEDpOT_",
            "__ZN4absl12lts_2024011619str_format_internal17ParseFormatStringINS1_16ParsedFormatBase20ParsedFormatConsumerEEEbNS0_11string_viewET_",
            "__ZN4absl12lts_2024011616numbers_internal16safe_strtoi_baseIlEEbNS0_11string_viewEPT_i",
            "__ZN4absl12lts_2024011613time_internal16ToChronoDurationINSt3__16chrono8durationIxNS3_5ratioILl1ELl1000000EEEEEEET_NS0_8DurationE",
            "__ZN4absl12lts_2024011616numbers_internal10IsNegativeIhEENSt3__19enable_ifIXsr3std11is_unsignedIT_EE5valueENS3_17integral_constantIbLb0EEEE4typeERKS5_",
            "__ZN4absl12lts_202401164Cord7PrependINSt3__112basic_stringIcNS3_11char_traitsIcEENS3_9allocatorIcEEEELi0EEEvOT_",
            "__ZN4absl12lts_20240116mlIxEENS0_8DurationET_S2_",
            "__ZN4absl12lts_2024011616numbers_internal21UnsignedAbsoluteValueIaEENSt3__19enable_ifIXntsr3std11is_unsignedIT_EE5valueEu15__make_unsignedIS5_EE4typeES5_",
            "__ZNSt3__114__split_bufferIN4absl12lts_2024011613time_internal4cctz10TransitionERNS_9allocatorIS5_EEE12emplace_backIJEEEvDpOT_",
            "__ZNK4absl12lts_2024011616strings_internal11BigUnsignedILi84EE7GetWordEi",
            "__ZN4absl12lts_2024011616numbers_internal10IsNegativeIsEENSt3__19enable_ifIXntsr3std11is_unsignedIT_EE5valueEbE4typeERKS5_",
            "__ZN4absl12lts_2024011615random_internal10RandenPoolIyEC1Ev",
            "__ZN4absl12lts_202401164Cord6AppendINSt3__112basic_stringIcNS3_11char_traitsIcEENS3_9allocatorIcEEEELi0EEEvOT_",
            "__ZN4absl12lts_2024011616strings_internal11BigUnsignedILi4EEC1ENS0_11string_viewE",
            "__ZN4absl12lts_2024011619str_format_internal13FormatArgImpl8DispatchINS1_7VoidPtrEEEbNS2_4DataENS1_24FormatConversionSpecImplEPv",
            "__ZN4absl12lts_2024011616numbers_internal10IsNegativeImEENSt3__19enable_ifIXsr3std11is_unsignedIT_EE5valueENS3_17integral_constantIbLb0EEEE4typeERKS5_",
            "__ZN4absl12lts_2024011616numbers_internal15FastIntToBufferIaEEPcT_S3_",
            "__ZNSt3__112__hash_tableIPKN4absl12lts_2024011613cord_internal7CordRepENS_4hashIS6_EENS_8equal_toIS6_EENS_9allocatorIS6_EEE21__construct_node_hashIRKS6_JEEENS_10unique_ptrINS_11__hash_nodeIS6_PvEENS_22__hash_node_destructorINSB_ISK_EEEEEEmOT_DpOT0_",
            "__ZN4absl12lts_2024011616strings_internal10ParseFloatILi10EEENS1_11ParsedFloatEPKcS5_NS0_12chars_formatE",
            "__ZN4absl12lts_2024011616strings_internal11BigUnsignedILi4EE9ShiftLeftEi",
            "__ZN4absl12lts_2024011619str_format_internal11InvokeFlushINSt3__112basic_stringIcNS3_11char_traitsIcEENS3_9allocatorIcEEEEEEDTcl15AbslFormatFlushfp_fp0_EEPT_NS0_11string_viewE",
            "__ZN4absl12lts_2024011616numbers_internal10IsNegativeIyEENSt3__19enable_ifIXsr3std11is_unsignedIT_EE5valueENS3_17integral_constantIbLb0EEEE4typeERKS5_",
            "__ZN4absl12lts_2024011616numbers_internal15FastIntToBufferIlEEPcT_S3_",
            "__ZN4absl12lts_2024011616numbers_internal10IsNegativeIjEENSt3__19enable_ifIXsr3std11is_unsignedIT_EE5valueENS3_17integral_constantIbLb0EEEE4typeERKS5_",
            "__ZN4absl12lts_2024011613base_internal12CallOnceImplIMNS0_14flags_internal8FlagImplEFvvEJPS4_EEEvPNSt3__16atomicIjEENS1_14SchedulingModeEOT_DpOT0_",
            "__ZN4absl12lts_2024011616strings_internal11BigUnsignedILi4EE12AddWithCarryEiy",
            "__ZN4absl12lts_2024011612MillisecondsIdLi0EEENS0_8DurationET_",
            "__ZN4absl12lts_2024011619str_format_internal13FormatArgImpl8DispatchINS0_6int128EEEbNS2_4DataENS1_24FormatConversionSpecImplEPv",
            "__ZN4absl12lts_2024011616strings_internal15IntegerToStringIiEENSt3__19enable_ifIXsr3std11is_integralIT_EE5valueENS3_12basic_stringIcNS3_11char_traitsIcEENS3_9allocatorIcEEEEE4typeES5_",
            "__ZN4absl12lts_2024011616strings_internal11BigUnsignedILi84EE10MultiplyByEiPKj",
            "__ZN4absl12lts_2024011623inlined_vector_internal7StorageINS0_15status_internal7PayloadELm1ENSt3__19allocatorIS4_EEE11EmplaceBackIJS4_EEERS4_DpOT_",
            "__ZNSt3__112__hash_tableIiNS_4hashIiEENS_8equal_toIiEENS_9allocatorIiEEE21__construct_node_hashIRKiJEEENS_10unique_ptrINS_11__hash_nodeIiPvEENS_22__hash_node_destructorINS5_ISE_EEEEEEmOT_DpOT0_",
            "__ZNSt3__112__hash_tableINS_17__hash_value_typeINS_12basic_stringIcNS_11char_traitsIcEENS_9allocatorIcEEEEPKN4absl12lts_2024011613time_internal4cctz9time_zone4ImplEEENS_22__unordered_map_hasherIS7_SG_NS_4hashIS7_EENS_8equal_toIS7_EELb1EEENS_21__unordered_map_equalIS7_SG_SL_SJ_Lb1EEENS5_ISG_EEE8__rehashILb1EEEvm",
            "__ZN4absl12lts_2024011619str_format_internal13ConvertIntArgIcEEbT_NS1_24FormatConversionSpecImplEPNS1_14FormatSinkImplE",
            "__ZN4absl12lts_2024011613cord_internal12CordRepBtree7SetEdgeILNS2_8EdgeTypeE0EEENS2_8OpResultEbPNS1_7CordRepEm",
            "__ZN4absl12lts_2024011619str_format_internal13FormatArgImpl8DispatchIbEEbNS2_4DataENS1_24FormatConversionSpecImplEPv",
            "__ZN4absl12lts_202401164CordC1INSt3__112basic_stringIcNS3_11char_traitsIcEENS3_9allocatorIcEEEELi0EEEOT_",
            "__ZN4absl12lts_2024011615random_internal10RandenPoolIjE3minEv",
            "__ZN4absl12lts_2024011616numbers_internal21UnsignedAbsoluteValueIxEENSt3__19enable_ifIXntsr3std11is_unsignedIT_EE5valueEu15__make_unsignedIS5_EE4typeES5_",
            "__ZN4absl12lts_2024011616strings_internal22ExtractStringificationINS0_3HexEEENS0_11string_viewERNS1_13StringifySinkERKT_",
            "__ZN4absl12lts_2024011616strings_internal11BigUnsignedILi84EEC1Ey",
            "__ZN4absl12lts_2024011619str_format_internal13ConvertIntArgINS0_6int128EEEbT_NS1_24FormatConversionSpecImplEPNS1_14FormatSinkImplE",
            "__ZN4absl12lts_2024011619str_format_internal13ConvertIntArgIaEEbT_NS1_24FormatConversionSpecImplEPNS1_14FormatSinkImplE",
            "__ZN4absl12lts_2024011615random_internal10RandenPoolIjE8GenerateEv",
            "__ZN4absl12lts_2024011616strings_internal11BigUnsignedILi84EEC2ENS0_11string_viewE",
            "__ZN4absl12lts_2024011613cord_internal12CordRepBtree5MergeILNS2_8EdgeTypeE1EEEPS2_S5_S5_",
            "__ZN4absl12lts_2024011616strings_internal11BigUnsignedILi4EE10MultiplyByEiPKj",
            "__ZN4absl12lts_2024011616strings_internal11BigUnsignedILi4EE17ReadFloatMantissaERKNS1_11ParsedFloatEi",
            "__ZN4absl12lts_2024011616numbers_internal10IsNegativeIxEENSt3__19enable_ifIXntsr3std11is_unsignedIT_EE5valueEbE4typeERKS5_",
            "__ZN4absl12lts_2024011616strings_internal15IntegerToStringIjEENSt3__19enable_ifIXsr3std11is_integralIT_EE5valueENS3_12basic_stringIcNS3_11char_traitsIcEENS3_9allocatorIcEEEEE4typeES5_",
            "__ZNSt3__114__split_bufferIN4absl12lts_2024011613time_internal4cctz14TransitionTypeERNS_9allocatorIS5_EEE28__construct_at_end_with_sizeINS_13move_iteratorIPS5_EEEEvT_m",
            "__ZN4absl12lts_2024011616strings_internal37STLStringResizeUninitializedAmortizedINSt3__112basic_stringIcNS3_11char_traitsIcEENS3_9allocatorIcEEEEEEvPT_m",
            "__ZN4absl12lts_202401169call_onceIRFvvEJEEEvRNS0_9once_flagEOT_DpOT0_",
            "__ZN4absl12lts_2024011619str_format_internal13FormatArgImpl8DispatchINSt3__112basic_stringIwNS4_11char_traitsIwEENS4_9allocatorIwEEEEEEbNS2_4DataENS1_24FormatConversionSpecImplEPv",
            "__ZN4absl12lts_2024011615random_internal10RandenPoolIhEC2Ev",
            "__ZNSt3__113basic_filebufIcNS_11char_traitsIcEEE5closeEv",
            "__ZN4absl12lts_2024011616numbers_internal10IsNegativeItEENSt3__19enable_ifIXsr3std11is_unsignedIT_EE5valueENS3_17integral_constantIbLb0EEEE4typeERKS5_",
            "__ZN4absl12lts_2024011614GenericCompareIiNS0_4CordEEET_RKS2_RKT0_m",
            "__ZN4absl12lts_2024011616strings_internal11BigUnsignedILi4EE22MultiplyByFiveToTheNthEi",
            "__ZN4absl12lts_2024011619str_format_internal13ConvertIntArgIlEEbT_NS1_24FormatConversionSpecImplEPNS1_14FormatSinkImplE",
            "__ZN4absl12lts_2024011613time_internal16ToChronoDurationINSt3__16chrono8durationIxNS3_5ratioILl1ELl1000EEEEEEET_NS0_8DurationE",
            "__ZNK4absl12lts_2024011614flags_internal8FlagImpl11OffsetValueIvEEPT_v",
            "__ZN4absl12lts_2024011615random_internal10RandenPoolItEC2Ev",
            "__ZN4absl12lts_2024011616numbers_internal15FastIntToBufferIwEEPcT_S3_",
            "__ZN4absl12lts_2024011613time_internal16ToChronoDurationINSt3__16chrono8durationIlNS3_5ratioILl3600ELl1EEEEEEET_NS0_8DurationE",
            "__ZN4absl12lts_2024011616strings_internal11BigUnsignedILi84EEC2Ey",
            "_AbslInternalSleepFor_lts_20240116",
            "__ZN4absl12lts_2024011616strings_internal7CompareILi84ELi84EEEiRKNS1_11BigUnsignedIXT_EEERKNS3_IXT0_EEE",
            "__ZN4absl12lts_2024011615random_internal10RandenPoolIhE3maxEv",
            "__ZN4absl12lts_2024011616numbers_internal12Base10DigitsIhEENSt3__19enable_ifIXsr3std11is_unsignedIT_EE5valueEjE4typeES5_j",
            "__ZN4absl12lts_2024011616strings_internal11BigUnsignedILi4EE21MultiplyByTenToTheNthEi",
            "__ZN4absl12lts_2024011616strings_internal11BigUnsignedILi84EEC1Ev",
            "__ZN4absl12lts_2024011619str_format_internal13ConvertIntArgIxEEbT_NS1_24FormatConversionSpecImplEPNS1_14FormatSinkImplE",
            "__ZN4absl12lts_2024011616strings_internal11BigUnsignedILi4EEC1Ey",
            "__ZN4absl12lts_2024011616strings_internal11BigUnsignedILi84EE10ReadDigitsEPKcS5_i",
            "__ZN4absl12lts_2024011618container_internal19find_first_non_fullIvEENS1_8FindInfoERKNS1_12CommonFieldsEm",
            "__ZN4absl12lts_2024011618container_internal8PairArgsIKNS0_11string_viewEPNS0_15CommandLineFlagEEENSt3__14pairINS7_5tupleIJRKT_EEENS9_IJRKT0_EEEEERKNS8_ISA_SE_EE"
          ]
        }
      }
    ],
    "flags": [
      {
        "attributes": [
          "not_app_extension_safe"
        ]
      }
    ],
    "install_names": [
      {
        "name": "@rpath/absl.framework/Versions/A/absl"
      }
    ],
    "target_info": [
      {
        "min_deployment": "11",
        "target": "arm64-macos"
      }
    ]
  },
  "tapi_tbd_version": 5
}
