{
  "main_library": {
    "exported_symbols": [
      {
        "data": {
          "global": [
            "__ZTIN8firebase9firestore6remote10GrpcStreamE",
            "__ZN8firebase9firestore52google_firestore_v1_BatchGetDocumentsResponse_fieldsE",
            "__ZTSN8firebase9firestore3api19MemoryCacheSettingsE",
            "__ZTIN8firebase9firestore5local18LocalDocumentsViewE",
            "__ZTSN8firebase9firestore5local20LevelDbMutationQueueE",
            "__ZTIN8firebase9firestore4core12EventManagerE",
            "__ZN8firebase9firestore40google_firestore_v1_CommitRequest_fieldsE",
            "__ZN8firebase9firestore51google_firestore_v1_BatchGetDocumentsRequest_fieldsE",
            "__ZTSN8firebase9firestore5local28MemoryEagerReferenceDelegateE",
            "__ZN8firebase9firestore32google_protobuf_ListValue_fieldsE",
            "__ZTVN8firebase9firestore4core22ArrayContainsAnyFilter3RepE",
            "__ZTIN8firebase9firestore11credentials31FirebaseAuthCredentialsProviderE",
            "__ZTSN8firebase9firestore5model13PatchMutation3RepE",
            "__ZN8firebase9firestore58google_firestore_v1_StructuredQuery_CompositeFilter_fieldsE",
            "__ZN8firebase9firestore53google_firestore_v1_StructuredQuery_Projection_fieldsE",
            "__ZTSN8firebase9firestore5local27LevelDbDocumentOverlayCacheE",
            "__ZTSN8firebase9firestore3api21MemoryEagerGcSettingsE",
            "__ZN8firebase9firestore53google_firestore_v1_StructuredAggregationQuery_fieldsE",
            "__ZTSN8firebase9firestore3api19MemoryLruGcSettingsE",
            "__ZN8firebase9firestore65google_firestore_v1_AggregationResult_AggregateFieldsEntry_fieldsE",
            "__ZTIN8firebase9firestore3api25QueryListenerRegistrationE",
            "__ZN8firebase9firestore41google_firestore_v1_CommitResponse_fieldsE",
            "__ZTIN8firebase9firestore5local27LevelDbLruReferenceDelegateE",
            "__ZTSN8firebase9firestore11credentials35FirebaseAppCheckCredentialsProviderE",
            "__ZN8firebase9firestore37firestore_client_MaybeDocument_fieldsE",
            "__ZN8firebase9firestore41google_firestore_v1_DocumentRemove_fieldsE",
            "__ZTIN8firebase9firestore5model11SetMutation3RepE",
            "__ZN8firebase9firestore42google_firestore_v1_RunQueryRequest_fieldsE",
            "__ZTVN8firebase9firestore5local27LevelDbDocumentOverlayCacheE",
            "__ZTIN8firebase9firestore6remote19GrpcStreamingReaderE",
            "__ZN8firebase9firestore32google_protobuf_Timestamp_fieldsE",
            "__ZTIN8firebase9firestore11credentials35FirebaseAppCheckCredentialsProviderE",
            "__ZTVN8firebase9firestore6nanopb12StringReaderE",
            "__ZN8firebase9firestore48google_firestore_v1_StructuredQuery_Order_fieldsE",
            "__ZN8firebase9firestore39google_firestore_v1_DocumentMask_fieldsE",
            "__ZTVN8firebase9firestore4core15CompositeFilter3RepE",
            "__ZTIN8firebase9firestore3api19MemoryCacheSettingsE",
            "__ZTSN8firebase9firestore4core15CompositeFilter3RepE",
            "__ZN8firebase9firestore35google_firestore_v1_Document_fieldsE",
            "__ZTSN8firebase9firestore4core13QueryListenerE",
            "__ZTVN8firebase9firestore5local10LocalStoreE",
            "__ZN8firebase9firestore38google_firestore_v1_WriteResult_fieldsE",
            "__ZN8firebase9firestore52google_firestore_v1_ListenRequest_LabelsEntry_fieldsE",
            "__ZTVN8firebase9firestore6remote10GrpcStreamE",
            "__ZN8firebase9firestore6remote37grpc_root_certificates_generated_sizeE",
            "__ZTSN8firebase9firestore3api23PersistentCacheSettingsE",
            "__ZN8firebase9firestore28google_protobuf_Value_fieldsE",
            "__ZN8firebase9firestore29firestore_BundledQuery_fieldsE",
            "__ZN8firebase9firestore65google_firestore_v1_StructuredAggregationQuery_Aggregation_fieldsE",
            "__ZTIN8firebase9firestore6remote11WriteStreamE",
            "__ZN8firebase9firestore37firestore_client_MutationQueue_fieldsE",
            "__ZTVN8firebase9firestore6remote13GrpcUnaryCallE",
            "__ZTSN8firebase9firestore4util13ByteStreamCppE",
            "__ZTVN8firebase9firestore4util13ByteStreamCppE",
            "__ZN8firebase9firestore40google_firestore_v1_WriteResponse_fieldsE",
            "_FIRFirestoreVersionString",
            "__ZTSN8firebase9firestore5local19LevelDbIndexManagerE",
            "__ZTSN8firebase9firestore5model11SetMutation3RepE",
            "__ZTSN8firebase9firestore6remote10GrpcStreamE",
            "__ZTVN8firebase9firestore3api35SnapshotsInSyncListenerRegistrationE",
            "__ZTVN8firebase9firestore5local18MemoryIndexManagerE",
            "__ZN8firebase9firestore6remote24FirebaseMetadataProvider29kXFirebaseClientLogTypeHeaderE",
            "__ZN8firebase9firestore40google_firestore_v1_ListenRequest_fieldsE",
            "__ZN8firebase9firestore24google_rpc_Status_fieldsE",
            "__ZTVN8firebase9firestore4core19KeyFieldNotInFilter3RepE",
            "__ZTSN8firebase9firestore5local26MemoryDocumentOverlayCacheE",
            "__ZN8firebase9firestore49google_firestore_v1_Target_DocumentsTarget_fieldsE",
            "__ZTSN8firebase9firestore6remote11WatchStreamE",
            "__ZN8firebase9firestore51google_firestore_v1_BeginTransactionResponse_fieldsE",
            "__ZN8firebase9firestore54google_firestore_v1_TransactionOptions_ReadOnly_fieldsE",
            "__ZN8firebase9firestore55google_firestore_v1_TransactionOptions_ReadWrite_fieldsE",
            "__ZTIN8firebase9firestore5model13PatchMutation3RepE",
            "__ZTVN8firebase9firestore5local17MemoryTargetCacheE",
            "__ZTVN8firebase9firestore6remote11WriteStreamE",
            "__ZTVN8firebase9firestore5local26LevelDbRemoteDocumentCacheE",
            "__ZN8firebase9firestore34google_protobuf_StringValue_fieldsE",
            "__ZN8firebase9firestore4core9Direction10DescendingE",
            "__ZN8firebase9firestore71google_firestore_v1_StructuredAggregationQuery_Aggregation_Count_fieldsE",
            "__ZN8firebase9firestore35google_api_ResourceReference_fieldsE",
            "__ZN8firebase9firestore69google_firestore_v1_StructuredAggregationQuery_Aggregation_Avg_fieldsE",
            "__ZTSN8firebase9firestore5local18LocalDocumentsViewE",
            "__ZTSN8firebase9firestore6remote11RemoteStoreE",
            "__ZN8firebase9firestore4core9Direction9AscendingE",
            "__ZTSN8firebase9firestore3api35SnapshotsInSyncListenerRegistrationE",
            "__ZTVN8firebase9firestore4util15ByteStreamAppleE",
            "__ZN8firebase9firestore48google_firestore_v1_UpdateDocumentRequest_fieldsE",
            "__ZN8firebase9firestore40firestore_BundledDocumentMetadata_fieldsE",
            "_FIRFirestoreErrorDomain",
            "__ZTVN8firebase9firestore3api14AggregateQueryE",
            "__ZTVN8firebase9firestore6remote11RemoteStoreE",
            "__ZN8firebase9firestore47google_firestore_v1_ListDocumentsRequest_fieldsE",
            "__ZTVN8firebase9firestore6remote19GrpcStreamingReaderE",
            "__ZN8firebase9firestore5model9FieldPath16kDocumentKeyPathE",
            "__ZTIN8firebase9firestore6remote16ByteBufferReaderE",
            "__ZTIN8firebase9firestore5model14ArrayTransform3RepE",
            "__ZTIN8firebase9firestore5local26MemoryDocumentOverlayCacheE",
            "_FirebaseFirestoreInternalVersionNumber",
            "__ZTVN8firebase9firestore5local20LevelDbMutationQueueE",
            "__ZN8firebase9firestore48google_firestore_v1_DeleteDocumentRequest_fieldsE",
            "__ZTSN8firebase9firestore5local27LevelDbLruReferenceDelegateE",
            "__ZN8firebase9firestore51google_firestore_v1_ListCollectionIdsRequest_fieldsE",
            "__ZN8firebase9firestore43google_firestore_v1_RunQueryResponse_fieldsE",
            "__ZN8firebase9firestore44google_firestore_v1_DocumentTransform_fieldsE",
            "__ZN8firebase9firestore6remote24FirebaseMetadataProvider21kXFirebaseGmpIdHeaderE",
            "__ZN8firebase9firestore42google_firestore_v1_ExistenceFilter_fieldsE",
            "__ZTSN8firebase9firestore5model8Mutation3RepE",
            "__ZTIN8firebase9firestore6remote29FirebaseMetadataProviderAppleE",
            "__ZN8firebase9firestore34firestore_client_WriteBatch_fieldsE",
            "__ZTIN8firebase9firestore5local19MemoryMutationQueueE",
            "__ZN8firebase9firestore34google_protobuf_UInt32Value_fieldsE",
            "__ZN8firebase9firestore44google_firestore_v1_AggregationResult_fieldsE",
            "__ZN8firebase9firestore3api8Settings21MinimumCacheSizeBytesE",
            "__ZN8firebase9firestore41google_protobuf_Struct_FieldsEntry_fieldsE",
            "__ZTVN8firebase9firestore3api23PersistentCacheSettingsE",
            "__ZTVN8firebase9firestore3api19MemoryCacheSettingsE",
            "__ZN8firebase9firestore47google_firestore_v1_MapValue_FieldsEntry_fieldsE",
            "__ZTSN8firebase9firestore5local30LevelDbOverlayMigrationManagerE",
            "__ZN8firebase9firestore36firestore_client_TargetGlobal_fieldsE",
            "__ZTVN8firebase9firestore5local25MemoryRemoteDocumentCacheE",
            "__ZTIN8firebase9firestore4core16KeyFieldInFilter3RepE",
            "__ZTVN8firebase9firestore4core19ArrayContainsFilter3RepE",
            "__ZTVN8firebase9firestore4core12EventManagerE",
            "__ZTIN8firebase9firestore6nanopb12StringReaderE",
            "__ZN8firebase9firestore41google_firestore_v1_DocumentChange_fieldsE",
            "__ZTVN8firebase9firestore5local27LevelDbLruReferenceDelegateE",
            "__ZTIN8firebase9firestore4util15ByteStreamAppleE",
            "__ZTIN8firebase9firestore4core13QueryListenerE",
            "__ZTSN8firebase9firestore4core19ArrayContainsFilter3RepE",
            "__ZTVN8firebase9firestore4core16KeyFieldInFilter3RepE",
            "__ZTSN8firebase9firestore6remote6StreamE",
            "__ZTSN8firebase9firestore5local18LevelDbPersistenceE",
            "__ZN8firebase9firestore32google_firestore_v1_Write_fieldsE",
            "__ZTVN8firebase9firestore4util10FilesystemE",
            "__ZTVN8firebase9firestore6remote11WatchStreamE",
            "__ZN8firebase9firestore33google_protobuf_FloatValue_fieldsE",
            "__ZTVN8firebase9firestore5local26MemoryLruReferenceDelegateE",
            "__ZTVN8firebase9firestore5local19LevelDbIndexManagerE",
            "__ZN8firebase9firestore50google_firestore_v1_BeginTransactionRequest_fieldsE",
            "__ZN8firebase9firestore34firestore_client_NoDocument_fieldsE",
            "__ZN8firebase9firestore25google_type_LatLng_fieldsE",
            "__ZN8firebase9firestore57google_firestore_v1_StructuredQuery_FieldReference_fieldsE",
            "__ZTSN8firebase9firestore5model14ArrayTransform3RepE",
            "__ZTVN8firebase9firestore4core8InFilter3RepE",
            "__ZTIN8firebase9firestore5local27LevelDbDocumentOverlayCacheE",
            "__ZTSN8firebase9firestore4core11FieldFilter3RepE",
            "__ZTIN8firebase9firestore4util10FilesystemE",
            "__ZTIN8firebase9firestore5local26MemoryLruReferenceDelegateE",
            "__ZN8firebase9firestore52google_firestore_v1_ListCollectionIdsResponse_fieldsE",
            "__ZTVN8firebase9firestore3api21MemoryEagerGcSettingsE",
            "__ZN8firebase9firestore9immutable13SortedMapBase10kFixedSizeE",
            "__ZTIN8firebase9firestore5local19LevelDbIndexManagerE",
            "__ZTSN8firebase9firestore5local18LevelDbTargetCacheE",
            "__ZTVN8firebase9firestore5model14ArrayTransform3RepE",
            "__ZTIN8firebase9firestore4core11NotInFilter3RepE",
            "__ZTVN8firebase9firestore5local10ProtoSizerE",
            "__ZTSN8firebase9firestore4core8InFilter3RepE",
            "__ZTIN8firebase9firestore4core19ArrayContainsFilter3RepE",
            "__ZN8firebase9firestore4util4Path4nposE",
            "__ZTSN8firebase9firestore3api25QueryListenerRegistrationE",
            "__ZTSN8firebase9firestore5local18MemoryIndexManagerE",
            "__ZN8firebase9firestore48google_firestore_v1_CreateDocumentRequest_fieldsE",
            "__ZTSN8firebase9firestore5local26LevelDbRemoteDocumentCacheE",
            "__ZTSN8firebase9firestore5local17MemoryTargetCacheE",
            "__ZN8firebase9firestore38google_firestore_admin_v1_Index_fieldsE",
            "__ZN8firebase9firestore41google_firestore_v1_DocumentDelete_fieldsE",
            "__ZN8firebase9firestore29google_protobuf_Struct_fieldsE",
            "__ZTSN8firebase9firestore4util19ExecutorLibdispatchE",
            "__ZTVN8firebase9firestore5local11QueryEngineE",
            "__ZN8firebase9firestore6remote37grpc_root_certificates_generated_dataE",
            "__ZTSN8firebase9firestore6remote16ByteBufferReaderE",
            "__ZTIN8firebase9firestore6remote9DatastoreE",
            "__ZTSN8firebase9firestore4core22ArrayContainsAnyFilter3RepE",
            "__ZTVN8firebase9firestore5model8Mutation3RepE",
            "__ZTIN8firebase9firestore3api35SnapshotsInSyncListenerRegistrationE",
            "__ZN8firebase9firestore53google_firestore_v1_RunAggregationQueryRequest_fieldsE",
            "__ZTIN8firebase9firestore5local18LevelDbBundleCacheE",
            "__ZTSN8firebase9firestore6remote9DatastoreE",
            "__ZN8firebase9firestore37google_firestore_v1_ArrayValue_fieldsE",
            "__ZTVN8firebase9firestore5local26MemoryDocumentOverlayCacheE",
            "__ZTSN8firebase9firestore4core14KeyFieldFilter3RepE",
            "__ZTVN8firebase9firestore11credentials35FirebaseAppCheckCredentialsProviderE",
            "__ZN8firebase9firestore33google_protobuf_Int32Value_fieldsE",
            "__ZN8firebase9firestore49google_firestore_admin_v1_Index_IndexField_fieldsE",
            "__ZTSN8firebase9firestore5local10LocalStoreE",
            "__ZN8firebase9firestore38google_firestore_v1_BitSequence_fieldsE",
            "__ZTSN8firebase9firestore4util4TaskE",
            "__ZTIN8firebase9firestore4core10SyncEngineE",
            "__ZTSN8firebase9firestore6remote13GrpcUnaryCallE",
            "__ZN8firebase9firestore9immutable15SortedContainer4nposE",
            "__ZTIN8firebase9firestore4core8InFilter3RepE",
            "__ZTVN8firebase9firestore6remote29FirebaseMetadataProviderAppleE",
            "__ZTVN8firebase9firestore5model11SetMutation3RepE",
            "__ZTIN8firebase9firestore3api23PersistentCacheSettingsE",
            "__ZN8firebase9firestore28google_protobuf_Empty_fieldsE",
            "__ZTVN8firebase9firestore5local18LevelDbBundleCacheE",
            "__ZN8firebase9firestore32google_protobuf_BoolValue_fieldsE",
            "__ZTVN8firebase9firestore5model14VerifyMutation3RepE",
            "__ZN8firebase9firestore6remote14roots_filenameE",
            "__ZTSN8firebase9firestore11credentials31FirebaseAuthCredentialsProviderE",
            "__ZN8firebase9firestore69google_firestore_v1_StructuredAggregationQuery_Aggregation_Sum_fieldsE",
            "__ZN8firebase9firestore6remote24FirebaseMetadataProvider22kXFirebaseClientHeaderE",
            "__ZTIN8firebase9firestore5local17MemoryPersistenceE",
            "__ZTVN8firebase9firestore5local20DocumentOverlayCacheE",
            "__ZN8firebase9firestore26google_protobuf_Any_fieldsE",
            "__ZTIN8firebase9firestore4core22ArrayContainsAnyFilter3RepE",
            "__ZTIN8firebase9firestore6remote11WatchStreamE",
            "__ZN8firebase9firestore30firestore_client_Target_fieldsE",
            "__ZTVN8firebase9firestore5model13PatchMutation3RepE",
            "__ZN8firebase9firestore33google_protobuf_Int64Value_fieldsE",
            "__ZTVN8firebase9firestore5local17MemoryBundleCacheE",
            "__ZN8firebase9firestore38google_firestore_v1_BloomFilter_fieldsE",
            "__ZN8firebase9firestore42google_firestore_v1_StructuredQuery_fieldsE",
            "__ZN8firebase9firestore45google_firestore_v1_Target_QueryTarget_fieldsE",
            "__ZTIN8firebase9firestore5local20LevelDbMutationQueueE",
            "__ZN8firebase9firestore34google_protobuf_UInt64Value_fieldsE",
            "__ZN8firebase9firestore33google_firestore_v1_Target_fieldsE",
            "__ZN8firebase9firestore3api8Settings17DefaultSslEnabledE",
            "__ZTVN8firebase9firestore6remote9DatastoreE",
            "__ZN8firebase9firestore3api8Settings21DefaultCacheSizeBytesE",
            "__ZTIN8firebase9firestore6remote6StreamE",
            "__ZN8firebase9firestore59google_firestore_v1_DocumentTransform_FieldTransform_fieldsE",
            "__ZTIN8firebase9firestore5model14VerifyMutation3RepE",
            "__ZTIN8firebase9firestore4core15CompositeFilter3RepE",
            "__ZN8firebase9firestore54google_firestore_v1_RunAggregationQueryResponse_fieldsE",
            "__ZN8firebase9firestore39firestore_client_UnknownDocument_fieldsE",
            "__ZTVN8firebase9firestore3api19MemoryLruGcSettingsE",
            "__ZTIN8firebase9firestore5local26LevelDbRemoteDocumentCacheE",
            "__ZTIN8firebase9firestore6remote13GrpcUnaryCallE",
            "__ZTSN8firebase9firestore5local26MemoryLruReferenceDelegateE",
            "__ZN8firebase9firestore36google_api_ResourceDescriptor_fieldsE",
            "__ZTVN8firebase9firestore5local17MemoryPersistenceE",
            "__ZTIN8firebase9firestore4core19KeyFieldNotInFilter3RepE",
            "__ZN8firebase9firestore39google_firestore_v1_WriteRequest_fieldsE",
            "__ZTIN8firebase9firestore5local20DocumentOverlayCacheE",
            "__ZN8firebase9firestore45google_firestore_v1_GetDocumentRequest_fieldsE",
            "__ZTIN8firebase9firestore5local10LocalStoreE",
            "__ZTIN8firebase9firestore5local11QueryEngineE",
            "__ZTSN8firebase9firestore4core12EventManagerE",
            "__ZTSN8firebase9firestore5model14DeleteMutation3RepE",
            "__ZTVN8firebase9firestore4core10SyncEngineE",
            "__ZTSN8firebase9firestore4core10SyncEngineE",
            "_FirebaseFirestoreInternalVersionString",
            "__ZN8firebase9firestore61google_firestore_v1_StructuredQuery_CollectionSelector_fieldsE",
            "__ZTVN8firebase9firestore5local30LevelDbOverlayMigrationManagerE",
            "__ZTIN8firebase9firestore6remote11RemoteStoreE",
            "__ZN8firebase9firestore33google_firestore_v1_Cursor_fieldsE",
            "__ZTVN8firebase9firestore4util4TaskE",
            "__ZTVN8firebase9firestore5model25NumericIncrementTransform3RepE",
            "__ZN8firebase9firestore41google_firestore_v1_ListenResponse_fieldsE",
            "__ZTIN8firebase9firestore3api21MemoryEagerGcSettingsE",
            "_kFIRFirestoreCacheSizeUnlimited",
            "__ZN8firebase9firestore3api30kDefaultTransactionMaxAttemptsE",
            "__ZTIN8firebase9firestore3api14AggregateQueryE",
            "__ZTSN8firebase9firestore5local10ProtoSizerE",
            "__ZTSN8firebase9firestore6remote11WriteStreamE",
            "__ZTVN8firebase9firestore6remote16ByteBufferReaderE",
            "__ZN8firebase9firestore32google_firestore_v1_Value_fieldsE",
            "__ZTVN8firebase9firestore4util19ExecutorLibdispatchE",
            "__ZTVN8firebase9firestore11credentials31FirebaseAuthCredentialsProviderE",
            "__ZN8firebase9firestore39google_firestore_v1_Precondition_fieldsE",
            "__ZTVN8firebase9firestore4core13QueryListenerE",
            "__ZN8firebase9firestore47google_firestore_v1_Document_FieldsEntry_fieldsE",
            "__ZTSN8firebase9firestore5local18LevelDbBundleCacheE",
            "__ZTIN8firebase9firestore4util13ByteStreamCppE",
            "__ZTSN8firebase9firestore4util10FilesystemE",
            "__ZTIN8firebase9firestore4util4TaskE",
            "__ZN8firebase9firestore34google_protobuf_DoubleValue_fieldsE",
            "__ZTIN8firebase9firestore5local18LevelDbTargetCacheE",
            "__ZN8firebase9firestore5model10DatabaseId8kDefaultE",
            "__ZTVN8firebase9firestore5local19MemoryMutationQueueE",
            "__ZTVN8firebase9firestore4util11ExecutorStdE",
            "__ZTSN8firebase9firestore6remote19GrpcStreamingReaderE",
            "__ZTVN8firebase9firestore5local18LevelDbTargetCacheE",
            "__ZTVN8firebase9firestore3api25QueryListenerRegistrationE",
            "__ZN8firebase9firestore54google_firestore_v1_StructuredQuery_FieldFilter_fieldsE",
            "__ZN8firebase9firestore49google_firestore_v1_StructuredQuery_Filter_fieldsE",
            "__ZN8firebase9firestore42google_firestore_v1_RollbackRequest_fieldsE",
            "__ZN8firebase9firestore33google_protobuf_BytesValue_fieldsE",
            "__ZTVN8firebase9firestore4core11NotInFilter3RepE",
            "__ZTIN8firebase9firestore5model14DeleteMutation3RepE",
            "__ZN8firebase9firestore26google_api_HttpRule_fieldsE",
            "__ZTIN8firebase9firestore5local25MemoryRemoteDocumentCacheE",
            "__ZTVN8firebase9firestore5local18LocalDocumentsViewE",
            "__ZN8firebase9firestore22google_api_Http_fieldsE",
            "__ZN8firebase9firestore23kFirestoreVersionStringE",
            "__ZN8firebase9firestore35google_firestore_v1_MapValue_fieldsE",
            "__ZTSN8firebase9firestore6nanopb12StringReaderE",
            "__ZN8firebase9firestore48google_firestore_v1_ListDocumentsResponse_fieldsE",
            "__ZN8firebase9firestore3api8Settings25DefaultPersistenceEnabledE",
            "__ZTIN8firebase9firestore5local18MemoryIndexManagerE",
            "__ZTVN8firebase9firestore4core14KeyFieldFilter3RepE",
            "__ZTVN8firebase9firestore5local28MemoryEagerReferenceDelegateE",
            "__ZTSN8firebase9firestore5model25NumericIncrementTransform3RepE",
            "__ZTIN8firebase9firestore5model8Mutation3RepE",
            "__ZTIN8firebase9firestore5local17MemoryBundleCacheE",
            "__ZTIN8firebase9firestore5local28MemoryEagerReferenceDelegateE",
            "__ZTVN8firebase9firestore6remote6StreamE",
            "__ZN8firebase9firestore31firestore_BundleMetadata_fieldsE",
            "__ZN8firebase9firestore35google_api_CustomHttpPattern_fieldsE",
            "__ZTVN8firebase9firestore5model14DeleteMutation3RepE",
            "__ZTSN8firebase9firestore3api14AggregateQueryE",
            "__ZTVN8firebase9firestore5local18LevelDbPersistenceE",
            "__ZTIN8firebase9firestore5local30LevelDbOverlayMigrationManagerE",
            "__ZTSN8firebase9firestore4core19KeyFieldNotInFilter3RepE",
            "__ZTIN8firebase9firestore5model25NumericIncrementTransform3RepE",
            "__ZTIN8firebase9firestore5local17MemoryTargetCacheE",
            "__ZN8firebase9firestore3api8Settings11DefaultHostE",
            "__ZTSN8firebase9firestore4core11NotInFilter3RepE",
            "__ZTSN8firebase9firestore4core16KeyFieldInFilter3RepE",
            "__ZN8firebase9firestore54google_firestore_v1_StructuredQuery_UnaryFilter_fieldsE",
            "__ZTSN8firebase9firestore6remote29FirebaseMetadataProviderAppleE",
            "__ZTIN8firebase9firestore5local18LevelDbPersistenceE",
            "__ZTIN8firebase9firestore4util19ExecutorLibdispatchE",
            "__ZN8firebase9firestore39google_firestore_v1_TargetChange_fieldsE",
            "__ZTSN8firebase9firestore5local25MemoryRemoteDocumentCacheE",
            "__ZTIN8firebase9firestore5local10ProtoSizerE",
            "__ZTSN8firebase9firestore5local17MemoryPersistenceE",
            "__ZTIN8firebase9firestore4core11FieldFilter3RepE",
            "__ZTSN8firebase9firestore5model14VerifyMutation3RepE",
            "__ZTIN8firebase9firestore4core14KeyFieldFilter3RepE",
            "__ZTIN8firebase9firestore3api19MemoryLruGcSettingsE",
            "__ZN8firebase9firestore27firestore_NamedQuery_fieldsE",
            "__ZN8firebase9firestore45google_firestore_v1_TransactionOptions_fieldsE",
            "__ZTSN8firebase9firestore5local19MemoryMutationQueueE",
            "__ZN8firebase9firestore5local28kListenSequenceNumberInvalidE",
            "__ZTSN8firebase9firestore5local11QueryEngineE",
            "__ZTSN8firebase9firestore4util15ByteStreamAppleE",
            "__ZN8firebase9firestore30firestore_BundleElement_fieldsE",
            "__ZTIN8firebase9firestore4util11ExecutorStdE",
            "__ZN8firebase9firestore51google_firestore_v1_WriteRequest_LabelsEntry_fieldsE",
            "__ZTSN8firebase9firestore4util11ExecutorStdE",
            "__ZTVN8firebase9firestore4core11FieldFilter3RepE",
            "__ZTSN8firebase9firestore5local17MemoryBundleCacheE",
            "__ZTSN8firebase9firestore5local20DocumentOverlayCacheE"
          ],
          "objc_class": [
            "FIRDocumentReference",
            "FIRMemoryLRUGCSettings",
            "FSTCompositeFilter",
            "FIRAggregateQuerySnapshot",
            "FIRMemoryCacheSettings",
            "PodsDummy_FirebaseFirestoreInternal",
            "FSTSumAggregateField",
            "FSTServerTimestampFieldValue",
            "FIRFirestore",
            "FIRFilter",
            "FSTNumericIncrementFieldValue",
            "FIRPersistentCacheIndexManager",
            "FIRCollectionReference",
            "FSTArrayRemoveFieldValue",
            "FIRAggregateQuery",
            "FSTListenerRegistration",
            "FSTUserDataReader",
            "FIRWriteBatch",
            "FIRSnapshotListenOptions",
            "FSTCountAggregateField",
            "FIRLoadBundleTask",
            "FIRSnapshotMetadata",
            "FIRFirestoreSettings",
            "FSTDeleteFieldValue",
            "FIRDocumentChange",
            "FIRQuerySnapshot",
            "FIRDocumentSnapshot",
            "FSTUnaryFilter",
            "FIRQuery",
            "FIRFieldValue",
            "FIRTransactionOptions",
            "FIRTimestamp",
            "FSTAverageAggregateField",
            "FIRPersistentCacheSettings",
            "FIRTransaction",
            "FSTUserDataWriter",
            "FIRQueryDocumentSnapshot",
            "FIRLoadBundleTaskProgress",
            "FIRGeoPoint",
            "FIRFieldPath",
            "FIRAggregateField",
            "FSTDocumentKeyReference",
            "FIRMemoryEagerGCSettings",
            "FSTArrayUnionFieldValue",
            "FSTFirestoreComponent"
          ],
          "weak": [
            "__ZN8nlohmann6detail12static_constINS0_10to_json_fnEE5valueE",
            "__ZN8nlohmann6detail12static_constINS0_12from_json_fnEE5valueE",
            "__ZN4absl12lts_2024011639AbslInternalInlineVariableHoldernulloptIvE9kInstanceE",
            "__ZN4absl12lts_2024011640AbslInternalInlineVariableHolderin_placeIvE9kInstanceE"
          ]
        },
        "text": {
          "global": [
            "__ZN8firebase9firestore4core10SyncEngine6ListenENS1_5QueryEb",
            "__ZN8firebase9firestore5local23LevelDbMutationQueueKey6DecodeEN4absl12lts_2024011611string_viewE",
            "__ZNK8firebase9firestore39_google_firestore_v1_GetDocumentRequest8ToStringEi",
            "__ZN8firebase9firestore5local17MemoryPersistence26GetOverlayMigrationManagerERKNS0_11credentials4UserE",
            "__ZN8firebase9firestore3api19MemoryCacheSettingsC1ERKS2_",
            "__ZN8firebase9firestore11credentials9AuthToken15UnauthenticatedEv",
            "__ZNK8firebase9firestore6remote10Serializer17DecodeFieldFilterEPNS0_4util11ReadContextERNS0_48_google_firestore_v1_StructuredQuery_FieldFilterE",
            "__ZN8firebase9firestore5modellsERNSt3__113basic_ostreamIcNS2_11char_traitsIcEEEERKNS1_7OverlayE",
            "__ZN8firebase9firestore5model13PatchMutationC1ENS1_11DocumentKeyENS1_11ObjectValueENS1_9FieldMaskENS1_12PreconditionE",
            "__ZN8firebase9firestore5model25NumericIncrementTransformC1ENS0_6nanopb7MessageINS0_26_google_firestore_v1_ValueEEE",
            "__ZN8firebase9firestore5local18LevelDbTargetCache9AddTargetERKNS1_10TargetDataE",
            "__ZN8firebase9firestore4core12EventManager23HandleOnlineStateChangeENS0_5model11OnlineStateE",
            "__ZN8firebase9firestore5local17MemoryPersistence12bundle_cacheEv",
            "__ZN8firebase9firestore5local20LevelDbMutationQueue14MetadataForKeyERKNSt3__112basic_stringIcNS3_11char_traitsIcEENS3_9allocatorIcEEEE",
            "__ZThn8_N8firebase9firestore4core10SyncEngine19ListenToRemoteStoreENS1_5QueryE",
            "__ZN8firebase9firestore4core11Transaction14WriteMutationsEONSt3__16vectorINS0_5model8MutationENS3_9allocatorIS6_EEEE",
            "__ZN8firebase9firestore3apieqERKNS1_13QuerySnapshotES4_",
            "__ZN8firebase9firestore4core10SyncEngine32InitializeViewAndComputeSnapshotERKNS1_5QueryEiNS0_6nanopb10ByteStringE",
            "__ZN8firebase9firestore4core19ViewDocumentChangesC1ENS0_5model11DocumentSetENS1_21DocumentViewChangeSetENS0_9immutable9SortedSetINS3_11DocumentKeyENS0_4util10ComparatorIS8_EEEEb",
            "__ZNK8firebase9firestore4util4Path10AppendUtf8EN4absl12lts_2024011611string_viewE",
            "__ZN8firebase9firestore6remote10GrpcStreamD2Ev",
            "__ZN8firebase9firestore6remote10GrpcStream5WriteEON4grpc10ByteBufferE",
            "__ZN8firebase9firestore5local19LevelDbIndexManager16DeleteIndexEntryERKNS0_5model8DocumentERKNS3_10FieldIndexERKNS0_5index10IndexEntryE",
            "__ZNK8firebase9firestore4core6Target13GetLowerBoundERKNS0_5model10FieldIndexE",
            "__ZN8firebase9firestore5local16LevelDbBundleKey9KeyPrefixEv",
            "__ZN8firebase9firestore5local20LevelDbMutationQueue19RemoveMutationBatchERKNS0_5model13MutationBatchE",
            "__ZNK8firebase9firestore6remote10Serializer19IsLocalResourceNameERKNS0_5model12ResourcePathE",
            "__ZNK8firebase9firestore5local15IndexBackfiller12GetNewOffsetERKNS0_5model11IndexOffsetERKNS1_16LocalWriteResultE",
            "__ZNK8firebase9firestore4core21DocumentViewChangeSet8ToStringEv",
            "__ZN8firebase9firestore5local23LevelDbMutationQueueKey9KeyPrefixEv",
            "__ZN8firebase9firestore5local18MemoryIndexManager18UpdateIndexEntriesERKNS0_9immutable9SortedMapINS0_5model11DocumentKeyENS5_8DocumentENS0_4util10ComparatorIS6_EEEE",
            "__ZN8firebase9firestore5model21EncodeServerTimestampERKNS_9TimestampEN4absl12lts_202401168optionalINS0_26_google_firestore_v1_ValueEEE",
            "__ZNK8firebase9firestore5local15LocalSerializer13EncodeVersionERKNS0_5model15SnapshotVersionE",
            "__ZNK8firebase9firestore5model25NumericIncrementTransform3Rep15OperandAsDoubleEv",
            "__ZN8firebase9firestore4core17TransactionRunner14ContinueCommitERKNSt3__110shared_ptrINS1_11TransactionEEENS0_4util6StatusE",
            "__ZN8firebase9firestore4util10LogicUtils16ApplyAssociationERKNS0_4core6FilterE",
            "__ZNK8firebase9firestore26_google_protobuf_ListValue8ToStringEi",
            "__ZN8firebase9firestore5model13PatchMutation3RepC1EONS1_11DocumentKeyEONS1_11ObjectValueEONS1_9FieldMaskEONS1_12PreconditionEONSt3__16vectorINS1_14FieldTransformENSC_9allocatorISE_EEEE",
            "__ZN8firebase9firestore4util11ExecutorStd12OnCompletionEPNS1_4TaskE",
            "__ZN8firebase9firestore4core11Transaction6LookupERKNSt3__16vectorINS0_5model11DocumentKeyENS3_9allocatorIS6_EEEEONS3_8functionIFvRKNS0_4util8StatusOrINS4_INS5_8DocumentENS7_ISF_EEEEEEEEE",
            "__ZNK8firebase9firestore5model14FieldTransform8ToStringEv",
            "__ZNK8firebase9firestore6remote10Serializer20DecodeMutationResultEPNS0_4util11ReadContextERNS0_32_google_firestore_v1_WriteResultERKNS0_5model15SnapshotVersionE",
            "__ZNK8firebase9firestore6remote21WatchChangeAggregator14IsActiveTargetEi",
            "__ZN8firebase9firestore5model11ObjectValue12FromMapValueENS0_6nanopb7MessageINS0_29_google_firestore_v1_MapValueEEE",
            "__ZN8firebase9firestore4core12ViewSnapshotC2ENS1_5QueryENS0_5model11DocumentSetES5_NSt3__16vectorINS1_18DocumentViewChangeENS6_9allocatorIS8_EEEENS0_9immutable9SortedSetINS4_11DocumentKeyENS0_4util10ComparatorISE_EEEEbbbb",
            "__ZN8firebase9firestore12EnumToStringENS0_49_google_firestore_admin_v1_Index_IndexField_OrderE",
            "__ZN8firebase9firestore4util10LogicUtils17ApplyDistributionEONS0_4core11FieldFilterES5_",
            "__ZNK8firebase9firestore46_google_firestore_v1_ListCollectionIdsResponse8ToStringEi",
            "__ZN8firebase9firestore5local10TargetDataC2ENS0_4core6TargetEixNS1_12QueryPurposeENS0_5model15SnapshotVersionES7_NS0_6nanopb10ByteStringEN4absl12lts_202401168optionalIiEE",
            "__ZN8firebase9firestore4util4Task5AwaitEv",
            "__ZNK8firebase9firestore3api19CollectionReference6parentEv",
            "__ZN8firebase9firestore5local27LevelDbDocumentOverlayCache13DeleteOverlayERKNS0_5model11DocumentKeyE",
            "__ZNK8firebase9firestore6remote10Serializer18DecodeTargetChangeEPNS0_4util11ReadContextERKNS0_33_google_firestore_v1_TargetChangeE",
            "__ZN8firebase9firestore5local26MemoryLruReferenceDelegate26EnumerateOrphanedDocumentsERKNSt3__18functionIFvRKNS0_5model11DocumentKeyExEEE",
            "__ZNK8firebase9firestore6bundle16BundleSerializer10DecodeNameERNS0_4util10JsonReaderERKN8nlohmann10basic_jsonINSt3__13mapENS8_6vectorENS8_12basic_stringIcNS8_11char_traitsIcEENS8_9allocatorIcEEEEbxydSE_NS6_14adl_serializerENSA_IhNSE_IhEEEEEE",
            "__ZN8firebase9firestore4util10LogMessageENS1_8LogLevelERKNSt3__112basic_stringIcNS3_11char_traitsIcEENS3_9allocatorIcEEEE",
            "__ZN8firebase9firestore4util8StrErrorEi",
            "__ZNK8firebase9firestore5model9FieldMask8ToStringEv",
            "__ZN8firebase9firestore4util10JsonReader12DecodeDoubleERKN8nlohmann10basic_jsonINSt3__13mapENS5_6vectorENS5_12basic_stringIcNS5_11char_traitsIcEENS5_9allocatorIcEEEEbxydSB_NS3_14adl_serializerENS7_IhNSB_IhEEEEEE",
            "__ZN8firebase9firestore5local25MemoryRemoteDocumentCache6RemoveERKNS0_5model11DocumentKeyE",
            "__ZNK8firebase9firestore6remote10Serializer18EncodeDatabaseNameEv",
            "__ZNK8firebase9firestore3api27PersistentCacheIndexManager24DisableIndexAutoCreationEv",
            "__ZN8firebase9firestore4util11ExecutorStdD2Ev",
            "__ZN8firebase9firestore6remote14GrpcConnection27RegisterConnectivityMonitorEv",
            "__ZN8firebase9firestore5local23LevelDbDataMigrationKey6DecodeEN4absl12lts_2024011611string_viewE",
            "__ZN8firebase9firestore4util10LogicUtils17ApplyDistributionEONS0_4core15CompositeFilterES5_",
            "__ZN8firebase9firestore4util19ExecutorLibdispatch10InvokeSyncEPv",
            "__ZNK8firebase9firestore5model11ObjectValue8ToStringEv",
            "__ZNK8firebase9firestore24_firestore_BundleElement8ToStringEi",
            "__ZN8firebase9firestore4util10LogicUtils17ApplyDistributionEONS0_4core11FieldFilterEONS3_15CompositeFilterE",
            "__ZNK8firebase9firestore4util19ExecutorLibdispatch13IsIdScheduledEj",
            "__ZN8firebase9firestore3api9Firestore10LoadBundleENSt3__110unique_ptrINS0_4util10ByteStreamENS3_14default_deleteIS6_EEEE",
            "__ZN8firebase9firestore4util11OrderedCode13WriteInfinityEPNSt3__112basic_stringIcNS3_11char_traitsIcEENS3_9allocatorIcEEEE",
            "__ZN8firebase9firestore6remote19GrpcStreamingReader5StartEmONSt3__18functionIFvNS3_6vectorIN4grpc10ByteBufferENS3_9allocatorIS7_EEEEEEEONS4_IFvRKNS0_4util6StatusEbEEE",
            "__ZN8firebase9firestore3api35SnapshotsInSyncListenerRegistrationC1ENSt3__110shared_ptrINS0_4core15FirestoreClientEEENS4_INS5_18AsyncEventListenerINS0_4util5EmptyEEEEE",
            "__ZN8firebase9firestore5model15MutableDocument24SetHasCommittedMutationsEv",
            "__ZN8firebase9firestore5local27LevelDbLruReferenceDelegate13WriteSentinelERKNS0_5model11DocumentKeyE",
            "__ZN8firebase9firestore4util11OrderedCode20ReadStringDecreasingEPN4absl12lts_2024011611string_viewEPNSt3__112basic_stringIcNS7_11char_traitsIcEENS7_9allocatorIcEEEE",
            "__ZN8firebase9firestore5model9FieldPath9EmptyPathEv",
            "__ZN8firebase9firestore4core10SyncEngine10LoadBundleENSt3__110shared_ptrINS0_6bundle12BundleReaderEEENS4_INS0_3api14LoadBundleTaskEEE",
            "__ZN8firebase9firestore4core22ArrayContainsAnyFilterC1ERKNS0_5model9FieldPathENS0_6nanopb13SharedMessageINS0_26_google_firestore_v1_ValueEEE",
            "__ZN8firebase9firestore5model11IndexOffset15DocumentCompareERKNS1_8DocumentES5_",
            "__ZN8firebase9firestore4corelsERNSt3__113basic_ostreamIcNS2_11char_traitsIcEEEERKNS1_12ViewSnapshotE",
            "__ZN8firebase9firestore3apieqERKNS1_16DocumentSnapshotES4_",
            "__ZN8firebase9firestore6remoteeqERKNS1_12TargetChangeES4_",
            "__ZN8firebase9firestore5local12ReferenceSet14ReferencedKeysEi",
            "__ZNK8firebase9firestore6bundle16BundleSerializer16DecodeNamedQueryERNS0_4util10JsonReaderERKN8nlohmann10basic_jsonINSt3__13mapENS8_6vectorENS8_12basic_stringIcNS8_11char_traitsIcEENS8_9allocatorIcEEEEbxydSE_NS6_14adl_serializerENSA_IhNSE_IhEEEEEE",
            "__ZNK8firebase9firestore6remote10Serializer24EncodeUnaryOrFieldFilterERKNS0_4core11FieldFilterE",
            "__ZNK8firebase9firestore5model15SnapshotVersion8ToStringEv",
            "__ZN8firebase9firestore4util19ExecutorLibdispatch12NextIdLockedEv",
            "__ZNK8firebase9firestore29_google_api_ResourceReference8ToStringEi",
            "__ZN8firebase9firestore6nanopb10ByteStringC2EN4absl12lts_2024011611string_viewE",
            "__ZN8firebase9firestore3apineERKNS1_18LocalCacheSettingsES4_",
            "__ZN8firebase9firestore5modellsERNSt3__113basic_ostreamIcNS2_11char_traitsIcEEEENS1_15MutableDocument12DocumentTypeE",
            "__ZN8firebase9firestore4util10Filesystem18ExcludeFromBackupsERKNS1_4PathE",
            "__ZN8firebase9firestore4core13QueryListener17RaiseInitialEventERKNS1_12ViewSnapshotE",
            "__ZN8firebase9firestore5local24LevelDbDocumentTargetKey19EncodeSentinelValueEx",
            "__ZN8firebase9firestore5local27LevelDbLruReferenceDelegate23RemoveMutationReferenceERKNS0_5model11DocumentKeyE",
            "__ZN8firebase9firestore5model18TransformOperationC2ENSt3__110shared_ptrIKNS2_3RepEEE",
            "__ZN8firebase9firestore6remote19DatastoreSerializerC1ERKNS0_4core12DatabaseInfoE",
            "__ZN8firebase9firestore5modellsERNSt3__113basic_ostreamIcNS2_11char_traitsIcEEEERKNS1_19MutationBatchResultE",
            "__ZN8firebase9firestore5local10LocalStore21GetRemoteDocumentKeysEi",
            "__ZN8firebase9firestore6nanopb12StringReaderC2ERKNS1_10ByteStringE",
            "__ZN8firebase9firestore6remote14GrpcCompletion6CancelEv",
            "__ZNK8firebase9firestore6remote21WriteStreamSerializer19DecodeCommitVersionEPNS0_6nanopb6ReaderERKNS0_34_google_firestore_v1_WriteResponseE",
            "__ZN8firebase9firestore5local21LevelDbQueryTargetKey9KeyPrefixEv",
            "__ZNK8firebase9firestore6remote21WatchStreamSerializer18EncodeWatchRequestERKNS0_5local10TargetDataE",
            "__ZN8firebase9firestore5local13LevelDbOpener14PrepareDataDirEv",
            "__ZN8firebase9firestore11credentials35FirebaseAppCheckCredentialsProviderD2Ev",
            "__ZN8firebase9firestore4core12EventManagerC1EPNS1_16QueryEventSourceE",
            "__ZN8firebase9firestore4core15FirestoreClient10LoadBundleENSt3__110unique_ptrINS0_4util10ByteStreamENS3_14default_deleteIS6_EEEENS3_10shared_ptrINS0_3api14LoadBundleTaskEEE",
            "__ZN8firebase9firestore6remote14GrpcConnection8RegisterEPNS1_8GrpcCallE",
            "__ZN8firebase9firestore6remote9Datastore15LookupDocumentsERKNSt3__16vectorINS0_5model11DocumentKeyENS3_9allocatorIS6_EEEEONS3_8functionIFvRKNS0_4util8StatusOrINS4_INS5_8DocumentENS7_ISF_EEEEEEEEE",
            "__ZNK8firebase9firestore4core6Target14GetNotInValuesERKNS0_5model10FieldIndexE",
            "__ZNK8firebase9firestore4core11FieldFilter3Rep17MatchesComparisonENS0_4util16ComparisonResultE",
            "__ZN8firebase9firestore6remote14GrpcConnection8ShutdownEv",
            "__ZNK8firebase9firestore5model8Mutation3Rep16VerifyKeyMatchesERKNS1_15MutableDocumentE",
            "__ZN8firebase9firestore5localeqERKNS1_10TargetDataES4_",
            "__ZNK8firebase9firestore31_google_firestore_v1_ArrayValue8ToStringEi",
            "__ZN8firebase9firestore5local19LevelDbIndexManager12GetIndexTypeERKNS0_4core6TargetE",
            "__ZN8firebase9firestore3api16DocumentSnapshotC1ENSt3__110shared_ptrINS1_9FirestoreEEENS0_5model11DocumentKeyEN4absl12lts_202401168optionalINS7_8DocumentEEENS1_16SnapshotMetadataE",
            "__ZN8firebase9firestore4core19ArrayContainsFilterC1ERKNS0_5model9FieldPathENS0_6nanopb13SharedMessageINS0_26_google_firestore_v1_ValueEEE",
            "__ZNK8firebase9firestore6remote10Serializer29DecodeCompositeFilterOperatorEPNS0_4util11ReadContextENS0_61_google_firestore_v1_StructuredQuery_CompositeFilter_OperatorE",
            "__ZNK8firebase9firestore3api17DocumentReference22GetCollectionReferenceERKNSt3__112basic_stringIcNS3_11char_traitsIcEENS3_9allocatorIcEEEE",
            "__ZNK8firebase9firestore6remote21WriteStreamSerializer24EncodeEmptyMutationsListERKNS0_6nanopb10ByteStringE",
            "__ZNK8firebase9firestore5local18MemoryIndexManager15GetFieldIndexesEv",
            "__ZN8firebase9firestore4util10AsyncQueue15EnqueueBlockingERKNSt3__18functionIFvvEEE",
            "__ZN8firebase9firestore6remote18ExponentialBackoff13BackoffAndRunEONSt3__18functionIFvvEEE",
            "__ZNK8firebase9firestore26_google_protobuf_Timestamp8ToStringEi",
            "__ZNK8firebase9firestore6remote21WatchStreamSerializer21DecodeSnapshotVersionEPNS0_6nanopb6ReaderERKNS0_35_google_firestore_v1_ListenResponseE",
            "__ZNK8firebase9firestore5model25NumericIncrementTransform3Rep16ApplyToLocalViewERKN4absl12lts_202401168optionalINS0_26_google_firestore_v1_ValueEEERKNS_9TimestampE",
            "__ZNK8firebase9firestore5local25MemoryRemoteDocumentCache3GetERKNS0_5model11DocumentKeyE",
            "__ZNK8firebase9firestore5model18TargetIndexMatcher13ServedByIndexERKNS1_10FieldIndexE",
            "__ZN8firebase9firestore5local28MemoryEagerReferenceDelegate15AddInMemoryPinsEPNS1_12ReferenceSetE",
            "__ZN8firebase9firestore5local18LevelDbTargetCache24EnumerateSequenceNumbersERKNSt3__18functionIFvxEEE",
            "__ZN8firebase9firestore6remote11TargetState20RemoveDocumentChangeERKNS0_5model11DocumentKeyE",
            "__ZN8firebase9firestore6bundle12BundleReader14GetNextElementEv",
            "__ZN8firebase9firestore5model14DeleteMutationC1ENS1_11DocumentKeyENS1_12PreconditionE",
            "__ZN8firebase9firestore4core15FirestoreClientC1ERKNS1_12DatabaseInfoENSt3__110shared_ptrINS0_11credentials19CredentialsProviderINS8_9AuthTokenENS8_4UserEEEEENS7_INS9_INS6_12basic_stringIcNS6_11char_traitsIcEENS6_9allocatorIcEEEESJ_EEEENS7_INS0_4util8ExecutorEEENS7_INSM_10AsyncQueueEEENS6_10unique_ptrINS0_6remote24FirebaseMetadataProviderENS6_14default_deleteIST_EEEE",
            "__ZN8firebase9firestore5local17MemoryTargetCache27RemoveMatchingKeysForTargetEi",
            "__ZNK8firebase9firestore3api13QuerySnapshot13ForEachChangeEbRKNSt3__18functionIFvNS1_14DocumentChangeEEEE",
            "__ZNK8firebase9firestore28_google_protobuf_UInt64Value8ToStringEi",
            "__ZNK8firebase9firestore6remote14GrpcConnection13CreateContextERKNS0_11credentials9AuthTokenERKNSt3__112basic_stringIcNS7_11char_traitsIcEENS7_9allocatorIcEEEE",
            "__ZN8firebase9firestore5local27LevelDbLruReferenceDelegate20OnTransactionStartedEN4absl12lts_2024011611string_viewE",
            "__ZN8firebase9firestore4coreeqERKNS1_6FilterES4_",
            "__ZNK8firebase9firestore6remote10Serializer21DecodeExistenceFilterERKNS0_36_google_firestore_v1_ExistenceFilterE",
            "__ZNK8firebase9firestore4core16ParseAccumulator8ContainsERKNS0_5model9FieldPathE",
            "__ZN8firebase9firestore6remote19ConnectivityMonitor6CreateERKNSt3__110shared_ptrINS0_4util10AsyncQueueEEE",
            "__ZN8firebase9firestore11credentials31FirebaseAuthCredentialsProviderC1EP6FIRAppPU25objcproto14FIRAuthInterop11objc_object",
            "__ZN8firebase9firestore6remote6Stream18RequestCredentialsEv",
            "__ZNK8firebase9firestore5model12Precondition4HashEv",
            "__ZN8firebase9firestore4util11OrderedCode18WriteNumIncreasingEPNSt3__112basic_stringIcNS3_11char_traitsIcEENS3_9allocatorIcEEEEy",
            "__ZNK8firebase9firestore5model13MutationBatch20ApplyToLocalDocumentERNS1_15MutableDocumentE",
            "__ZN8firebase9firestore6remote10GrpcStream15MaybeUnregisterEv",
            "__ZNK8firebase9firestore6nanopb10ByteString4dataEv",
            "__ZN8firebase9firestore4util10Filesystem8FileSizeERKNS1_4PathE",
            "__ZN8firebase9firestore4util15BackgroundQueue8AwaitAllEv",
            "__ZNK8firebase9firestore5local18LevelDbTransaction8Iterator3keyEv",
            "__ZN8firebase9firestore4util4Path20MutableAppendSegmentEPKcm",
            "__ZN8firebase9firestore4core17TransactionRunner14DispatchResultERKNSt3__110shared_ptrINS1_11TransactionEEENS0_4util6StatusE",
            "__ZN8firebase9firestore5model13PatchMutationC2ENS1_11DocumentKeyENS1_11ObjectValueENS1_9FieldMaskENS1_12PreconditionENSt3__16vectorINS1_14FieldTransformENS7_9allocatorIS9_EEEE",
            "__ZN8firebase9firestore5model10SortFieldsERNS0_26_google_firestore_v1_ValueE",
            "__ZNK8firebase9firestore5model10DatabaseId4HashEv",
            "__ZNK8firebase9firestore6bundle16BundleSerializer21DecodeCompositeFilterERNS0_4util10JsonReaderERKN8nlohmann10basic_jsonINSt3__13mapENS8_6vectorENS8_12basic_stringIcNS8_11char_traitsIcEENS8_9allocatorIcEEEEbxydSE_NS6_14adl_serializerENSA_IhNSE_IhEEEEEE",
            "__ZN8firebase9firestore5local19MemoryMutationQueue7IsEmptyEv",
            "__ZN8firebase9firestore5model11SetMutationC1ENS1_11DocumentKeyENS1_11ObjectValueENS1_12PreconditionENSt3__16vectorINS1_14FieldTransformENS6_9allocatorIS8_EEEE",
            "__ZN8firebase9firestore5local30LevelDbOverlayMigrationManager26HasPendingOverlayMigrationEv",
            "__ZN8firebase9firestore6remote10GrpcStreamD0Ev",
            "__ZNK8firebase9firestore5model14MutationResult8ToStringEv",
            "__ZN8firebase9firestore5local24LevelDbRemoteDocumentKey9KeyPrefixEv",
            "__ZN8firebase9firestore5local19LevelDbIndexManager13GetSubTargetsERKNS0_4core6TargetE",
            "__ZN8firebase9firestore5local19LevelDbIndexManager26GetDocumentsMatchingTargetERKNS0_4core6TargetE",
            "__ZNK8firebase9firestore5local11QueryEngine25GetDocumentsMatchingQueryERKNS0_4core5QueryERKNS0_5model15SnapshotVersionERKNS0_9immutable9SortedSetINS7_11DocumentKeyENS0_4util10ComparatorISD_EEEE",
            "__ZN8firebase9firestore5local27LevelDbLruReferenceDelegate24MutationQueuesContainKeyERKNS0_5model11DocumentKeyE",
            "__ZN8firebase9firestore4util18CalculateMd5DigestEN4absl12lts_2024011611string_viewE",
            "__ZN8firebase9firestore4util8Executor16CreateConcurrentEPKci",
            "__ZN8firebase9firestore5model11SetMutationC2ENS1_11DocumentKeyENS1_11ObjectValueENS1_12PreconditionE",
            "__ZNK8firebase9firestore4core10SyncEngine13GetRemoteKeysEi",
            "__ZN8firebase9firestore6remote19GrpcStreamingReader14OnStreamFinishERKNS0_4util6StatusE",
            "__ZN8firebase9firestore5modeleqERKNS1_14MutationResultES4_",
            "__ZNK8firebase9firestore5model7Segment9CompareToERKS2_",
            "__ZNK8firebase9firestore6remote10Serializer18EncodeResourceNameERKNS0_5model10DatabaseIdERKNS3_12ResourcePathE",
            "__ZN8firebase9firestore4core12ParseContext12ChildContextERKNSt3__112basic_stringIcNS3_11char_traitsIcEENS3_9allocatorIcEEEE",
            "__ZN8firebase9firestore6remote10GrpcStreamC2ENSt3__110unique_ptrIN4grpc13ClientContextENS3_14default_deleteIS6_EEEENS4_INS5_23ClientAsyncReaderWriterINS5_10ByteBufferESB_EENS7_ISC_EEEERKNS3_10shared_ptrINS0_4util10AsyncQueueEEEPNS1_14GrpcConnectionEPNS1_18GrpcStreamObserverE",
            "__ZN8firebase9firestore6remote18ExponentialBackoffC1ERKNSt3__110shared_ptrINS0_4util10AsyncQueueEEENS5_7TimerIdEdNS3_6chrono8durationIxNS3_5ratioILl1ELl1000EEEEESF_",
            "__ZN8firebase9firestore6remote14GrpcCompletionC1ENS2_4TypeERKNSt3__110shared_ptrINS0_4util10AsyncQueueEEEONS4_8functionIFvbRKNS5_IS2_EEEEE",
            "__ZN8firebase9firestore3api17DocumentReferenceC2ENS0_5model12ResourcePathENSt3__110shared_ptrINS1_9FirestoreEEE",
            "__ZN8firebase9firestore5model11IndexOffset15CreateSuccessorENS1_15SnapshotVersionE",
            "__ZN8firebase9firestore4util11EmptyStringEv",
            "__ZN8firebase9firestore6remote21WatchChangeAggregator18HandleTargetChangeERKNS1_17WatchTargetChangeE",
            "__ZNK8firebase9firestore6bundle16BundleSerializer16DecodeEndAtBoundERNS0_4util10JsonReaderERKN8nlohmann10basic_jsonINSt3__13mapENS8_6vectorENS8_12basic_stringIcNS8_11char_traitsIcEENS8_9allocatorIcEEEEbxydSE_NS6_14adl_serializerENSA_IhNSE_IhEEEEEE",
            "__ZN8firebase9firestore6remote14GrpcConnection18UseInsecureChannelERKNSt3__112basic_stringIcNS3_11char_traitsIcEENS3_9allocatorIcEEEE",
            "__ZNK8firebase9firestore5local25MemoryRemoteDocumentCache6GetAllERKNSt3__112basic_stringIcNS3_11char_traitsIcEENS3_9allocatorIcEEEERKNS0_5model11IndexOffsetEm",
            "__ZN8firebase9firestore6remote10Serializer15DecodeFieldPathEPNS0_4util11ReadContextEPK16pb_bytes_array_s",
            "__ZN8firebase9firestore5local19LevelDbIndexManager23GetExistingIndexEntriesERKNS0_5model11DocumentKeyERKNS3_10FieldIndexE",
            "__ZNK8firebase9firestore5local20DocumentOverlayCache11GetOverlaysERNSt3__113unordered_mapINS0_5model11DocumentKeyENS5_7OverlayENS5_15DocumentKeyHashENS3_8equal_toIS6_EENS3_9allocatorINS3_4pairIKS6_S7_EEEEEERKNS3_3setIS6_NS3_4lessIS6_EENSB_IS6_EEEE",
            "__ZNK8firebase9firestore3api5Query7OrderByENS0_5model9FieldPathENS0_4core9DirectionE",
            "__ZN8firebase9firestore6remote9Datastore14RemoveGrpcCallEPNS1_8GrpcCallE",
            "__ZNK8firebase9firestore39_google_firestore_v1_TransactionOptions8ToStringEi",
            "__ZNK8firebase9firestore6remote10Serializer19DecodeFoundDocumentEPNS0_4util11ReadContextERNS0_46_google_firestore_v1_BatchGetDocumentsResponseE",
            "__ZNK8firebase9firestore6remote11RemoteStore13GetDatabaseIdEv",
            "__ZN8firebase9firestore4core15CompositeFilterC1EONSt3__110shared_ptrIKNS1_6Filter3RepEEE",
            "__ZN8firebase9firestore4util10JsonReader14RequiredStringEPKcRKN8nlohmann10basic_jsonINSt3__13mapENS7_6vectorENS7_12basic_stringIcNS7_11char_traitsIcEENS7_9allocatorIcEEEEbxydSD_NS5_14adl_serializerENS9_IhNSD_IhEEEEEE",
            "__ZN8firebase9firestore4util19ExecutorLibdispatchD1Ev",
            "__ZN8firebase9firestore6remote9Datastore15CommitMutationsERKNSt3__16vectorINS0_5model8MutationENS3_9allocatorIS6_EEEEONS3_8functionIFvRKNS0_4util6StatusEEEE",
            "__ZNK8firebase9firestore3api17DocumentReference4PathEv",
            "__ZN8firebase9firestore5model18TargetIndexMatcherC1ERKNS0_4core6TargetE",
            "__ZN8firebase9firestore6remote13GrpcUnaryCall5StartEONSt3__18functionIFvRKNS0_4util8StatusOrIN4grpc10ByteBufferEEEEEE",
            "__ZN8firebase9firestore4util10LogicUtils19IsSingleFieldFilterERKNS0_4core6FilterE",
            "__ZN8firebase9firestore6remote11RemoteStore22HandleCredentialChangeEv",
            "__ZN8firebase9firestore6remote10Serializer18DecodePreconditionEPNS0_4util11ReadContextERKNS0_33_google_firestore_v1_PreconditionE",
            "__ZN8firebase9firestore6remote11RemoteStore13StopListeningEi",
            "__ZN8firebase9firestore4util10AsyncQueue20SkipDelaysForTimerIdENS1_7TimerIdE",
            "__ZN8firebase9firestore4corelsERNSt3__113basic_ostreamIcNS2_11char_traitsIcEEEERKNS1_5BoundE",
            "__ZN8firebase9firestore6remote11RemoteStore17FillWritePipelineEv",
            "__ZNK8firebase9firestore34_google_firestore_v1_WriteResponse8ToStringEi",
            "__ZN8firebase9firestore5local18LevelDbTargetCache26EnumerateOrphanedDocumentsERKNSt3__18functionIFvRKNS0_5model11DocumentKeyExEEE",
            "__ZN8firebase9firestore4core16KeyFieldInFilterC2ERKNS0_5model9FieldPathENS0_6nanopb13SharedMessageINS0_26_google_firestore_v1_ValueEEE",
            "__ZN8firebase9firestore6remote11RemoteStore14DisableNetworkEv",
            "__ZN8firebase9firestore4core13QueryListener7OnErrorENS0_4util6StatusE",
            "__ZN8firebase9firestore5local16LocalViewChanges16FromViewSnapshotERKNS0_4core12ViewSnapshotEi",
            "__ZN8firebase9firestore6nanopb16ByteStringWriterD2Ev",
            "__ZN8firebase9firestore5local18LevelDbPersistence26GetOverlayMigrationManagerERKNS0_11credentials4UserE",
            "__ZN8firebase9firestore5local20LevelDbIndexEntryKey6DecodeEN4absl12lts_2024011611string_viewE",
            "__ZNK8firebase9firestore36_google_firestore_v1_RollbackRequest8ToStringEi",
            "__ZN8firebase9firestore11credentials4UserC2ENSt3__112basic_stringIcNS3_11char_traitsIcEENS3_9allocatorIcEEEE",
            "__ZN8firebase9firestore5local25MemoryRemoteDocumentCache17CalculateByteSizeERKNS1_5SizerE",
            "__ZN8firebase9firestore6nanopb10ByteStringC2EOS2_",
            "__ZNK8firebase9firestore6remote10Serializer20DecodeDocumentChangeEPNS0_4util11ReadContextERNS0_35_google_firestore_v1_DocumentChangeE",
            "__ZThn8_N8firebase9firestore6remote11RemoteStore17OnWatchStreamOpenEv",
            "__ZN8firebase9firestore5model15MutableDocument24ConvertToUnknownDocumentERKNS1_15SnapshotVersionE",
            "__ZNK8firebase9firestore6remote10Serializer14EncodeMutationERKNS0_5model8MutationE",
            "__ZNK8firebase9firestore24_firestore_client_Target8ToStringEi",
            "__ZN8firebase9firestore5model9FieldPath20FromServerFormatViewEN4absl12lts_2024011611string_viewE",
            "__ZN8firebase9firestore3apineERKNS1_19MemoryLruGcSettingsES4_",
            "__ZN8firebase9firestore6remote10GrpcStreamC1ENSt3__110unique_ptrIN4grpc13ClientContextENS3_14default_deleteIS6_EEEENS4_INS5_23ClientAsyncReaderWriterINS5_10ByteBufferESB_EENS7_ISC_EEEERKNS3_10shared_ptrINS0_4util10AsyncQueueEEEPNS1_14GrpcConnectionEPNS1_18GrpcStreamObserverE",
            "__ZN8firebase9firestore4core11NotInFilterC1ERKNS0_5model9FieldPathENS0_6nanopb13SharedMessageINS0_26_google_firestore_v1_ValueEEE",
            "__ZNK8firebase9firestore4core14KeyFieldFilter3Rep7MatchesERKNS0_5model8DocumentE",
            "__ZN8firebase9firestore5local10LocalStoreC1EPNS1_11PersistenceEPNS1_11QueryEngineERKNS0_11credentials4UserE",
            "__ZN8firebase9firestore6remote11RemoteStore27OnWriteStreamMutationResultENS0_5model15SnapshotVersionENSt3__16vectorINS3_14MutationResultENS5_9allocatorIS7_EEEE",
            "__ZN8firebase9firestore6remote14GrpcCompletion6CreateENS2_4TypeERKNSt3__110shared_ptrINS0_4util10AsyncQueueEEEONS4_8functionIFvbRKNS5_IS2_EEEEE",
            "__ZN8firebase9firestore5model17CanonifyTimestampERKNS0_26_google_firestore_v1_ValueE",
            "__ZN8firebase9firestore3api13MakeTimestampEP6NSDate",
            "__ZN8firebase9firestore6remote11WatchStream8TearDownEPNS1_10GrpcStreamE",
            "__ZN8firebase9firestore5model12PreconditionC2ENS2_4TypeENS1_15SnapshotVersionEb",
            "__ZN8firebase9firestore5model16CompareGeoPointsERKNS0_26_google_firestore_v1_ValueES4_",
            "__ZThn8_N8firebase9firestore4core10SyncEngine13StopListeningERKNS1_5QueryEb",
            "__ZNK8firebase9firestore4util10AsyncQueue10is_runningEv",
            "__ZN8firebase9firestore4core11NotInFilterC2ERKNS0_5model9FieldPathENS0_6nanopb13SharedMessageINS0_26_google_firestore_v1_ValueEEE",
            "__ZNK8firebase9firestore5model12Precondition8ToStringEv",
            "__ZN8firebase9firestore5local12ReferenceSet12AddReferenceERKNS0_5model11DocumentKeyEi",
            "__ZN8firebase9firestore6nanopb8internal8ToStringEf",
            "__ZN8firebase9firestore4core10SyncEngine19HandleRejectedWriteEiNS0_4util6StatusE",
            "__ZN8firebase9firestore5local10LocalStore12WriteLocallyEONSt3__16vectorINS0_5model8MutationENS3_9allocatorIS6_EEEE",
            "__ZNK8firebase9firestore5local10ProtoSizer17CalculateByteSizeERKNS1_10TargetDataE",
            "__ZN8firebase17TimestampInternal17FromUntrustedTimeEN4absl12lts_202401164TimeE",
            "__ZNK8firebase9firestore5model7Overlay4HashEv",
            "__ZNK8firebase9firestore5model13MutationBatch4keysEv",
            "__ZThn8_N8firebase9firestore4core10SyncEngine6ListenENS1_5QueryEb",
            "__ZN8firebase9firestore6remote11WatchStream10WatchQueryERKNS0_5local10TargetDataE",
            "__ZN8firebase9firestore4util8Schedule13ExtractLockedENSt3__116__deque_iteratorIPNS1_4TaskEPS6_RS6_PS7_lLl512EEE",
            "__ZN8firebase9firestore5local18LevelDbPersistence12bundle_cacheEv",
            "__ZN8firebase9firestore12EnumToStringENS0_33_firestore_BundledQuery_LimitTypeE",
            "__ZNK8firebase9firestore6remote10Serializer17DecodeUnaryFilterEPNS0_4util11ReadContextERKNS0_48_google_firestore_v1_StructuredQuery_UnaryFilterE",
            "__ZN8firebase9firestore4core10SyncEngineC2EPNS0_5local10LocalStoreEPNS0_6remote11RemoteStoreERKNS0_11credentials4UserEm",
            "__ZN8firebase9firestore11credentials4UserC1ENSt3__112basic_stringIcNS3_11char_traitsIcEENS3_9allocatorIcEEEE",
            "__ZN8firebase9firestore5local22LevelDbTargetGlobalKey6DecodeEN7leveldb5SliceE",
            "__ZN8firebase9firestore5local24LevelDbRemoteDocumentKey6DecodeEN4absl12lts_2024011611string_viewE",
            "__ZN8firebase9firestore5model17CompareReferencesERKNS0_26_google_firestore_v1_ValueES4_",
            "__ZN8firebase9firestore5local25LevelDbDocumentOverlayKey9KeyPrefixEN4absl12lts_2024011611string_viewERKNS0_5model11DocumentKeyE",
            "__ZNK8firebase9firestore6remote21WatchChangeAggregator25TargetDataForActiveTargetEi",
            "__ZN8firebase9firestore5local17LevelDbMigrations13RunMigrationsEPN7leveldb2DBEiRKNS1_15LocalSerializerE",
            "__ZN8firebase9firestore5local19LevelDbIndexManager19EncodeSingleElementERKNS0_26_google_firestore_v1_ValueE",
            "__ZN8firebase9firestore3api9FirestoreC1ENS0_5model10DatabaseIdENSt3__112basic_stringIcNS5_11char_traitsIcEENS5_9allocatorIcEEEENS5_10shared_ptrINS0_11credentials19CredentialsProviderINSD_9AuthTokenENSD_4UserEEEEENSC_INSE_ISB_SB_EEEENSC_INS0_4util10AsyncQueueEEENS5_10unique_ptrINS0_6remote24FirebaseMetadataProviderENS5_14default_deleteISQ_EEEEPv",
            "__ZN8firebase9firestore5model15SnapshotVersionC2ERKNS_9TimestampE",
            "__ZN8firebase9firestore4util10DoubleBitsEd",
            "__ZNK8firebase9firestore6remote10Serializer13DecodeFiltersEPNS0_4util11ReadContextERNS0_43_google_firestore_v1_StructuredQuery_FilterE",
            "__ZN8firebase9firestore3api35SnapshotsInSyncListenerRegistrationC2ENSt3__110shared_ptrINS0_4core15FirestoreClientEEENS4_INS5_18AsyncEventListenerINS0_4util5EmptyEEEEE",
            "__ZNK8firebase9firestore5local11QueryEngine22PerformQueryUsingIndexERKNS0_4core5QueryE",
            "__ZN8firebase9firestore6remoteeqERKNS1_11WatchChangeES4_",
            "__ZN8firebase9firestore6remote6Stream8MarkIdleEv",
            "__ZN8firebase9firestore6nanopb16ByteStringWriter7ReleaseEv",
            "__ZN8firebase9firestore11credentials9AuthTokenC1Ev",
            "__ZNK8firebase9firestore5model18TargetIndexMatcher25HasMatchingEqualityFilterERKNS1_7SegmentE",
            "__ZN8firebase17TimestampInternal8TruncateERKNS_9TimestampE",
            "__ZN8firebase9firestore5model11DocumentKey12FromSegmentsESt16initializer_listINSt3__112basic_stringIcNS4_11char_traitsIcEENS4_9allocatorIcEEEEE",
            "__ZN8firebase9firestore6remote21WriteStreamSerializerC2ENS1_10SerializerE",
            "__ZN8firebase9firestore5locallsERNSt3__113basic_ostreamIcNS2_11char_traitsIcEEEERKNS1_10TargetDataE",
            "__ZN8firebase9firestore6remote14GrpcConnection21CreateStreamingReaderEN4absl12lts_2024011611string_viewERKNS0_11credentials9AuthTokenERKNSt3__112basic_stringIcNSA_11char_traitsIcEENSA_9allocatorIcEEEERKN4grpc10ByteBufferE",
            "__ZNK8firebase9firestore4core15CompositeFilter3Rep7MatchesERKNS0_5model8DocumentE",
            "__ZNK8firebase9firestore6remote18ExponentialBackoff10ClampDelayENSt3__16chrono8durationIxNS3_5ratioILl1ELl1000EEEEE",
            "__ZN8firebase9firestore5local10LocalStoreD2Ev",
            "__ZN8firebase9firestore5local18LevelDbPersistence23GetDocumentOverlayCacheERKNS0_11credentials4UserE",
            "__ZNK8firebase9firestore4core6Target13GetUpperBoundERKNS0_5model10FieldIndexE",
            "__ZNK8firebase9firestore5model11DocumentSet15GetLastDocumentEv",
            "__ZN8firebase9firestore6remote13GrpcUnaryCallC1ENSt3__110unique_ptrIN4grpc13ClientContextENS3_14default_deleteIS6_EEEENS4_INS5_25ClientAsyncResponseReaderINS5_10ByteBufferEEENS7_ISC_EEEERKNS3_10shared_ptrINS0_4util10AsyncQueueEEEPNS1_14GrpcConnectionERKSB_",
            "__ZN8firebase9firestore5local18LevelDbBundleCache14SaveNamedQueryERKNS0_6bundle10NamedQueryE",
            "__ZN8firebase9firestore5model15MutableDocument19ConvertToNoDocumentERKNS1_15SnapshotVersionE",
            "__ZN8firebase9firestore6remote29FirebaseMetadataProviderAppleC2EP6FIRApp",
            "__ZN8firebase9firestore5local18LevelDbPersistence18reference_delegateEv",
            "__ZNK8firebase9firestore5model13PatchMutation3Rep8GetPatchEv",
            "__ZN8firebase9firestore5local26MemoryLruReferenceDelegate12AddReferenceERKNS0_5model11DocumentKeyE",
            "__ZN8firebase9firestore11credentials35FirebaseAppCheckCredentialsProviderD1Ev",
            "__ZN8firebase9firestore5local28MemoryEagerReferenceDelegate12RemoveTargetERKNS1_10TargetDataE",
            "__ZNK8firebase9firestore5model11DocumentSet6insertERKN4absl12lts_202401168optionalINS1_8DocumentEEE",
            "__ZN8firebase9firestore5local24LevelDbTargetDocumentKey3KeyEiRKNS0_5model11DocumentKeyE",
            "__ZN8firebase9firestore4util10LogicUtils18ComputeInExpansionERKNS0_4core6FilterE",
            "__ZNK8firebase9firestore5model14DeleteMutation3Rep16ApplyToLocalViewERNS1_15MutableDocumentEN4absl12lts_202401168optionalINS1_9FieldMaskEEERKNS_9TimestampE",
            "__ZNK8firebase9firestore6nanopb10ByteString4HashEv",
            "__ZN8firebase9firestore3api15MakeFIRGeoPointERKNS0_8GeoPointE",
            "__ZNK8firebase9firestore6remote10Serializer14DecodeOrderBysEPNS0_4util11ReadContextEPNS0_42_google_firestore_v1_StructuredQuery_OrderEj",
            "__ZN8firebase9firestore4util11OrderedCode21WriteDoubleIncreasingEPNSt3__112basic_stringIcNS3_11char_traitsIcEENS3_9allocatorIcEEEEd",
            "__ZNK8firebase9firestore5local26LevelDbRemoteDocumentCache19DecodeMaybeDocumentEN4absl12lts_2024011611string_viewERKNS0_5model11DocumentKeyE",
            "__ZNK8firebase9firestore3api23PersistentCacheSettings13WithSizeBytesEx",
            "__ZN8firebase9firestore4util11ExecutorStd15PopFromScheduleEv",
            "__ZN8firebase9firestore3api9Firestore26AddSnapshotsInSyncListenerENSt3__110unique_ptrINS0_4core13EventListenerINS0_4util5EmptyEEENS3_14default_deleteIS9_EEEE",
            "__ZN8firebase9firestore4util4Task6CreateEPNS1_8ExecutorEONSt3__18functionIFvvEEE",
            "__ZN8firebase9firestore5local18LevelDbTransaction6CommitEv",
            "__ZN8firebase9firestore3api25QueryListenerRegistrationC1ENSt3__110shared_ptrINS0_4core15FirestoreClientEEENS4_INS5_18AsyncEventListenerINS5_12ViewSnapshotEEEEENS4_INS5_13QueryListenerEEE",
            "__ZN8firebase9firestore6nanopb16ByteStringWriter7SetSizeEm",
            "__ZNK8firebase9firestore31_firestore_client_MaybeDocument8ToStringEi",
            "__ZN8firebase9firestore5local19LruGarbageCollector13RemoveTargetsExRKNSt3__113unordered_mapIiNS1_10TargetDataENS3_4hashIiEENS3_8equal_toIiEENS3_9allocatorINS3_4pairIKiS5_EEEEEE",
            "__ZN8firebase9firestore4util4Task6CreateEPNS1_8ExecutorENSt3__16chrono10time_pointINS6_12steady_clockENS6_8durationIxNS5_5ratioILl1ELl1000EEEEEEEijONS5_8functionIFvvEEE",
            "__ZN8firebase9firestore5local19LevelDbIndexManager21DeleteFromUpdateQueueEPNS0_5model10FieldIndexE",
            "__ZN8firebase9firestore5local15IndexBackfillerC1Ev",
            "__ZN8firebase9firestore5model15MutableDocument22ConvertToFoundDocumentERKNS1_15SnapshotVersionENS1_11ObjectValueE",
            "__ZN8firebase9firestore3api19MemoryCacheSettingsaSERKS2_",
            "__ZNK8firebase9firestore5local11QueryEngine18CreateCacheIndexesERKNS0_4core5QueryERKNS1_12QueryContextEm",
            "__ZN8firebase9firestore6remote14GrpcConnectionC2ERKNS0_4core12DatabaseInfoERKNSt3__110shared_ptrINS0_4util10AsyncQueueEEEPN4grpc15CompletionQueueEPNS1_19ConnectivityMonitorEPNS1_24FirebaseMetadataProviderE",
            "__ZN8firebase9firestore5model14MapValueEqualsERKNS0_29_google_firestore_v1_MapValueES4_",
            "__ZN8firebase9firestore3api14LoadBundleTask18RemoveAllObserversEv",
            "__ZN8firebase9firestore4util19DoubleBitwiseEqualsEdd",
            "__ZN8firebase9firestore11credentials31FirebaseAuthCredentialsProviderD1Ev",
            "__ZN8firebase9firestore6nanopb10ByteStringC1EOS2_",
            "__ZN8firebase9firestore5model11DocumentKeyC2Ev",
            "__ZN8firebase9firestore5model8Mutation3RepC2EONS1_11DocumentKeyEONS1_12PreconditionEONSt3__16vectorINS1_14FieldTransformENS8_9allocatorISA_EEEE",
            "__ZN8firebase9firestore6remote14GrpcCompletion17EnsureValidFutureEv",
            "__ZNK8firebase9firestore6remote11RemoteStore13CanUseNetworkEv",
            "__ZNK8firebase9firestore4util4Path7DirnameEv",
            "__ZNK8firebase9firestore6remote19DatastoreSerializer19EncodeCommitRequestERKNSt3__16vectorINS0_5model8MutationENS3_9allocatorIS6_EEEE",
            "__ZN8firebase9firestore5model14CompareStringsERKNS0_26_google_firestore_v1_ValueES4_",
            "__ZN8firebase9firestore4util19ExecutorLibdispatchC2EPU28objcproto17OS_dispatch_queue8NSObject",
            "__ZNK8firebase9firestore5local11QueryEngine10ApplyQueryERKNS0_4core5QueryERKNS0_9immutable9SortedMapINS0_5model11DocumentKeyENS9_8DocumentENS0_4util10ComparatorISA_EEEE",
            "__ZNK8firebase9firestore5local26MemoryLruReferenceDelegate24MutationQueuesContainKeyERKNS0_5model11DocumentKeyE",
            "__ZN8firebase9firestore6remote11WriteStream21set_last_stream_tokenENS0_6nanopb10ByteStringE",
            "__ZN8firebase9firestore6remote6Stream4StopEv",
            "__ZN8firebase9firestore5model10IsMaxValueERKNS0_26_google_firestore_v1_ValueE",
            "__ZNK8firebase9firestore4util4Path12ToUtf8StringEv",
            "__ZNK8firebase9firestore5model13PatchMutation3Rep4HashEv",
            "__ZThn8_N8firebase9firestore4core10SyncEngine30StopListeningToRemoteStoreOnlyERKNS1_5QueryE",
            "__ZNK8firebase9firestore6remote10Serializer14DecodeMutationEPNS0_4util11ReadContextERNS0_26_google_firestore_v1_WriteE",
            "__ZN8firebase9firestore4util12TestingHooks25OnExistenceFilterMismatchENSt3__18functionIFvRKNS2_27ExistenceFilterMismatchInfoEEEE",
            "__ZN8firebase9firestore6remote6Stream5StartEv",
            "__ZNK8firebase9firestore5model15MutableDocument8ToStringEv",
            "__ZN8firebase9firestore5local10LocalStore18SetLastStreamTokenERKNS0_6nanopb10ByteStringE",
            "__ZN8firebase9firestore4core15CompositeFilterC1ERKNS1_6FilterE",
            "__ZN8firebase9firestore5local13LevelDbOpenerC2ENS0_4core12DatabaseInfoEPNS0_4util10FilesystemE",
            "__ZN8firebase9firestore5local18LevelDbTargetCache12RemoveTargetERKNS1_10TargetDataE",
            "__ZN8firebase9firestore5modellsERNSt3__113basic_ostreamIcNS2_11char_traitsIcEEEERKNS1_15MutableDocumentE",
            "__ZN8firebase9firestore5local18LevelDbPersistenceD2Ev",
            "__ZN8firebase9firestore4core16KeyFieldInFilter28ExtractDocumentKeysFromValueERKNS0_26_google_firestore_v1_ValueE",
            "__ZNK8firebase9firestore3api19CollectionReference4HashEv",
            "__ZN8firebase9firestore5model11ObjectValue3SetERKNS1_9FieldPathENS0_6nanopb7MessageINS0_26_google_firestore_v1_ValueEEE",
            "__ZN8firebase9firestore5local22LevelDbTargetGlobalKey3KeyEv",
            "__ZN8firebase9firestore5local17MemoryTargetCache8ContainsERKNS0_5model11DocumentKeyE",
            "__ZN8firebase9firestore6remote10Serializer13EncodeVersionERKNS0_5model15SnapshotVersionE",
            "__ZN8firebase9firestore6remote11RemoteStore16StartWriteStreamEv",
            "__ZN8firebase9firestore6remote11RemoteStore17RunAggregateQueryERKNS0_4core5QueryERKNSt3__16vectorINS0_5model14AggregateFieldENS7_9allocatorISA_EEEEONS7_8functionIFvRKNS0_4util8StatusOrINS9_11ObjectValueEEEEEE",
            "__ZN8firebase9firestore5local20LevelDbIndexStateKey9KeyPrefixEN4absl12lts_2024011611string_viewE",
            "__ZNK8firebase9firestore6remote10Serializer20EncodeFieldTransformERKNS0_5model14FieldTransformE",
            "__ZN8firebase9firestore4util15PrefixSuccessorEN4absl12lts_2024011611string_viewE",
            "__ZN8firebase9firestore5local30LevelDbOverlayMigrationManager3RunEv",
            "__ZN8firebase9firestore5local20LevelDbMutationQueue18AllMutationBatchesEv",
            "__ZN8firebase9firestore5model25NumericIncrementTransformC1ERKNS1_18TransformOperationE",
            "__ZN8firebase9firestore6remote21WatchChangeAggregator11ResetTargetEi",
            "__ZNK8firebase9firestore3api8Settings20local_cache_settingsEv",
            "__ZN8firebase9firestore6remote10GrpcStream10MaybeWriteEN4absl12lts_202401168optionalINS1_8internal13BufferedWriteEEE",
            "__ZN8firebase9firestore5model11ObjectValue6DeleteERKNS1_9FieldPathE",
            "__ZN8firebase9firestore6remote13ConvertStatusERKN4grpc6StatusE",
            "__ZNK8firebase9firestore6remote10Serializer21DecodeCompositeFilterEPNS0_4util11ReadContextERKNS0_52_google_firestore_v1_StructuredQuery_CompositeFilterE",
            "__ZN8firebase9firestore5local19MemoryMutationQueue19LookupMutationBatchEi",
            "__ZN8firebase9firestore3api12MakeGeoPointEP11FIRGeoPoint",
            "__ZN8firebase9firestore3api9FirestoreC2ENS0_5model10DatabaseIdENSt3__112basic_stringIcNS5_11char_traitsIcEENS5_9allocatorIcEEEENS5_10shared_ptrINS0_11credentials19CredentialsProviderINSD_9AuthTokenENSD_4UserEEEEENSC_INSE_ISB_SB_EEEENSC_INS0_4util10AsyncQueueEEENS5_10unique_ptrINS0_6remote24FirebaseMetadataProviderENS5_14default_deleteISQ_EEEEPv",
            "__ZN8firebase9firestore4util10IsEmptyDirERKNS1_4PathE",
            "__ZN8firebase9firestore5local13LevelDbOpener14LevelDbDataDirEv",
            "__ZN8firebase9firestore5local27LevelDbLruReferenceDelegate23RemoveOrphanedDocumentsEx",
            "__ZN8firebase9firestore5model11SetMutation3RepC2EONS1_11DocumentKeyEONS1_11ObjectValueEONS1_12PreconditionEONSt3__16vectorINS1_14FieldTransformENSA_9allocatorISC_EEEE",
            "__ZNK8firebase9firestore35_google_firestore_v1_CommitResponse8ToStringEi",
            "__ZN8firebase9firestore5local10ProtoSizerC1ENS1_15LocalSerializerE",
            "__ZNK8firebase9firestore6remote11RemoteStore22GetTargetDataForTargetEi",
            "__ZN8firebase9firestore5local19LevelDbIndexManager18UpdateIndexEntriesERKNS0_9immutable9SortedMapINS0_5model11DocumentKeyENS5_8DocumentENS0_4util10ComparatorIS6_EEEE",
            "__ZN8firebase9firestore5local26MemoryLruReferenceDelegateC2EPNS1_17MemoryPersistenceENS1_9LruParamsENSt3__110unique_ptrINS1_5SizerENS6_14default_deleteIS8_EEEE",
            "__ZN8firebase9firestore5local19LevelDbIndexManager19GenerateIndexRangesEiN4absl12lts_202401168optionalINSt3__16vectorINS0_26_google_firestore_v1_ValueENS6_9allocatorIS8_EEEEEERKNS7_INS6_12basic_stringIcNS6_11char_traitsIcEENS9_IcEEEENS9_ISH_EEEEbSL_bSJ_",
            "__ZN8firebase9firestore5local45LevelDbDocumentOverlayCollectionGroupIndexKey3KeyEN4absl12lts_2024011611string_viewES5_iRKNS0_5model11DocumentKeyE",
            "__ZN8firebase9firestore5local19LruGarbageCollector27SequenceNumberForQueryCountEi",
            "__ZN8firebase9firestore5model11ObjectValueC2ERKS2_",
            "__ZNK8firebase9firestore5model14VerifyMutation3Rep8ToStringEv",
            "__ZN8firebase9firestore6nanopb12StringWriter7ReleaseEv",
            "__ZN8firebase9firestore6remote9DatastoreC2ERKNS0_4core12DatabaseInfoERKNSt3__110shared_ptrINS0_4util10AsyncQueueEEENS8_INS0_11credentials19CredentialsProviderINSE_9AuthTokenENSE_4UserEEEEENS8_INSF_INS7_12basic_stringIcNS7_11char_traitsIcEENS7_9allocatorIcEEEESP_EEEEPNS1_19ConnectivityMonitorEPNS1_24FirebaseMetadataProviderE",
            "__ZN8firebase9firestore4core11Transaction24CreateUpdatePreconditionERKNS0_5model11DocumentKeyE",
            "__ZNK8firebase9firestore5model15SnapshotVersion4HashEv",
            "__ZN8firebase17TimestampInternal28FromUntrustedSecondsAndNanosExi",
            "__ZN8firebase9firestore5local19LevelDbIndexManager16DeleteFieldIndexERKNS0_5model10FieldIndexE",
            "__ZN8firebase9firestore5local24LevelDbTargetDocumentKey9KeyPrefixEv",
            "__ZNK8firebase9firestore3api19CollectionReference4pathEv",
            "__ZNK8firebase9firestore6remote11RemoteStore22GetRemoteKeysForTargetEi",
            "__ZN8firebase9firestore6nanopb16ByteStringWriter6AppendEPKvm",
            "__ZNK8firebase9firestore6remote19DatastoreSerializer28DecodeAggregateQueryResponseERKN4grpc10ByteBufferERKN4absl12lts_2024011613flat_hash_mapINSt3__112basic_stringIcNSA_11char_traitsIcEENSA_9allocatorIcEEEESG_NS8_18container_internal10StringHashENSH_8StringEqENSE_INSA_4pairIKSG_SG_EEEEEE",
            "__ZNK8firebase9firestore3api17DocumentReference11document_idEv",
            "__ZNK8firebase9firestore42_google_firestore_v1_CreateDocumentRequest8ToStringEi",
            "__ZN8firebase9firestore3api13QuerySnapshotC2ENSt3__110shared_ptrINS1_9FirestoreEEENS0_4core5QueryEONS7_12ViewSnapshotENS1_16SnapshotMetadataE",
            "__ZNK8firebase9firestore3api19CollectionReference8DocumentEv",
            "__ZNK8firebase9firestore5model11ObjectValue11ToFieldMaskEv",
            "__ZN8firebase9firestore5local18LevelDbTransaction8Iterator9IsDeletedEN7leveldb5SliceE",
            "__ZN8firebase9firestore5local19MemoryMutationQueue32AllMutationBatchesAffectingQueryERKNS0_4core5QueryE",
            "__ZN8firebase9firestore4util13LogIsLoggableENS1_8LogLevelE",
            "__ZN8firebase9firestore4util4TaskC2EPNS1_8ExecutorENSt3__16chrono10time_pointINS6_12steady_clockENS6_8durationIxNS5_5ratioILl1ELl1000EEEEEEEijONS5_8functionIFvvEEE",
            "__ZN8firebase9firestore3api14LoadBundleTask15SetLastObserverENSt3__18functionIFvNS1_22LoadBundleTaskProgressEEEE",
            "__ZN8firebase9firestore4core15FirestoreClient29RemoveSnapshotsInSyncListenerERKNSt3__110shared_ptrINS1_13EventListenerINS0_4util5EmptyEEEEE",
            "__ZNO8firebase9firestore4core13ParsedSetData10ToMutationERKNS0_5model11DocumentKeyERKNS3_12PreconditionE",
            "__ZNK8firebase9firestore6remote14GrpcConnection13CreateChannelEv",
            "__ZN8firebase9firestore5local18MemoryIndexManager5StartEv",
            "__ZN8firebase9firestore6nanopb10ByteStringC2EPKvm",
            "__ZNK8firebase9firestore4core13QueryListener16ShouldRaiseEventERKNS1_12ViewSnapshotE",
            "__ZNK8firebase9firestore3api27PersistentCacheIndexManager21DeleteAllFieldIndexesEv",
            "__ZN8firebase9firestore5local18LevelDbBundleCacheC1EPNS1_18LevelDbPersistenceEPNS1_15LocalSerializerE",
            "__ZNK8firebase9firestore5index10IndexEntry8ToStringEv",
            "__ZNK8firebase9firestore5local18LocalDocumentsView26RecalculateAndSaveOverlaysERKNS0_9immutable9SortedSetINS0_5model11DocumentKeyENS0_4util10ComparatorIS6_EEEE",
            "__ZN8firebase9firestore4util10AsyncQueue6CreateENSt3__110unique_ptrINS1_8ExecutorENS3_14default_deleteIS5_EEEE",
            "__ZN8firebase9firestore6remote21WatchChangeAggregator20HandleDocumentChangeERKNS1_19DocumentWatchChangeE",
            "__ZN8firebase9firestore3api27PersistentCacheIndexManagerC1ENSt3__110shared_ptrINS0_4core15FirestoreClientEEE",
            "__ZN8firebase9firestore4core4View17ApplyTargetChangeERKN4absl12lts_202401168optionalINS0_6remote12TargetChangeEEE",
            "__ZN8firebase9firestore5local27MemoryCollectionParentIndex3AddERKNS0_5model12ResourcePathE",
            "__ZN8firebase9firestore5local18MemoryIndexManager13AddFieldIndexERKNS0_5model10FieldIndexE",
            "__ZN8firebase9firestore5local18LocalDocumentsView23GetLocalViewOfDocumentsERKNS0_9immutable9SortedMapINS0_5model11DocumentKeyENS5_15MutableDocumentENS0_4util10ComparatorIS6_EEEERKNS3_9SortedSetIS6_SA_EE",
            "__ZNK8firebase9firestore5model8Mutation21ApplyToRemoteDocumentERNS1_15MutableDocumentERKNS1_14MutationResultE",
            "__ZNK8firebase9firestore6remote10Serializer14EncodeOrderBysERKNSt3__16vectorINS0_4core7OrderByENS3_9allocatorIS6_EEEE",
            "__ZN8firebase9firestore4core10SyncEngine28TriggerPendingWriteCallbacksEi",
            "__ZN8firebase9firestore5model9FieldPath22FromDotSeparatedStringERKNSt3__112basic_stringIcNS3_11char_traitsIcEENS3_9allocatorIcEEEE",
            "__ZN8firebase9firestore6remote10Serializer15EncodeTimestampERKNS_9TimestampE",
            "__ZN8firebase9firestore6remote18OnlineStateTracker21ClearOnlineStateTimerEv",
            "__ZN8firebase9firestore4util10AsyncQueue4WrapERKNSt3__18functionIFvvEEE",
            "__ZN8firebase9firestore6remote11WatchStream17NotifyStreamCloseERKNS0_4util6StatusE",
            "__ZNK8firebase9firestore52_google_firestore_v1_StructuredQuery_CompositeFilter8ToStringEi",
            "__ZN8firebase9firestore4util10MakeStringEPK10__CFString",
            "__ZN8firebase9firestore4util10Filesystem8ReadFileERKNS1_4PathE",
            "__ZThn16_N8firebase9firestore6remote11RemoteStore17OnWriteStreamOpenEv",
            "__ZN8firebase9firestore5local26MemoryLruReferenceDelegate23RemoveMutationReferenceERKNS0_5model11DocumentKeyE",
            "__ZN8firebase9firestore4util10JsonReader13RequiredArrayEPKcRKN8nlohmann10basic_jsonINSt3__13mapENS7_6vectorENS7_12basic_stringIcNS7_11char_traitsIcEENS7_9allocatorIcEEEEbxydSD_NS5_14adl_serializerENS9_IhNSD_IhEEEEEE",
            "__ZNK8firebase9firestore6bundle16BundleSerializer14DecodeMapValueERNS0_4util10JsonReaderERKN8nlohmann10basic_jsonINSt3__13mapENS8_6vectorENS8_12basic_stringIcNS8_11char_traitsIcEENS8_9allocatorIcEEEEbxydSE_NS6_14adl_serializerENSA_IhNSE_IhEEEEEE",
            "__ZN8firebase9firestore5local19MemoryMutationQueue18GetLastStreamTokenEv",
            "__ZN8firebase9firestore5local19LevelDbIndexManager21EncodedDirectionalKeyERKNS0_5model10FieldIndexERKNS3_11DocumentKeyE",
            "__ZN8firebase9firestore4util6StatusC1ENS0_5ErrorENSt3__112basic_stringIcNS4_11char_traitsIcEENS4_9allocatorIcEEEE",
            "__ZN8firebase9firestore6remote11WatchStream16NotifyStreamOpenEv",
            "__ZN8firebase9firestore4core15FirestoreClient20WaitForPendingWritesENSt3__18functionIFvNS0_4util6StatusEEEE",
            "__ZNK8firebase9firestore3api5Query22ValidateNewFieldFilterERKNS0_4core5QueryERKNS3_11FieldFilterE",
            "__ZN8firebase9firestore5model24ServerTimestampTransformC1Ev",
            "__ZN8firebase9firestore4util10JsonReader12OptionalBoolEPKcRKN8nlohmann10basic_jsonINSt3__13mapENS7_6vectorENS7_12basic_stringIcNS7_11char_traitsIcEENS7_9allocatorIcEEEEbxydSD_NS5_14adl_serializerENS9_IhNSD_IhEEEEEEb",
            "__ZNK8firebase9firestore48_google_firestore_v1_TransactionOptions_ReadOnly8ToStringEi",
            "__ZN8firebase9firestore4core6Filter3RepC2Ev",
            "__ZN8firebase9firestore4core17TransactionRunnerC2ERKNSt3__110shared_ptrINS0_4util10AsyncQueueEEEPNS0_6remote11RemoteStoreENS3_8functionIFvNS4_INS1_11TransactionEEENSD_IFvNS5_6StatusEEEEEEESI_i",
            "__ZN8firebase9firestore6remote11RemoteStore19OnWatchStreamChangeERKNS1_11WatchChangeERKNS0_5model15SnapshotVersionE",
            "__ZNK8firebase9firestore3api16DocumentSnapshot15CreateReferenceEv",
            "__ZN8firebase9firestore5local24LevelDbTargetDocumentKey9KeyPrefixEi",
            "__ZN8firebase9firestore5model11ArrayEqualsERKNS0_31_google_firestore_v1_ArrayValueES4_",
            "__ZN8firebase9firestore5local19MemoryMutationQueue18SetLastStreamTokenENS0_6nanopb10ByteStringE",
            "__ZNK8firebase9firestore4core9Direction11CanonicalIdEv",
            "__ZN8firebase9firestore5local18LevelDbTransaction18DefaultReadOptionsEv",
            "__ZN8firebase9firestore5local20LevelDbMutationQueueC2ERKNS0_11credentials4UserEPNS1_18LevelDbPersistenceEPNS1_12IndexManagerEPNS1_15LocalSerializerE",
            "__ZN8firebase9firestore5local26LevelDbCollectionParentKey3KeyEN4absl12lts_2024011611string_viewERKNS0_5model12ResourcePathE",
            "__ZNK8firebase9firestore4core15FirestoreClient13is_terminatedEv",
            "__ZN8firebase9firestore5local10LocalStore10SaveBundleERKNS0_6bundle14BundleMetadataE",
            "__ZN8firebase9firestore3apieqERKNS1_19MemoryCacheSettingsES4_",
            "__ZN8firebase9firestore3api35SnapshotsInSyncListenerRegistration6RemoveEv",
            "__ZNK8firebase9firestore5local10TargetData8ToStringEv",
            "__ZNK8firebase9firestore5model14ArrayTransform3Rep8ToStringEv",
            "__ZN8firebase9firestore6remote11RemoteStore18OnWatchStreamCloseERKNS0_4util6StatusE",
            "__ZN8firebase9firestore3api14AggregateQuery12GetAggregateEONSt3__18functionIFvRKNS0_4util8StatusOrINS0_5model11ObjectValueEEEEEE",
            "__ZNK8firebase9firestore55_google_firestore_v1_StructuredQuery_CollectionSelector8ToStringEi",
            "__ZN8firebase9firestore11credentials35FirebaseAppCheckCredentialsProviderC1EP6FIRAppPU29objcproto18FIRAppCheckInterop11objc_object",
            "__ZNK8firebase9firestore4core18DocumentViewChange8documentEv",
            "__ZN8firebase9firestore6remote14GrpcConnection18UseTestCertificateERKNSt3__112basic_stringIcNS3_11char_traitsIcEENS3_9allocatorIcEEEERKNS0_4util4PathESB_",
            "__ZN8firebase9firestore4coreeqERKNS1_19LimboDocumentChangeES4_",
            "__ZN8firebase9firestore5model13PatchMutation3RepC2EONS1_11DocumentKeyEONS1_11ObjectValueEONS1_9FieldMaskEONS1_12PreconditionEONSt3__16vectorINS1_14FieldTransformENSC_9allocatorISE_EEEE",
            "__ZN8firebase9firestore6remote10Serializer15DecodeFieldMaskEPNS0_4util11ReadContextERKNS0_33_google_firestore_v1_DocumentMaskE",
            "__ZN8firebase9firestore5model8MinValueEv",
            "__ZN8firebase9firestore3api5Query19AddSnapshotListenerENS0_4core13ListenOptionsEONSt3__110unique_ptrINS3_13EventListenerINS1_13QuerySnapshotEEENS5_14default_deleteIS9_EEEE",
            "__ZN8firebase9firestore6remote21WatchStreamSerializerC2ENS1_10SerializerE",
            "__ZN8firebase9firestore4util19ExecutorLibdispatch15ExecuteBlockingEONSt3__18functionIFvvEEE",
            "__ZNK8firebase9firestore4util19ExecutorLibdispatch19CurrentExecutorNameEv",
            "__ZNK8firebase9firestore38_google_firestore_v1_DocumentTransform8ToStringEi",
            "__ZN8firebase9firestore3api5Query12GetDocumentsENS1_6SourceEONSt3__110unique_ptrINS0_4core13EventListenerINS1_13QuerySnapshotEEENS4_14default_deleteIS9_EEEE",
            "__ZN8firebase9firestore5local32LevelDbRemoteDocumentReadTimeKey3KeyERKNS0_5model12ResourcePathENS3_15SnapshotVersionEN4absl12lts_2024011611string_viewE",
            "__ZN8firebase9firestore3api27PersistentCacheIndexManagerC2ENSt3__110shared_ptrINS0_4core15FirestoreClientEEE",
            "__ZNK8firebase9firestore5local15LocalSerializer16DecodeNamedQueryEPNS0_6nanopb6ReaderERNS0_21_firestore_NamedQueryE",
            "__ZN8firebase9firestore3api14LoadBundleTask14UpdateProgressENS1_22LoadBundleTaskProgressE",
            "__ZN8firebase9firestore4util5ThrowENS1_13ExceptionTypeEPKcS4_iRKNSt3__112basic_stringIcNS5_11char_traitsIcEENS5_9allocatorIcEEEE",
            "__ZN8firebase9firestore5local13LevelDbOpener25FirestoreLegacyAppDataDirEv",
            "__ZNK8firebase9firestore5model11ObjectValue3GetEv",
            "__ZN8firebase9firestore3api14AggregateQueryC2ENS1_5QueryEONSt3__16vectorINS0_5model14AggregateFieldENS4_9allocatorIS7_EEEE",
            "__ZNK8firebase9firestore3api17DocumentReference4HashEv",
            "__ZNK8firebase9firestore36_google_firestore_v1_ExistenceFilter8ToStringEi",
            "__ZNK8firebase9firestore6remote13GrpcUnaryCall18GetResponseHeadersEv",
            "__ZN8firebase9firestore5local18LevelDbPersistence19current_transactionEv",
            "__ZN8firebase9firestore5local40LevelDbDocumentOverlayCollectionIndexKey6DecodeEN4absl12lts_2024011611string_viewE",
            "__ZN8firebase9firestore6nanopblsERNSt3__113basic_ostreamIcNS2_11char_traitsIcEEEERKNS1_10ByteStringE",
            "__ZN8firebase9firestore4util15ByteStreamApple4ReadEm",
            "__ZN8firebase9firestore6remote9Datastore17CreateWatchStreamEPNS1_19WatchStreamCallbackE",
            "__ZN8firebase9firestore5local10LocalStore15GetFieldIndexesEv",
            "__ZN8firebase9firestore5model11DocumentKey5EmptyEv",
            "__ZNK8firebase9firestore5model11DocumentSet4HashEv",
            "__ZN8firebase9firestore5local17MemoryPersistence21remote_document_cacheEv",
            "__ZNK8firebase9firestore41_google_firestore_v1_Document_FieldsEntry8ToStringEi",
            "__ZNK8firebase9firestore43_google_firestore_admin_v1_Index_IndexField8ToStringEi",
            "__ZNK8firebase9firestore6remote11BloomFilter8IsBitSetEi",
            "__ZN8firebase9firestore5model14VerifyMutationC1ERKNS1_8MutationE",
            "__ZN8firebase9firestore11credentials31FirebaseAuthCredentialsProviderC2EP6FIRAppPU25objcproto14FIRAuthInterop11objc_object",
            "__ZN8firebase9firestore4core10SyncEngineC1EPNS0_5local10LocalStoreEPNS0_6remote11RemoteStoreERKNS0_11credentials4UserEm",
            "__ZNK8firebase9firestore53_google_firestore_v1_DocumentTransform_FieldTransform8ToStringEi",
            "__ZN8firebase9firestore6remote11RemoteStore16SendWatchRequestERKNS0_5local10TargetDataE",
            "__ZNK8firebase9firestore5index10IndexEntry9SuccessorEv",
            "__ZN8firebase9firestore11credentials31FirebaseAuthCredentialsProvider8GetTokenENSt3__18functionIFvNS0_4util8StatusOrINS1_9AuthTokenEEEEEE",
            "__ZNK8firebase9firestore6bundle16BundleSerializer20DecodeBundleMetadataERNS0_4util10JsonReaderERKN8nlohmann10basic_jsonINSt3__13mapENS8_6vectorENS8_12basic_stringIcNS8_11char_traitsIcEENS8_9allocatorIcEEEEbxydSE_NS6_14adl_serializerENSA_IhNSE_IhEEEEEE",
            "__ZNK8firebase9firestore5model11DocumentSet16GetFirstDocumentEv",
            "__ZN8firebase9firestore6remote21WatchChangeAggregator26RecordPendingTargetRequestEi",
            "__ZNK8firebase9firestore4util19ExecutorLibdispatch14IsTagScheduledEi",
            "__ZNK8firebase9firestore4core5Query15WithLimitToLastEi",
            "__ZN8firebase9firestore3apieqERKNS1_18LocalCacheSettingsES4_",
            "__ZN8firebase9firestore5local17MemoryTargetCacheC2EPNS1_17MemoryPersistenceE",
            "__ZNK8firebase9firestore16_google_api_Http8ToStringEi",
            "__ZNK8firebase9firestore5local18MemoryIndexManager12GetMinOffsetERKNSt3__112basic_stringIcNS3_11char_traitsIcEENS3_9allocatorIcEEEE",
            "__ZN8firebase9firestore3api9Firestore13GetCollectionERKNSt3__112basic_stringIcNS3_11char_traitsIcEENS3_9allocatorIcEEEE",
            "__ZNK8firebase9firestore5local25MemoryRemoteDocumentCache25GetDocumentsMatchingQueryERKNS0_4core5QueryERKNS0_5model11IndexOffsetEN4absl12lts_202401168optionalImEERKNSt3__113unordered_mapINS7_11DocumentKeyENS7_7OverlayENS7_15DocumentKeyHashENSF_8equal_toISH_EENSF_9allocatorINSF_4pairIKSH_SI_EEEEEE",
            "__ZNK8firebase9firestore5local20DocumentKeyReference4ById7CompareERKS2_S5_",
            "__ZN8firebase9firestore5local25LevelDbDocumentOverlayKey3KeyEN4absl12lts_2024011611string_viewERKNS0_5model11DocumentKeyEi",
            "__ZNK8firebase9firestore5model12ResourcePath15CanonicalStringEv",
            "__ZNK8firebase9firestore5local19LevelDbIndexManager15GetFieldIndexesERKNSt3__112basic_stringIcNS3_11char_traitsIcEENS3_9allocatorIcEEEE",
            "__ZN8firebase9firestore6remote16ByteBufferWriterC2Ev",
            "__ZNK8firebase9firestore5model11DocumentSet8ToStringEv",
            "__ZN8firebase9firestore4corelsERNSt3__113basic_ostreamIcNS2_11char_traitsIcEEEERKNS1_7OrderByE",
            "__ZNK8firebase9firestore4core5Query10ComparatorEv",
            "__ZNK8firebase9firestore6remote10Serializer9EncodeKeyERKNS0_5model11DocumentKeyE",
            "__ZN8firebase9firestore5local18LevelDbPersistenceC2ENSt3__110unique_ptrIN7leveldb2DBENS3_14default_deleteIS6_EEEENS0_4util4PathENS3_3setINS3_12basic_stringIcNS3_11char_traitsIcEENS3_9allocatorIcEEEENS3_4lessISI_EENSG_ISI_EEEENS1_15LocalSerializerERKNS1_9LruParamsE",
            "__ZN8firebase9firestore6remote11RemoteStore18ProcessTargetErrorERKNS1_17WatchTargetChangeE",
            "__ZNK8firebase9firestore4util10AsyncQueue11IsScheduledENS1_7TimerIdE",
            "__ZNK8firebase9firestore4util8Schedule5emptyEv",
            "__ZN8firebase9firestore5local24LevelDbRemoteDocumentKey9KeyPrefixERKNS0_5model12ResourcePathE",
            "__ZNK8firebase9firestore6bundle16BundleSerializer17DecodeFieldFilterERNS0_4util10JsonReaderERKN8nlohmann10basic_jsonINSt3__13mapENS8_6vectorENS8_12basic_stringIcNS8_11char_traitsIcEENS8_9allocatorIcEEEEbxydSE_NS6_14adl_serializerENSA_IhNSE_IhEEEEEE",
            "__ZN8firebase9firestore5model11SetMutationC1ENS1_11DocumentKeyENS1_11ObjectValueENS1_12PreconditionE",
            "__ZN8firebase9firestore4util11OrderedCode10ReadStringEPN4absl12lts_2024011611string_viewEPNSt3__112basic_stringIcNS7_11char_traitsIcEENS7_9allocatorIcEEEE",
            "__ZNK8firebase9firestore5local10LocalStore23ShouldPersistTargetDataERKNS1_10TargetDataES5_RKNS0_6remote12TargetChangeE",
            "__ZNK8firebase9firestore5local15LocalSerializer16DecodeTargetDataEPNS0_6nanopb6ReaderERNS0_24_firestore_client_TargetE",
            "__ZNK8firebase9firestore3api5Query16ParseFieldFilterERKNS0_5model9FieldPathENS0_4core11FieldFilter8OperatorENS0_6nanopb13SharedMessageINS0_26_google_firestore_v1_ValueEEERKNSt3__18functionIFNSE_12basic_stringIcNSE_11char_traitsIcEENSE_9allocatorIcEEEEvEEE",
            "__ZN8firebase9firestore11credentials4UserC1Ev",
            "__ZNK8firebase9firestore26_google_firestore_v1_Value8ToStringEi",
            "__ZN8firebase9firestore6remote13GrpcUnaryCall15MaybeUnregisterEv",
            "__ZN8firebase9firestore4util11OrderedCode22ReadInfinityDecreasingEPN4absl12lts_2024011611string_viewE",
            "__ZNK8firebase9firestore51_google_firestore_v1_StructuredQuery_FieldReference8ToStringEi",
            "__ZN8firebase9firestore5model19MutationBatchResultC2ENS1_13MutationBatchENS1_15SnapshotVersionENSt3__16vectorINS1_14MutationResultENS5_9allocatorIS7_EEEENS0_6nanopb10ByteStringE",
            "__ZNK8firebase9firestore63_google_firestore_v1_StructuredAggregationQuery_Aggregation_Sum8ToStringEi",
            "__ZN8firebase9firestore4util10LogicUtils11GetDnfTermsERKNS0_4core15CompositeFilterE",
            "__ZN8firebase9firestore5model13PatchMutationC1ENS1_11DocumentKeyENS1_11ObjectValueENS1_9FieldMaskENS1_12PreconditionENSt3__16vectorINS1_14FieldTransformENS7_9allocatorIS9_EEEE",
            "__ZN8firebase9firestore4core11FieldFilter3RepC1ENS0_5model9FieldPathENS2_8OperatorENS0_6nanopb13SharedMessageINS0_26_google_firestore_v1_ValueEEE",
            "__ZN8firebase9firestore5local13LevelDbOpener6CreateERKNS1_9LruParamsE",
            "__ZNK8firebase9firestore23_google_protobuf_Struct8ToStringEi",
            "__ZNK8firebase9firestore5model10FieldIndex15GetArraySegmentEv",
            "__ZNK8firebase9firestore4core11Transaction19IsPermanentlyFailedEv",
            "__ZN8firebase9firestore4core4View12ApplyChangesERKNS1_19ViewDocumentChangesERKN4absl12lts_202401168optionalINS0_6remote12TargetChangeEEEb",
            "__ZN8firebase9firestore5local10LocalStore21ApplyBundledDocumentsERKNS0_9immutable9SortedMapINS0_5model11DocumentKeyENS5_15MutableDocumentENS0_4util10ComparatorIS6_EEEERKNSt3__112basic_stringIcNSE_11char_traitsIcEENSE_9allocatorIcEEEE",
            "__ZN8firebase9firestore6nanopb8internal8ToStringEP16pb_bytes_array_s",
            "__ZNK8firebase9firestore6remote6Stream13EnsureOnQueueEv",
            "__ZN8firebase9firestore5local17MemoryPersistence25WithEagerGarbageCollectorEv",
            "__ZN8firebase9firestore5modellsERNSt3__113basic_ostreamIcNS2_11char_traitsIcEEEERKNS1_18TransformOperationE",
            "__ZN8firebase9firestore4util17internal_statusor6Helper5CrashERKNS1_6StatusE",
            "__ZN8firebase9firestore5model14DeleteMutationC2ENS1_11DocumentKeyENS1_12PreconditionE",
            "__ZN8firebase9firestore6remote10GrpcStream4ReadEv",
            "__ZN8firebase9firestore12EnumToStringENS0_26_google_protobuf_NullValueE",
            "__ZN8firebase9firestore6remote11TargetState17UpdateResumeTokenENS0_6nanopb10ByteStringE",
            "__ZN8firebase9firestore4util11OrderedCode20ReadDoubleIncreasingEPN4absl12lts_2024011611string_viewEPd",
            "__ZN8firebase9firestore6nanopb12StringReaderC2ERKNSt3__16vectorIhNS3_9allocatorIhEEEE",
            "__ZN8firebase9firestore3api14AggregateQueryC1ENS1_5QueryEONSt3__16vectorINS0_5model14AggregateFieldENS4_9allocatorIS7_EEEE",
            "__ZN8firebase9firestore5local10LocalStore14SaveNamedQueryERKNS0_6bundle10NamedQueryERKNS0_9immutable9SortedSetINS0_5model11DocumentKeyENS0_4util10ComparatorISA_EEEE",
            "__ZN8firebase9firestore12EnumToStringENS0_43_google_firestore_admin_v1_Index_QueryScopeE",
            "__ZN8firebase9firestore4util11OrderedCode17ReadNumIncreasingEPN4absl12lts_2024011611string_viewEPy",
            "__ZN8firebase9firestore6remote9Datastore16IsPermanentErrorERKNS0_4util6StatusE",
            "__ZN8firebase9firestore5local20LevelDbIndexStateKey3KeyEN4absl12lts_2024011611string_viewEi",
            "__ZN8firebase9firestore6remote19GrpcStreamingReader13OnStreamStartEv",
            "__ZN8firebase9firestore6remote13GrpcUnaryCall8ShutdownEv",
            "__ZN8firebase9firestore5modellsERNSt3__113basic_ostreamIcNS2_11char_traitsIcEEEERKNS1_14MutationResultE",
            "__ZN8firebase9firestore4core15FirestoreClientC2ERKNS1_12DatabaseInfoENSt3__110shared_ptrINS0_11credentials19CredentialsProviderINS8_9AuthTokenENS8_4UserEEEEENS7_INS9_INS6_12basic_stringIcNS6_11char_traitsIcEENS6_9allocatorIcEEEESJ_EEEENS7_INS0_4util8ExecutorEEENS7_INSM_10AsyncQueueEEENS6_10unique_ptrINS0_6remote24FirebaseMetadataProviderENS6_14default_deleteIST_EEEE",
            "__ZN8firebase9firestore6remote21WatchChangeAggregator24RemoveDocumentFromTargetEiRKNS0_5model11DocumentKeyERKN4absl12lts_202401168optionalINS3_15MutableDocumentEEE",
            "__ZN8firebase9firestore5model14ArrayTransformC2ERKNS1_18TransformOperationE",
            "__ZN8firebase9firestore3api8SettingsaSERKS2_",
            "__ZN8firebase9firestore5local28MemoryEagerReferenceDelegate12AddReferenceERKNS0_5model11DocumentKeyE",
            "__ZNK8firebase9firestore36_google_firestore_v1_RunQueryRequest8ToStringEi",
            "__ZNK8firebase9firestore3api14AggregateQuery4HashEv",
            "__ZN8firebase9firestore6remote11TargetState17AddDocumentChangeERKNS0_5model11DocumentKeyENS0_4core18DocumentViewChange4TypeE",
            "__ZN8firebase9firestore4core10SyncEngine17RemoveLimboTargetERKNS0_5model11DocumentKeyE",
            "__ZN8firebase9firestore5model17CompareTimestampsERKNS0_26_google_protobuf_TimestampES4_",
            "__ZN8firebase9firestore4core15FirestoreClientD1Ev",
            "__ZN8firebase9firestore6remoteeqERKNS1_11BloomFilterES4_",
            "__ZNK8firebase9firestore5local10LocalStore8BackfillEv",
            "__ZNK8firebase9firestore5model11ObjectValue3GetERKNS1_9FieldPathE",
            "__ZNK8firebase9firestore4core15CompositeFilter3Rep6EqualsERKNS1_6Filter3RepE",
            "__ZNK8firebase9firestore5local20DocumentKeyReference4HashEv",
            "__ZN8firebase9firestore5local27LevelDbLruReferenceDelegate15AddInMemoryPinsEPNS1_12ReferenceSetE",
            "__ZNK8firebase9firestore4core6Target18GetDescendingBoundERKNS0_5model7SegmentERKN4absl12lts_202401168optionalINS1_5BoundEEE",
            "__ZN8firebase9firestore5local24LevelDbDocumentTargetKey11SentinelKeyERKNS0_5model11DocumentKeyE",
            "__ZN8firebase9firestore3apieqERKNS1_8SettingsES4_",
            "__ZN8firebase9firestore6remote11WriteStream14WriteMutationsERKNSt3__16vectorINS0_5model8MutationENS3_9allocatorIS6_EEEE",
            "__ZN8firebase9firestore4util6Status12SlowCopyFromEPKNS2_5StateE",
            "__ZNK8firebase9firestore5model14ArrayTransform3Rep6EqualsERKNS1_18TransformOperation3RepE",
            "__ZNK8firebase9firestore4core4View7CompareERKNS0_5model8DocumentES6_",
            "__ZN8firebase9firestore6remote16ByteBufferReader4ReadEPK10pb_field_sPv",
            "__ZN8firebase9firestore3api5QueryC2ENS0_4core5QueryENSt3__110shared_ptrINS1_9FirestoreEEE",
            "__ZN8firebase9firestore5local26MemoryLruReferenceDelegate17garbage_collectorEv",
            "__ZN8firebase9firestore4util15SetThrowHandlerEPFvNS1_13ExceptionTypeEPKcS4_iRKNSt3__112basic_stringIcNS5_11char_traitsIcEENS5_9allocatorIcEEEEE",
            "__ZN8firebase9firestore3api10WriteBatch10UpdateDataERKNS1_17DocumentReferenceEONS0_4core16ParsedUpdateDataE",
            "__ZN8firebase9firestore5model11IndexOffset4NoneEv",
            "__ZN8firebase9firestore6remote11WriteStream14WriteHandshakeEv",
            "__ZNK8firebase9firestore5local15LocalSerializer16EncodeTargetDataERKNS1_10TargetDataE",
            "__ZN8firebase9firestore5model14FieldTransformC2ENS1_9FieldPathENS1_18TransformOperationE",
            "__ZN8firebase9firestore4core10SyncEngine29StopListeningAndReleaseTargetERKNS1_5QueryEbb",
            "__ZN8firebase9firestore5local28MemoryEagerReferenceDelegateC1EPNS1_17MemoryPersistenceE",
            "__ZN8firebase9firestore6nanopb12StringReaderC1EN4absl12lts_2024011611string_viewE",
            "__ZN8firebase9firestore5local27LevelDbLruReferenceDelegate14RemoveSentinelERKNS0_5model11DocumentKeyE",
            "__ZN8firebase9firestore5local27LevelDbLruReferenceDelegate5StartEv",
            "__ZNK8firebase9firestore4util11ExecutorStd4NameEv",
            "__ZN8firebase9firestore6remote18ExponentialBackoffC2ERKNSt3__110shared_ptrINS0_4util10AsyncQueueEEENS5_7TimerIdE",
            "__ZN8firebase9firestore5local36LevelDbIndexEntryDocumentKeyIndexKey3KeyEv",
            "__ZNK8firebase9firestore42_google_firestore_v1_ListDocumentsResponse8ToStringEi",
            "__ZN8firebase9firestore6remote11WriteStream8TearDownEPNS1_10GrpcStreamE",
            "__ZN8firebase9firestore5model8Mutation3RepC2EONS1_11DocumentKeyEONS1_12PreconditionE",
            "__ZNK8firebase9firestore5local25MemoryRemoteDocumentCache6GetAllERKNS0_9immutable9SortedSetINS0_5model11DocumentKeyENS0_4util10ComparatorIS6_EEEE",
            "__ZN8firebase9firestore5local18LevelDbTransaction8IteratorC1EPS2_",
            "__ZN8firebase9firestore5model13CanonifyArrayERKNS0_31_google_firestore_v1_ArrayValueE",
            "__ZNK8firebase9firestore34_firestore_BundledDocumentMetadata8ToStringEi",
            "__ZNK8firebase9firestore5local27LevelDbDocumentOverlayCache12ParseOverlayERKNS1_25LevelDbDocumentOverlayKeyEN4absl12lts_2024011611string_viewE",
            "__ZN8firebase9firestore5local15IndexBackfiller17WriteIndexEntriesEPKNS1_10LocalStoreE",
            "__ZN8firebase9firestore6nanopb8internal8ToStringEb",
            "__ZN8firebase9firestore6remote21WatchChangeAggregatorC2EPNS1_22TargetMetadataProviderE",
            "__ZN8firebase9firestore3apieqERKNS1_19CollectionReferenceES4_",
            "__ZN8firebase9firestore4util11OrderedCode26TEST_SkipToNextSpecialByteEPKcS4_",
            "__ZN8firebase9firestore6remote10Serializer18EncodePreconditionERKNS0_5model12PreconditionE",
            "__ZNK8firebase9firestore4core6Target15IsDocumentQueryEv",
            "__ZN8firebase9firestore5local18MemoryIndexManager16DeleteFieldIndexERKNS0_5model10FieldIndexE",
            "__ZNK8firebase9firestore3api19CollectionReference11AddDocumentEONS0_4core13ParsedSetDataENSt3__18functionIFvNS0_4util6StatusEEEE",
            "__ZNK8firebase9firestore32_google_firestore_v1_BitSequence8ToStringEi",
            "__ZN8firebase9firestore5local18LevelDbTargetCache12UpdateTargetERKNS1_10TargetDataE",
            "__ZN8firebase9firestore4core15FirestoreClient26AddSnapshotsInSyncListenerERKNSt3__110shared_ptrINS1_13EventListenerINS0_4util5EmptyEEEEE",
            "__ZN8firebase9firestore5model9DeepCloneERKNS0_26_google_firestore_v1_ValueE",
            "__ZNK8firebase9firestore4core11FieldFilter3Rep11CanonicalIdEv",
            "__ZN8firebase9firestore5model11CanonicalIdERKNS0_26_google_firestore_v1_ValueE",
            "__ZNKR8firebase9firestore4core5Query17ToAggregateTargetEv",
            "__ZN8firebase9firestore5local26LevelDbRemoteDocumentCacheC1EPNS1_18LevelDbPersistenceEPNS1_15LocalSerializerE",
            "__ZNK8firebase9firestore27_google_firestore_v1_Cursor8ToStringEi",
            "__ZN8firebase9firestore5local19LevelDbIndexManager11EncodeBoundERKNS0_5model10FieldIndexERKNS0_4core6TargetERKNS7_16IndexBoundValuesE",
            "__ZN8firebase9firestore3api19MemoryCacheSettingsC2ERKS2_",
            "__ZN8firebase9firestore4core10SyncEngine20AssertCallbackExistsEN4absl12lts_2024011611string_viewE",
            "__ZN8firebase9firestore4corelsERNSt3__113basic_ostreamIcNS2_11char_traitsIcEEEERKNS1_5QueryE",
            "__ZN8firebase9firestore5local28MemoryEagerReferenceDelegate20OnTransactionStartedEN4absl12lts_2024011611string_viewE",
            "__ZN8firebase9firestore5model11SetMutationC1ERKNS1_8MutationE",
            "__ZN8firebase9firestore4core15FirestoreClient13GetNamedQueryERKNSt3__112basic_stringIcNS3_11char_traitsIcEENS3_9allocatorIcEEEENS3_8functionIFvNS1_5QueryEbEEE",
            "__ZNK8firebase9firestore4core5Query16WithLimitToFirstEi",
            "__ZNK8firebase9firestore34_google_firestore_v1_ListenRequest8ToStringEi",
            "__ZNK8firebase9firestore41_google_firestore_v1_MapValue_FieldsEntry8ToStringEi",
            "__ZN8firebase9firestore4util17DoubleBitwiseHashEd",
            "__ZNK8firebase9firestore3api19MemoryCacheSettings4HashEv",
            "__ZN8firebase9firestore4util18CompareMixedNumberEdx",
            "__ZN8firebase9firestore5local13LevelDbOpener14MigrateDataDirERKNS0_4util4PathES6_",
            "__ZN8firebase9firestore4core15CompositeFilterC2EONSt3__110shared_ptrIKNS1_6Filter3RepEEE",
            "__ZN8firebase9firestore3api25QueryListenerRegistration6RemoveEv",
            "__ZNK8firebase9firestore4core12ViewSnapshot5queryEv",
            "__ZN8firebase9firestore5local20LevelDbMutationQueue39AllMutationBatchesAffectingDocumentKeysERKNS0_9immutable9SortedSetINS0_5model11DocumentKeyENS0_4util10ComparatorIS6_EEEE",
            "__ZN8firebase9firestore6remote21WatchChangeAggregator19AddDocumentToTargetEiRKNS0_5model15MutableDocumentE",
            "__ZN8firebase9firestore6nanopb17FreeNanopbMessageEPK10pb_field_sPv",
            "__ZNK8firebase9firestore6remote10Serializer9DecodeKeyEPNS0_4util11ReadContextEPK16pb_bytes_array_s",
            "__ZN8firebase9firestore4core11FieldFilterC2ENSt3__110shared_ptrIKNS1_6Filter3RepEEE",
            "__ZN8firebase9firestore4core12EventManager7OnErrorERKNS1_5QueryERKNS0_4util6StatusE",
            "__ZN8firebase9firestore6remote11RemoteStore18SendUnwatchRequestEi",
            "__ZN8firebase9firestore3api10WriteBatch10DeleteDataERKNS1_17DocumentReferenceE",
            "__ZN8firebase9firestore4core13ParsedSetDataC1ENS0_5model11ObjectValueENS3_9FieldMaskENSt3__16vectorINS3_14FieldTransformENS6_9allocatorIS8_EEEE",
            "__ZN8firebase9firestore6remote6Stream26ResumeStartWithCredentialsERKNS0_4util8StatusOrINS0_11credentials9AuthTokenEEERKNSt3__112basic_stringIcNSA_11char_traitsIcEENSA_9allocatorIcEEEE",
            "__ZNK8firebase9firestore6remote10Serializer14EncodeDocumentERKNS0_5model11DocumentKeyERKNS3_11ObjectValueE",
            "__ZN8firebase9firestore4util16ObjcThrowHandlerENS1_13ExceptionTypeEPKcS4_iRKNSt3__112basic_stringIcNS5_11char_traitsIcEENS5_9allocatorIcEEEE",
            "__ZNK8firebase9firestore41_google_firestore_v1_ListDocumentsRequest8ToStringEi",
            "__ZNK8firebase9firestore31_firestore_client_MutationQueue8ToStringEi",
            "__ZN8firebase9firestore5local20LevelDbMutationQueue25AllMutationBatchesWithIdsERKNSt3__13setIiNS3_4lessIiEENS3_9allocatorIiEEEE",
            "__ZN8firebase9firestore4core14KeyFieldFilterC2ERKNS0_5model9FieldPathENS1_11FieldFilter8OperatorENS0_6nanopb13SharedMessageINS0_26_google_firestore_v1_ValueEEE",
            "__ZN8firebase9firestore4core15FirestoreClient14DisableNetworkENSt3__18functionIFvNS0_4util6StatusEEEE",
            "__ZNK8firebase9firestore5local10LocalStore27SetIndexAutoCreationEnabledEb",
            "__ZN8firebase9firestore6nanopb16ByteStringWriterC2Ev",
            "__ZNK8firebase9firestore4core21DocumentViewChangeSet10GetChangesEv",
            "__ZN8firebase9firestore5local20LevelDbMutationQueue29NextMutationBatchAfterBatchIdEi",
            "__ZN8firebase9firestore4util4Task14AwaitIfRunningEv",
            "__ZNK8firebase9firestore35_google_protobuf_Struct_FieldsEntry8ToStringEi",
            "__ZN8firebase9firestore5local19MemoryMutationQueue38AllMutationBatchesAffectingDocumentKeyERKNS0_5model11DocumentKeyE",
            "__ZNK8firebase9firestore4core11FieldFilter3Rep10GetFiltersEv",
            "__ZN8firebase9firestore5local12ReferenceSet13AddReferencesERKNS0_9immutable9SortedSetINS0_5model11DocumentKeyENS0_4util10ComparatorIS6_EEEEi",
            "__ZNK8firebase9firestore4core5Bound18SortsAfterDocumentERKNSt3__16vectorINS1_7OrderByENS3_9allocatorIS5_EEEERKNS0_5model8DocumentE",
            "__ZN8firebase9firestore5local17MemoryPersistence16GetMutationQueueERKNS0_11credentials4UserEPNS1_12IndexManagerE",
            "__ZN8firebase9firestore5local17MemoryPersistenceD2Ev",
            "__ZN8firebase9firestore3api9Firestore12worker_queueEv",
            "__ZN8firebase9firestore5local9LruParams7DefaultEv",
            "__ZNK8firebase9firestore5local18LocalDocumentsView26RecalculateAndSaveOverlaysEONSt3__113unordered_mapINS0_5model11DocumentKeyEPNS5_15MutableDocumentENS5_15DocumentKeyHashENS3_8equal_toIS6_EENS3_9allocatorINS3_4pairIKS6_S8_EEEEEE",
            "__ZN8firebase9firestore6remote11RemoteStore18AddToWritePipelineERKNS0_5model13MutationBatchE",
            "__ZN8firebase9firestore3apineERKNS1_23PersistentCacheSettingsES4_",
            "__ZNK8firebase9firestore6remote10Serializer19DecodeMaybeDocumentEPNS0_4util11ReadContextERNS0_46_google_firestore_v1_BatchGetDocumentsResponseE",
            "__ZN8firebase9firestore5model11DocumentKeyC2ERKNS1_12ResourcePathE",
            "__ZN8firebase9firestore6remote19GrpcStreamingReader17FinishImmediatelyEv",
            "__ZNK8firebase9firestore3api17DocumentReference6ParentEv",
            "__ZN8firebase9firestore5local18LocalDocumentsView11GetDocumentERKNS0_5model11DocumentKeyERKNSt3__16vectorINS3_13MutationBatchENS7_9allocatorIS9_EEEE",
            "__ZThn8_N8firebase9firestore6remote11RemoteStore18OnWatchStreamCloseERKNS0_4util6StatusE",
            "__ZN8firebase9firestore4util10AsyncQueue15ExecuteBlockingERKNSt3__18functionIFvvEEE",
            "__ZN8firebase9firestore4util8Executor12CreateSerialEPKc",
            "__ZN8firebase9firestore5modelgtERKNS1_11DocumentKeyES4_",
            "__ZNK8firebase9firestore4core4View22ComputeDocumentChangesERKNS0_9immutable9SortedMapINS0_5model11DocumentKeyENS5_8DocumentENS0_4util10ComparatorIS6_EEEERKN4absl12lts_202401168optionalINS1_19ViewDocumentChangesEEE",
            "__ZN8firebase9firestore4util6StatusC2ENS0_5ErrorENSt3__112basic_stringIcNS4_11char_traitsIcEENS4_9allocatorIcEEEE",
            "__ZN8firebase9firestore5local19MemoryMutationQueue16AcknowledgeBatchERKNS0_5model13MutationBatchERKNS0_6nanopb10ByteStringE",
            "__ZN8firebase9firestore5local18LocalDocumentsView33GetDocumentsMatchingDocumentQueryERKNS0_5model12ResourcePathE",
            "__ZN8firebase9firestore6remote13GrpcUnaryCallD0Ev",
            "__ZN8firebase9firestore5local9LruParams13WithCacheSizeEx",
            "__ZN8firebase9firestore3apieqERKNS1_17DocumentReferenceES4_",
            "__ZN8firebase9firestore4core17TargetIdGenerator6NextIdEv",
            "__ZN8firebase9firestore6remote10Serializer12EncodeStringERKNSt3__112basic_stringIcNS3_11char_traitsIcEENS3_9allocatorIcEEEE",
            "__ZNK8firebase9firestore42_google_firestore_v1_DeleteDocumentRequest8ToStringEi",
            "__ZNK8firebase9firestore4core5Query12AddingFilterENS1_6FilterE",
            "__ZN8firebase9firestore4core15FirestoreClient26GetDocumentsFromLocalCacheERKNS0_3api5QueryEONSt3__110unique_ptrINS1_13EventListenerINS3_13QuerySnapshotEEENS7_14default_deleteISB_EEEE",
            "__ZN8firebase9firestore5local17MemoryPersistence12target_cacheEv",
            "__ZNK8firebase9firestore3api5Query27ParseExpectedReferenceValueERKNS0_26_google_firestore_v1_ValueERKNSt3__18functionIFNS6_12basic_stringIcNS6_11char_traitsIcEENS6_9allocatorIcEEEEvEEE",
            "__ZNK8firebase9firestore6bundle16BundleSerializer18DecodeBundledQueryERNS0_4util10JsonReaderERKN8nlohmann10basic_jsonINSt3__13mapENS8_6vectorENS8_12basic_stringIcNS8_11char_traitsIcEENS8_9allocatorIcEEEEbxydSE_NS6_14adl_serializerENSA_IhNSE_IhEEEEEE",
            "__ZN8firebase9firestore4util11OrderedCode23WriteInfinityDecreasingEPNSt3__112basic_stringIcNS3_11char_traitsIcEENS3_9allocatorIcEEEE",
            "__ZN8firebase9firestore5model15MutableDocument15UnknownDocumentERKNS1_11DocumentKeyERKNS1_15SnapshotVersionE",
            "__ZN8firebase9firestore5local27LevelDbLruReferenceDelegate8IsPinnedERKNS0_5model11DocumentKeyE",
            "__ZN8firebase9firestore5local26LevelDbCollectionParentKey9KeyPrefixEN4absl12lts_2024011611string_viewE",
            "__ZN8firebase9Timestamp3NowEv",
            "__ZNK8firebase9firestore44_google_firestore_v1_BeginTransactionRequest8ToStringEi",
            "__ZN8firebase9firestore6remote10GrpcStream6OnReadERKN4grpc10ByteBufferE",
            "__ZNK8firebase9firestore6remote21WatchStreamSerializer17DecodeWatchChangeEPNS0_6nanopb6ReaderERNS0_35_google_firestore_v1_ListenResponseE",
            "__ZNK8firebase9firestore4core5Query23AsCollectionQueryAtPathENS0_5model12ResourcePathE",
            "__ZN8firebase9firestore6nanopb16ByteStringWriterC1Ev",
            "__ZN8firebase9firestore4util12CreateAutoIdEv",
            "__ZN8firebase9firestore5local27LevelDbDocumentOverlayCacheC1ERKNS0_11credentials4UserEPNS1_18LevelDbPersistenceEPNS1_15LocalSerializerE",
            "__ZN8firebase9firestore5local17MemoryTargetCache28SetLastRemoteSnapshotVersionENS0_5model15SnapshotVersionE",
            "__ZNK8firebase9firestore6remote10Serializer17DecodeQueryTargetEPNS0_4util11ReadContextERNS0_39_google_firestore_v1_Target_QueryTargetE",
            "__ZN8firebase9firestore6remoteeqERKNS1_19DocumentWatchChangeES4_",
            "__ZNK8firebase9firestore5local17MemoryTargetCache28GetLastRemoteSnapshotVersionEv",
            "__ZNK8firebase9firestore6bundle16BundleSerializer20DecodeReferenceValueERNS0_4util10JsonReaderERKNSt3__112basic_stringIcNS6_11char_traitsIcEENS6_9allocatorIcEEEE",
            "__ZN8firebase9firestore4utillsERNSt3__113basic_ostreamIcNS2_11char_traitsIcEEEERKNS1_6StatusE",
            "__ZN8firebase9firestore4util10LogicUtils17ApplyDistributionERKNS0_4core6FilterES6_",
            "__ZN8firebase9firestore6remote34CreateFirebaseMetadataProviderNoOpEv",
            "__ZN8firebase9firestore5local26LevelDbRemoteDocumentCacheD2Ev",
            "__ZN8firebaselsERNSt3__113basic_ostreamIcNS0_11char_traitsIcEEEERKNS_9TimestampE",
            "__ZNK8firebase9firestore3api16DocumentSnapshot6existsEv",
            "__ZN8firebase9firestore4util19ExecutorLibdispatch15PopFromScheduleEv",
            "__ZN8firebase9firestore5local26LevelDbCollectionParentKey6DecodeEN4absl12lts_2024011611string_viewE",
            "__ZN8firebase9firestore3api9FirestoreD1Ev",
            "__ZNK8firebase9firestore5index10IndexEntry4HashEv",
            "__ZN8firebase9firestore5model15MutableDocument13FoundDocumentENS1_11DocumentKeyERKNS1_15SnapshotVersionENS1_11ObjectValueE",
            "__ZN8firebase9firestore5local13LevelDbOpenerC1ENS0_4core12DatabaseInfoENS0_4util4PathE",
            "__ZNK8firebase9firestore5local20DocumentKeyReference8ToStringEv",
            "__ZN8firebase9firestore4core15FirestoreClient25GetDocumentFromLocalCacheERKNS0_3api17DocumentReferenceEONSt3__110unique_ptrINS1_13EventListenerINS3_16DocumentSnapshotEEENS7_14default_deleteISB_EEEE",
            "__ZN8firebase9firestore4core12EventManagerC2EPNS1_16QueryEventSourceE",
            "__ZN8firebase9firestore5model13GetUpperBoundEj",
            "__ZN8firebase9firestore6remote11WriteStream17NotifyStreamCloseERKNS0_4util6StatusE",
            "__ZN8firebase9firestore6remote16ByteBufferReaderC1ERKN4grpc10ByteBufferE",
            "__ZN8firebase9firestore4util10AsyncQueue19EnterRestrictedModeEv",
            "__ZN8firebase9firestore4core11FieldFilter3RepC2ENS0_5model9FieldPathENS2_8OperatorENS0_6nanopb13SharedMessageINS0_26_google_firestore_v1_ValueEEE",
            "__ZN8firebase9firestore6remote6Stream12OnStreamReadERKN4grpc10ByteBufferE",
            "__ZNK8firebase9firestore5model11DocumentKey18HasCollectionGroupEN4absl12lts_2024011611string_viewE",
            "__ZNK8firebase9firestore21_firestore_NamedQuery8ToStringEi",
            "__ZN8firebase9TimestampC2Exi",
            "__ZNK8firebase9firestore3api23PersistentCacheSettings4HashEv",
            "__ZN8firebase9firestore5local27LevelDbLruReferenceDelegate15RemoveReferenceERKNS0_5model11DocumentKeyE",
            "__ZNK8firebase9firestore5local27LevelDbDocumentOverlayCache10GetOverlayERKNS1_25LevelDbDocumentOverlayKeyE",
            "__ZN8firebase9firestore5model11DocumentSetC2EONS1_18DocumentComparatorE",
            "__ZN8firebase9firestore6nanopb8internal6IndentEii",
            "__ZN8firebase9firestore4util8internal18StringFormatPiecesEPKcSt16initializer_listIN4absl12lts_2024011611string_viewEE",
            "__ZN8firebase9firestore4util10JsonReader14RequiredObjectEPKcRKN8nlohmann10basic_jsonINSt3__13mapENS7_6vectorENS7_12basic_stringIcNS7_11char_traitsIcEENS7_9allocatorIcEEEEbxydSD_NS5_14adl_serializerENS9_IhNSD_IhEEEEEE",
            "__ZN8firebase9firestore5model11ObjectValueC2Ev",
            "__ZN8firebase9firestore6remote10GrpcStream29FastFinishCompletionsBlockingEv",
            "__ZNK8firebase9firestore46_google_firestore_v1_BatchGetDocumentsResponse8ToStringEi",
            "__ZNK8firebase9firestore5local26LevelDbRemoteDocumentCache6GetAllERKNS0_9immutable9SortedSetINS0_5model11DocumentKeyENS0_4util10ComparatorIS6_EEEE",
            "__ZN8firebase9firestore6remote14GrpcCompletion8CompleteEb",
            "__ZN8firebase9firestore3api8Settings17CopyCacheSettingsERKNS1_18LocalCacheSettingsE",
            "__ZN8firebase9firestore5local26MemoryLruReferenceDelegate12RemoveTargetERKNS1_10TargetDataE",
            "__ZNK8firebase9firestore5local15LocalSerializer21DecodeUnknownDocumentEPNS0_6nanopb6ReaderERKNS0_33_firestore_client_UnknownDocumentE",
            "__ZN8firebase9firestore5local20LevelDbMutationQueue18ParseMutationBatchEN4absl12lts_2024011611string_viewE",
            "__ZN8firebase9firestore6remote19ConnectivityMonitor20MaybeInvokeCallbacksENS2_13NetworkStatusE",
            "__ZN8firebase9firestore3api25QueryListenerRegistrationC2ENSt3__110shared_ptrINS0_4core15FirestoreClientEEENS4_INS5_18AsyncEventListenerINS5_12ViewSnapshotEEEEENS4_INS5_13QueryListenerEEE",
            "__ZN8firebase9firestore6nanopb10ByteStringC1EN4absl12lts_2024011611string_viewE",
            "__ZN8firebase9firestore4core11FieldFilterC2ERKNS1_6FilterE",
            "__ZN8firebase9firestore3api9Firestore13EnableNetworkENSt3__18functionIFvNS0_4util6StatusEEEE",
            "__ZN8firebase9firestore4core10SyncEngine16ApplyRemoteEventERKNS0_6remote11RemoteEventE",
            "__ZNK8firebase9firestore6remote10Serializer13EncodeFiltersERKNSt3__16vectorINS0_4core6FilterENS3_9allocatorIS6_EEEE",
            "__ZN8firebase9firestore4util11ExecutorStdC1Ei",
            "__ZN8firebase9firestore6bundle12BundleReaderC2ENS1_16BundleSerializerENSt3__110unique_ptrINS0_4util10ByteStreamENS4_14default_deleteIS7_EEEE",
            "__ZN8firebase9firestore6remote18ExponentialBackoffC1ERKNSt3__110shared_ptrINS0_4util10AsyncQueueEEENS5_7TimerIdE",
            "__ZNK8firebase9firestore6remote21WatchChangeAggregator12GetTargetIdsERKNS1_17WatchTargetChangeE",
            "__ZN8firebase9firestore4core22ArrayContainsAnyFilterC2ERKNS0_5model9FieldPathENS0_6nanopb13SharedMessageINS0_26_google_firestore_v1_ValueEEE",
            "__ZNK8firebase9firestore27_google_firestore_v1_Target8ToStringEi",
            "__ZN8firebase9firestore6remote18OnlineStateTracker24HandleWatchStreamFailureERKNS0_4util6StatusE",
            "__ZNK8firebase9firestore5model11SetMutation3Rep21ApplyToRemoteDocumentERNS1_15MutableDocumentERKNS1_14MutationResultE",
            "__ZN8firebase9firestore4core11Transaction21EnsureCommitNotCalledEv",
            "__ZN8firebase9firestore5local18LevelDbPersistenceC1ENSt3__110unique_ptrIN7leveldb2DBENS3_14default_deleteIS6_EEEENS0_4util4PathENS3_3setINS3_12basic_stringIcNS3_11char_traitsIcEENS3_9allocatorIcEEEENS3_4lessISI_EENSG_ISI_EEEENS1_15LocalSerializerERKNS1_9LruParamsE",
            "__ZN8firebase9firestore5local17MemoryTargetCache13RemoveTargetsExRKNSt3__113unordered_mapIiNS1_10TargetDataENS3_4hashIiEENS3_8equal_toIiEENS3_9allocatorINS3_4pairIKiS5_EEEEEE",
            "__ZNK8firebase9firestore3api9Firestore8settingsEv",
            "__ZN8firebase9firestore5model18TransformOperationC1ENSt3__110shared_ptrIKNS2_3RepEEE",
            "__ZNK8firebase9firestore5local26MemoryDocumentOverlayCache10GetOverlayERKNS0_5model11DocumentKeyE",
            "__ZN8firebase9firestore6remote6Stream5CloseERKNS0_4util6StatusE",
            "__ZN8firebase9firestore5model12Precondition6ExistsEb",
            "__ZNK8firebase9firestore5local26LevelDbRemoteDocumentCache6GetAllERKNSt3__112basic_stringIcNS3_11char_traitsIcEENS3_9allocatorIcEEEERKNS0_5model11IndexOffsetEm",
            "__ZNK8firebase9firestore5local20LevelDbMutationQueue18mutation_batch_keyEi",
            "__ZN8firebase9firestore5model12PreconditionC1ENS2_4TypeENS1_15SnapshotVersionEb",
            "__ZN8firebase9firestore6remote11WatchStream16CreateGrpcStreamEPNS1_14GrpcConnectionERKNS0_11credentials9AuthTokenERKNSt3__112basic_stringIcNS9_11char_traitsIcEENS9_9allocatorIcEEEE",
            "__ZNK8firebase9firestore26_google_firestore_v1_Write8ToStringEi",
            "__ZN8firebase9firestore5local20LevelDbMutationQueue23PerformConsistencyCheckEv",
            "__ZN8firebase9firestore6remote29FirebaseMetadataProviderApple14UpdateMetadataERN4grpc13ClientContextE",
            "__ZN8firebase9firestore6remote9Datastore16HandleCallStatusERKNS0_4util6StatusE",
            "__ZN8firebase9firestore6nanopb12StringReaderC2EN4absl12lts_2024011611string_viewE",
            "__ZN8firebase9firestore4core10SyncEngine29RegisterPendingWritesCallbackENSt3__18functionIFvNS0_4util6StatusEEEE",
            "__ZN8firebase9firestore5local10LocalStore18GetLastStreamTokenEv",
            "__ZNO8firebase9firestore4core16ParseAccumulator10UpdateDataENS0_5model11ObjectValueE",
            "__ZN8firebase9firestore4util13ByteStreamCpp12ToReadResultERKNSt3__112basic_stringIcNS3_11char_traitsIcEENS3_9allocatorIcEEEE",
            "__ZN8firebase9firestore5local24LevelDbDocumentTargetKey3KeyERKNS0_5model11DocumentKeyEi",
            "__ZN8firebase9firestore5model15SnapshotVersionC1ERKNS_9TimestampE",
            "__ZN8firebase9firestore4util11OrderedCode21WriteDoubleDecreasingEPNSt3__112basic_stringIcNS3_11char_traitsIcEENS3_9allocatorIcEEEEd",
            "__ZNK8firebase9firestore5local27LevelDbDocumentOverlayCache28ForEachKeyWithLargestBatchIdEiNSt3__18functionIFvONS1_25LevelDbDocumentOverlayKeyEEEE",
            "__ZN8firebase9firestore5model8MaxValueEv",
            "__ZNK8firebase9firestore4core5Query29MatchesPathAndCollectionGroupERKNS0_5model8DocumentE",
            "__ZN8firebase9firestore4util11OrderedCode21WriteStringDecreasingEPNSt3__112basic_stringIcNS3_11char_traitsIcEENS3_9allocatorIcEEEEN4absl12lts_2024011611string_viewE",
            "__ZN8firebase9firestore6remote11TargetState11MarkCurrentEv",
            "__ZN8firebase9firestore5model11ObjectValue6SetAllENSt3__13mapINS1_9FieldPathEN4absl12lts_202401168optionalINS0_6nanopb7MessageINS0_26_google_firestore_v1_ValueEEEEENS3_4lessIS5_EENS3_9allocatorINS3_4pairIKS5_SD_EEEEEE",
            "__ZN8firebase9firestore5modellsERNSt3__113basic_ostreamIcNS2_11char_traitsIcEEEERKNS1_8DocumentE",
            "__ZNK8firebase9firestore5local15LocalSerializer16EncodeNoDocumentERKNS0_5model15MutableDocumentE",
            "__ZN8firebase9firestore5local26MemoryLruReferenceDelegate15RemoveReferenceERKNS0_5model11DocumentKeyE",
            "__ZNK8firebase9firestore5local15LocalSerializer19DecodeMutationBatchEPNS0_6nanopb6ReaderERNS0_28_firestore_client_WriteBatchE",
            "__ZN8firebase9firestore5local18LevelDbTargetCacheC1EPNS1_18LevelDbPersistenceEPNS1_15LocalSerializerE",
            "__ZNK8firebase9firestore3api19CollectionReference13collection_idEv",
            "__ZN8firebase9firestore4util18ImmediateSuccessorEN4absl12lts_2024011611string_viewE",
            "__ZN8firebase9firestore4core4ViewC1ENS1_5QueryENS0_9immutable9SortedSetINS0_5model11DocumentKeyENS0_4util10ComparatorIS7_EEEE",
            "__ZN8firebase9firestore6nanopb14MakeStringViewERKNS1_10ByteStringE",
            "__ZN8firebase9firestore5local18LevelDbMutationKey6DecodeEN4absl12lts_2024011611string_viewE",
            "__ZN8firebase9firestore5local18LevelDbTransaction11NewIteratorEv",
            "__ZNK8firebase9firestore3api16DocumentSnapshot8GetValueERKNS0_5model9FieldPathE",
            "__ZN8firebase9firestore5modeleqERKNS1_14AggregateAliasES4_",
            "__ZN8firebase9firestore6remote11TargetState19ClearPendingChangesEv",
            "__ZN8firebase9firestore4core12ParseContext20AddToFieldTransformsENS0_5model9FieldPathENS3_18TransformOperationE",
            "__ZNK8firebase9firestore5model25NumericIncrementTransform7operandEv",
            "__ZNK8firebase9firestore37_google_firestore_v1_RunQueryResponse8ToStringEi",
            "__ZN8firebase9firestore5local20LevelDbIndexEntryKey9KeyPrefixEv",
            "__ZN8firebase9firestore6remote14GrpcConnection16EnsureActiveStubEv",
            "__ZN8firebase9firestore5local24LevelDbDocumentTargetKey6DecodeEN4absl12lts_2024011611string_viewE",
            "__ZN8firebase9firestore5local18MemoryIndexManager21UpdateCollectionGroupERKNSt3__112basic_stringIcNS3_11char_traitsIcEENS3_9allocatorIcEEEENS0_5model11IndexOffsetE",
            "__ZNK8firebase9firestore5model14FieldTransformeqERKS2_",
            "__ZN8firebase9firestore5local18LevelDbMutationKey9KeyPrefixEv",
            "__ZNK8firebase9firestore6remote21WatchStreamSerializer13ParseResponseEPNS0_6nanopb6ReaderE",
            "__ZN8firebase9firestore5local17MemoryTargetCache9AddTargetERKNS1_10TargetDataE",
            "__ZN8firebase9firestore5local18MemoryIndexManager21DeleteAllFieldIndexesEv",
            "__ZN8firebase9firestore6nanopb10ByteStringC2ERKS2_",
            "__ZN8firebase9firestore5local17MemoryPersistence8ShutdownEv",
            "__ZN8firebase9firestore4util10Filesystem18LegacyDocumentsDirEN4absl12lts_2024011611string_viewE",
            "__ZN8firebase9firestore5modellsERNSt3__113basic_ostreamIcNS2_11char_traitsIcEEEERKNS1_11DocumentKeyE",
            "__ZN8firebase9firestore6remote21WatchChangeAggregator17CreateRemoteEventERKNS0_5model15SnapshotVersionE",
            "__ZN8firebase9firestore5local19LruGarbageCollector20RunGarbageCollectionERKNSt3__113unordered_mapIiNS1_10TargetDataENS3_4hashIiEENS3_8equal_toIiEENS3_9allocatorINS3_4pairIKiS5_EEEEEE",
            "__ZN8firebase9firestore5local19LevelDbIndexManager13AddFieldIndexERKNS0_5model10FieldIndexE",
            "__ZN8firebase9firestore5model9FieldPath16FromServerFormatERKNSt3__112basic_stringIcNS3_11char_traitsIcEENS3_9allocatorIcEEEE",
            "__ZN8firebase9firestore5local17LevelDbMigrations13RunMigrationsEPN7leveldb2DBERKNS1_15LocalSerializerE",
            "__ZN8firebase9firestore5local28LevelDbIndexConfigurationKey9KeyPrefixEv",
            "__ZN8firebase9firestore6nanopb10ByteString4TakeEP16pb_bytes_array_s",
            "__ZN8firebase9firestore6remote14GrpcCompletion17WaitUntilOffQueueENSt3__16chrono8durationIxNS3_5ratioILl1ELl1000EEEEE",
            "__ZN8firebase9firestore12EnumToStringENS0_50_google_firestore_v1_TargetChange_TargetChangeTypeE",
            "__ZN8firebase9firestore5model12NumberEqualsERKNS0_26_google_firestore_v1_ValueES4_",
            "__ZN8firebase9firestore5local36LevelDbIndexEntryDocumentKeyIndexKey6DecodeEN4absl12lts_2024011611string_viewE",
            "__ZN8firebase9firestore4core10SyncEngine11TransactionEiRKNSt3__110shared_ptrINS0_4util10AsyncQueueEEENS3_8functionIFvNS4_INS1_11TransactionEEENSA_IFvNS5_6StatusEEEEEEESF_",
            "__ZNK8firebase9firestore5local15LocalSerializer14EncodeDocumentERKNS0_5model15MutableDocumentE",
            "__ZN8firebase9firestore12EnumToStringENS0_57_google_firestore_v1_StructuredQuery_FieldFilter_OperatorE",
            "__ZN8firebase9firestore5local20LevelDbIndexEntryKey9KeyPrefixEi",
            "__ZN8firebase9firestore6remote9Datastore5StartEv",
            "__ZN8firebase9firestore5local26MemoryDocumentOverlayCache12SaveOverlaysEiRKNSt3__113unordered_mapINS0_5model11DocumentKeyENS5_8MutationENS5_15DocumentKeyHashENS3_8equal_toIS6_EENS3_9allocatorINS3_4pairIKS6_S7_EEEEEE",
            "__ZN8firebase9firestore4util19ExecutorLibdispatch12OnCompletionEPNS1_4TaskE",
            "__ZNK8firebase9firestore33_google_firestore_v1_WriteRequest8ToStringEi",
            "__ZNK8firebase9firestore4core11FieldFilter3Rep6EqualsERKNS1_6Filter3RepE",
            "__ZNK8firebase9firestore5model11SetMutation3Rep6EqualsERKNS1_8Mutation3RepE",
            "__ZN8firebase9firestore11credentials35FirebaseAppCheckCredentialsProviderC2EP6FIRAppPU29objcproto18FIRAppCheckInterop11objc_object",
            "__ZN8firebase9firestore4util6Status11FromNSErrorEP7NSError",
            "__ZNK8firebase9firestore5local15LocalSerializer24DecodeFieldIndexSegmentsEPNS0_6nanopb6ReaderERNS0_32_google_firestore_admin_v1_IndexE",
            "__ZN8firebase9firestore3apineERKNS1_21MemoryEagerGcSettingsES4_",
            "__ZNK8firebase9firestore5local10ProtoSizer17CalculateByteSizeERKNS0_5model13MutationBatchE",
            "__ZNK8firebase9firestore4core8InFilter3Rep7MatchesERKNS0_5model8DocumentE",
            "__ZNK8firebase9firestore6remote10Serializer18IsLocalDocumentKeyEN4absl12lts_2024011611string_viewE",
            "__ZNK8firebase9firestore5local10TargetData18WithSequenceNumberEx",
            "__ZNK8firebase9firestore45_google_firestore_v1_WriteRequest_LabelsEntry8ToStringEi",
            "__ZN8firebase9firestore4core10SyncEngine22RemoveAndCleanupTargetEiNS0_4util6StatusE",
            "__ZN8firebase9firestore5local18LevelDbPersistence6CreateENS0_4util4PathENS1_15LocalSerializerERKNS1_9LruParamsE",
            "__ZN8firebase9firestore5local17MemoryPersistence34ReleaseOtherUserSpecificComponentsERKNSt3__112basic_stringIcNS3_11char_traitsIcEENS3_9allocatorIcEEEE",
            "__ZN8firebase9firestore6remote10GrpcStream5StartEv",
            "__ZNK8firebase9firestore4core5Query10limit_typeEv",
            "__ZN8firebase9firestore4core15FirestoreClient17TerminateInternalEv",
            "__ZN8firebase9firestore4core17TransactionRunnerC1ERKNSt3__110shared_ptrINS0_4util10AsyncQueueEEEPNS0_6remote11RemoteStoreENS3_8functionIFvNS4_INS1_11TransactionEEENSD_IFvNS5_6StatusEEEEEEESI_i",
            "__ZN8firebase9firestore5local18LocalDocumentsView40GetDocumentsMatchingCollectionGroupQueryERKNS0_4core5QueryERKNS0_5model11IndexOffsetERN4absl12lts_202401168optionalINS1_12QueryContextEEE",
            "__ZN8firebase9firestore6remote9Datastore17RunAggregateQueryERKNS0_4core5QueryERKNSt3__16vectorINS0_5model14AggregateFieldENS7_9allocatorISA_EEEEONS7_8functionIFvRKNS0_4util8StatusOrINS9_11ObjectValueEEEEEE",
            "__ZN8firebase9firestore6remote11RemoteStore14RestartNetworkEv",
            "__ZNK8firebase9firestore5model14VerifyMutation3Rep16ApplyToLocalViewERNS1_15MutableDocumentEN4absl12lts_202401168optionalINS1_9FieldMaskEEERKNS_9TimestampE",
            "__ZN8firebase9firestore4util11ExecutorStd12NextIdLockedEv",
            "__ZN8firebase9firestore6remoteeqERKNS1_26ExistenceFilterWatchChangeES4_",
            "__ZN8firebase9firestore6remote11RemoteStore22DisableNetworkInternalEv",
            "__ZN8firebase9firestore6remote11WriteStream16CreateGrpcStreamEPNS1_14GrpcConnectionERKNS0_11credentials9AuthTokenERKNSt3__112basic_stringIcNS9_11char_traitsIcEENS9_9allocatorIcEEEE",
            "__ZNK8firebase9firestore6bundle16BundleSerializer16DecodeArrayValueERNS0_4util10JsonReaderERKN8nlohmann10basic_jsonINSt3__13mapENS8_6vectorENS8_12basic_stringIcNS8_11char_traitsIcEENS8_9allocatorIcEEEEbxydSE_NS6_14adl_serializerENSA_IhNSE_IhEEEEEE",
            "__ZN8firebase9firestore4core17TargetIdGenerator4seekEi",
            "__ZN8firebase9firestore3api16MakeFIRTimestampERKNS_9TimestampE",
            "__ZN8firebase9firestore3api9Firestore22EnsureClientConfiguredEv",
            "__ZN8firebase9firestore5local15IndexBackfillerC2Ev",
            "__ZN8firebase9firestore5local18LevelDbMutationKey3KeyEN4absl12lts_2024011611string_viewEi",
            "__ZN8firebase9firestore4core11Transaction6UpdateERKNS0_5model11DocumentKeyEONS1_16ParsedUpdateDataE",
            "__ZN8firebase9firestore12EnumToStringENS0_55_google_firestore_admin_v1_Index_IndexField_ArrayConfigE",
            "__ZNK8firebase9firestore5local15LocalSerializer24EncodeFieldIndexSegmentsERKNSt3__16vectorINS0_5model7SegmentENS3_9allocatorIS6_EEEE",
            "__ZN8firebase9firestore4core15FirestoreClientD2Ev",
            "__ZN8firebase9firestore5local10LocalStore13GetTargetDataERKNS0_4core6TargetE",
            "__ZN8firebase9firestore5local23LevelDbDataMigrationKey3KeyEN4absl12lts_2024011611string_viewE",
            "__ZNK8firebase9firestore6remote10Serializer12EncodeTargetERKNS0_5local10TargetDataE",
            "__ZN8firebase9firestore4util10Filesystem7TempDirEv",
            "__ZNK8firebase9firestore4core6Target8ToStringEv",
            "__ZN8firebase9firestore4core13QueryListenerC2ENS1_5QueryENS1_13ListenOptionsEONSt3__110shared_ptrINS1_13EventListenerINS1_12ViewSnapshotEEEEE",
            "__ZN8firebase9firestore5local18LevelDbTargetCache12SaveMetadataEv",
            "__ZN8firebase9firestore5local26MemoryLruReferenceDelegate19UpdateLimboDocumentERKNS0_5model11DocumentKeyE",
            "__ZN8firebase9firestore5model14ArrayTransformC1ERKNS1_18TransformOperationE",
            "__ZNK8firebase9firestore6remote11BloomFilter13Md5HashDigestEN4absl12lts_2024011611string_viewE",
            "__ZN8firebase9firestore6remote11WriteStreamC1ERKNSt3__110shared_ptrINS0_4util10AsyncQueueEEENS4_INS0_11credentials19CredentialsProviderINSA_9AuthTokenENSA_4UserEEEEENS4_INSB_INS3_12basic_stringIcNS3_11char_traitsIcEENS3_9allocatorIcEEEESL_EEEENS1_10SerializerEPNS1_14GrpcConnectionEPNS1_19WriteStreamCallbackE",
            "__ZN8firebase9firestore5local18LevelDbTransactionC1EPN7leveldb2DBEN4absl12lts_2024011611string_viewERKNS3_11ReadOptionsERKNS3_12WriteOptionsE",
            "__ZN8firebase9firestore5local10LocalStoreD1Ev",
            "__ZN8firebase9firestore6remote21WatchChangeAggregator21HandleExistenceFilterERKNS1_26ExistenceFilterWatchChangeE",
            "__ZN8firebase9firestore5local24LevelDbDocumentTargetKey9KeyPrefixERKNS0_5model12ResourcePathE",
            "__ZN8firebase9firestore3api10WriteBatch7SetDataERKNS1_17DocumentReferenceEONS0_4core13ParsedSetDataE",
            "__ZN8firebase9firestore5local12ReferenceSet19RemoveAllReferencesEv",
            "__ZN8firebase9firestore5model25NumericIncrementTransformC2ERKNS1_18TransformOperationE",
            "__ZNK8firebase9firestore35_google_firestore_v1_DocumentRemove8ToStringEi",
            "__ZN8firebase9firestore4util10JsonReader14RequiredDoubleEPKcRKN8nlohmann10basic_jsonINSt3__13mapENS7_6vectorENS7_12basic_stringIcNS7_11char_traitsIcEENS7_9allocatorIcEEEEbxydSD_NS5_14adl_serializerENS9_IhNSD_IhEEEEEE",
            "__ZNO8firebase9firestore4core16ParseAccumulator9MergeDataENS0_5model11ObjectValueENS3_9FieldMaskE",
            "__ZNK8firebase9firestore3api5Query9AggregateEONSt3__16vectorINS0_5model14AggregateFieldENS3_9allocatorIS6_EEEE",
            "__ZN8firebase9firestore5local18MemoryIndexManager20GetCollectionParentsERKNSt3__112basic_stringIcNS3_11char_traitsIcEENS3_9allocatorIcEEEE",
            "__ZN8firebase9firestore6remote16ByteBufferWriterC1Ev",
            "__ZNK8firebase9firestore4core4View27ShouldWaitForSyncedDocumentERKNS0_5model8DocumentES6_",
            "__ZNK8firebase9firestore5model19MutationBatchResult8ToStringEv",
            "__ZN8firebase9firestore5local20LevelDbMutationQueueC1ERKNS0_11credentials4UserEPNS1_18LevelDbPersistenceEPNS1_12IndexManagerEPNS1_15LocalSerializerE",
            "__ZNK8firebase9firestore6remote10Serializer12EncodeCursorERKNS0_6nanopb13SharedMessageINS0_31_google_firestore_v1_ArrayValueEEEb",
            "__ZNK8firebase9firestore6remote10Serializer18DecodeResourceNameEPNS0_4util11ReadContextEN4absl12lts_2024011611string_viewE",
            "__ZNK8firebase9firestore5model15MutableDocument5CloneEv",
            "__ZN8firebase9firestore3api14LoadBundleTask7ObserveENSt3__18functionIFvNS1_22LoadBundleTaskProgressEEEE",
            "__ZN8firebase9firestore4core16ParsedUpdateDataC2ENS0_5model11ObjectValueENS3_9FieldMaskENSt3__16vectorINS3_14FieldTransformENS6_9allocatorIS8_EEEE",
            "__ZNK8firebase9firestore28_firestore_client_WriteBatch8ToStringEi",
            "__ZN8firebase9firestore12EnumToStringENS0_38_google_firestore_admin_v1_Index_StateE",
            "__ZN8firebase9firestore6nanopb10ByteStringC2ESt16initializer_listIhE",
            "__ZN8firebase9firestore5local23LevelDbMutationQueueKey3KeyEN4absl12lts_2024011611string_viewE",
            "__ZN8firebase9firestore3api9Firestore11GetDocumentERKNSt3__112basic_stringIcNS3_11char_traitsIcEENS3_9allocatorIcEEEE",
            "__ZN8firebase9firestore3api9Firestore17set_user_executorENSt3__110unique_ptrINS0_4util8ExecutorENS3_14default_deleteIS6_EEEE",
            "__ZN8firebase9firestore6remote11RemoteStore5StartEv",
            "__ZN8firebase9firestore3apieqERKNS1_16SnapshotMetadataES4_",
            "__ZNK8firebase9firestore6remote10Serializer11EncodeLabelENS0_5local12QueryPurposeE",
            "__ZNK8firebase9firestore4core11FieldFilter3Rep19GetFlattenedFiltersEv",
            "__ZNK8firebase9firestore4core5Query8EndingAtENS1_5BoundE",
            "__ZN8firebase9firestore5local18LevelDbTargetCache27RemoveMatchingKeysForTargetEi",
            "__ZN8firebase9firestore6remote10GrpcStream17FinishImmediatelyEv",
            "__ZN8firebase9firestore4util11ExecutorStd20PushOnScheduleLockedENSt3__16chrono10time_pointINS4_12steady_clockENS4_8durationIxNS3_5ratioILl1ELl1000EEEEEEEiONS3_8functionIFvvEEE",
            "__ZN8firebase9firestore4util10AsyncQueueD1Ev",
            "__ZN8firebase9firestore6bundle12BundleReader16ReadJsonToBufferEm",
            "__ZN8firebase9firestore4coreeqERKNS1_5QueryES4_",
            "__ZN8firebase9firestore5local12ReferenceSet11ContainsKeyERKNS0_5model11DocumentKeyE",
            "__ZNO8firebase9firestore4core16ParseAccumulator9MergeDataENS0_5model11ObjectValueE",
            "__ZN8firebase9firestore4core13QueryListenerC1ENS1_5QueryENS1_13ListenOptionsEONSt3__110shared_ptrINS1_13EventListenerINS1_12ViewSnapshotEEEEE",
            "__ZN8firebase9firestore4util11MakeNSErrorERKNS1_6StatusE",
            "__ZN8firebase9firestore5model14VerifyMutationC1ENS1_11DocumentKeyENS1_12PreconditionE",
            "__ZN8firebase9firestore6remote11BloomFilterC2ENS0_6nanopb10ByteStringEii",
            "__ZNK8firebase9firestore5local25MemoryRemoteDocumentCache25GetDocumentsMatchingQueryERKNS0_4core5QueryERKNS0_5model11IndexOffsetERN4absl12lts_202401168optionalINS1_12QueryContextEEENSD_ImEERKNSt3__113unordered_mapINS7_11DocumentKeyENS7_7OverlayENS7_15DocumentKeyHashENSI_8equal_toISK_EENSI_9allocatorINSI_4pairIKSK_SL_EEEEEE",
            "__ZNK8firebase9firestore5model14FieldTransform4HashEv",
            "__ZNK8firebase9firestore6remote19DatastoreSerializer27EncodeAggregateQueryRequestERKNS0_4core5QueryERKNSt3__16vectorINS0_5model14AggregateFieldENS7_9allocatorISA_EEEERN4absl12lts_2024011613flat_hash_mapINS7_12basic_stringIcNS7_11char_traitsIcEENSB_IcEEEESN_NSH_18container_internal10StringHashENSO_8StringEqENSB_INS7_4pairIKSN_SN_EEEEEE",
            "__ZN8firebase9firestore3api13QuerySnapshotC1ENSt3__110shared_ptrINS1_9FirestoreEEENS0_4core5QueryEONS7_12ViewSnapshotENS1_16SnapshotMetadataE",
            "__ZNK8firebase9firestore4util6Status11IgnoreErrorEv",
            "__ZNO8firebase9firestore4core16ParsedUpdateData10ToMutationERKNS0_5model11DocumentKeyERKNS3_12PreconditionE",
            "__ZN8firebase9firestore5model18TargetIndexMatcher16BuildTargetIndexEv",
            "__ZN8firebase9firestore3api8SettingsC2ERKS2_",
            "__ZNK8firebase9firestore5local19LevelDbIndexManager15GetFieldIndexesEv",
            "__ZNK8firebase9firestore6remote11BloomFilter12MightContainEN4absl12lts_2024011611string_viewE",
            "__ZN8firebase9firestore5local18LevelDbTargetCache17DecodeTargetProtoEPNS0_6nanopb6ReaderE",
            "__ZN8firebase9firestore5local17MemoryTargetCache17CalculateByteSizeERKNS1_5SizerE",
            "__ZN8firebase9firestore5local10LocalStore18StartMutationQueueEv",
            "__ZN8firebase9firestore5local27LevelDbLruReferenceDelegate19UpdateLimboDocumentERKNS0_5model11DocumentKeyE",
            "__ZN8firebase9firestore5model12GetTypeOrderERKNS0_26_google_firestore_v1_ValueE",
            "__ZNK8firebase9firestore4util10ComparatorIN4absl12lts_2024011611string_viewEE7CompareES5_S5_",
            "__ZN8firebase9firestore6remote11RemoteStore18RaiseWatchSnapshotERKNS0_5model15SnapshotVersionE",
            "__ZN8firebase9firestore6remote10SerializerC1ENS0_5model10DatabaseIdE",
            "__ZN8firebase9firestore4core12EventManager29RemoveSnapshotsInSyncListenerERKNSt3__110shared_ptrINS1_13EventListenerINS0_4util5EmptyEEEEE",
            "__ZNK8firebase9firestore4core5Bound8ToStringEv",
            "__ZNK8firebase9firestore5local15LocalSerializer19DecodeMaybeDocumentEPNS0_6nanopb6ReaderERNS0_31_firestore_client_MaybeDocumentE",
            "__ZN8firebase9firestore5local21LevelDbQueryTargetKey9KeyPrefixEN4absl12lts_2024011611string_viewE",
            "__ZN8firebase9firestore5local27LevelDbLruReferenceDelegate22OnTransactionCommittedEv",
            "__ZN8firebase9firestore6nanopb12StringReaderC1ERKNS1_10ByteStringE",
            "__ZN8firebase9firestore5model8Mutation24CalculateOverlayMutationERKNS1_15MutableDocumentERKN4absl12lts_202401168optionalINS1_9FieldMaskEEE",
            "__ZNK8firebase9firestore5model9FieldMask4HashEv",
            "__ZN8firebase9firestore4core5QueryC2ENS0_5model12ResourcePathENSt3__112basic_stringIcNS5_11char_traitsIcEENS5_9allocatorIcEEEE",
            "__ZN8firebase9firestore5local20LevelDbNamedQueryKey6DecodeEN4absl12lts_2024011611string_viewE",
            "__ZN8firebase9firestore4util8ScheduleD1Ev",
            "__ZN8firebase9firestore5local19LevelDbIndexManager12EncodeValuesERKNS0_5model10FieldIndexERKNS0_4core6TargetEN4absl12lts_202401168optionalINSt3__16vectorINS0_26_google_firestore_v1_ValueENSE_9allocatorISG_EEEEEE",
            "__ZN8firebase9firestore3api14LoadBundleTask8SetErrorERKNS0_4util6StatusE",
            "__ZThn16_N8firebase9firestore6remote11RemoteStore30OnWriteStreamHandshakeCompleteEv",
            "__ZN8firebase9firestore5local28MemoryEagerReferenceDelegate15RemoveReferenceERKNS0_5model11DocumentKeyE",
            "__ZN8firebase9firestore6remote11BloomFilter6CreateENS0_6nanopb10ByteStringEii",
            "__ZN8firebase9firestore3api17DocumentReference7SetDataEONS0_4core13ParsedSetDataENSt3__18functionIFvNS0_4util6StatusEEEE",
            "__ZN8firebase9firestore4core19ArrayContainsFilterC2ERKNS0_5model9FieldPathENS0_6nanopb13SharedMessageINS0_26_google_firestore_v1_ValueEEE",
            "__ZN8firebase9firestore5local10LocalStore5StartEv",
            "__ZN8firebase9firestore5model14CompareNumbersERKNS0_26_google_firestore_v1_ValueES4_",
            "__ZN8firebase9firestore4util11MakeNSErrorENS0_5ErrorEN4absl12lts_2024011611string_viewEP7NSError",
            "__ZN8firebase9firestore5model15MutableDocument20SetHasLocalMutationsEv",
            "__ZNK8firebase9firestore5local15LocalSerializer14DecodeDocumentEPNS0_6nanopb6ReaderERNS0_29_google_firestore_v1_DocumentEb",
            "__ZNK8firebase9firestore38_google_firestore_v1_AggregationResult8ToStringEi",
            "__ZN8firebase9Timestamp13FromTimePointENSt3__16chrono10time_pointINS2_12system_clockENS2_8durationIxNS1_5ratioILl1ELl1000000EEEEEEE",
            "__ZN8firebase9firestore5local18LevelDbPersistenceD0Ev",
            "__ZN8firebase9firestore5local26MemoryLruReferenceDelegate20OnTransactionStartedEN4absl12lts_2024011611string_viewE",
            "__ZNK8firebase9firestore4util4Path10IsAbsoluteEv",
            "__ZN8firebase9firestore4core17TransactionRunner22HandleTransactionErrorERKNSt3__110shared_ptrINS1_11TransactionEEENS0_4util6StatusE",
            "__ZN8firebase9firestore6remote18ExponentialBackoffC2ERKNSt3__110shared_ptrINS0_4util10AsyncQueueEEENS5_7TimerIdEdNS3_6chrono8durationIxNS3_5ratioILl1ELl1000EEEEESF_",
            "__ZNK8firebase9firestore3api16SnapshotMetadata4HashEv",
            "__ZNK8firebase9firestore5local18LevelDbBundleCache17GetBundleMetadataERKNSt3__112basic_stringIcNS3_11char_traitsIcEENS3_9allocatorIcEEEE",
            "__ZN8firebase9firestore5local18LevelDbBundleCacheC2EPNS1_18LevelDbPersistenceEPNS1_15LocalSerializerE",
            "__ZNK8firebase9firestore3api16DocumentSnapshot11document_idEv",
            "__ZN8firebase9firestore5local25MemoryRemoteDocumentCache23RemoveOrphanedDocumentsEPNS1_26MemoryLruReferenceDelegateEx",
            "__ZN8firebase9firestore5local27LevelDbLruReferenceDelegate12RemoveTargetERKNS1_10TargetDataE",
            "__ZN8firebase9firestore5local17LevelDbVersionKey3KeyEv",
            "__ZN8firebase9firestore5local19LevelDbIndexManager25EncodeDirectionalElementsERKNS0_5model10FieldIndexERKNS3_8DocumentE",
            "__ZN8firebase9firestore4util10AsyncQueueC2ENSt3__110unique_ptrINS1_8ExecutorENS3_14default_deleteIS5_EEEE",
            "__ZNK8firebase9firestore5local19LevelDbIndexManager12GetMinOffsetERKNSt3__112basic_stringIcNS3_11char_traitsIcEENS3_9allocatorIcEEEE",
            "__ZN8firebase9firestore5local13LevelDbOpenerC2ENS0_4core12DatabaseInfoENS0_4util4PathE",
            "__ZNK8firebase9firestore5local20LevelDbMutationQueue18mutation_queue_keyEv",
            "__ZN8firebase9firestore5model13MutationBatchC2EiNS_9TimestampENSt3__16vectorINS1_8MutationENS4_9allocatorIS6_EEEES9_",
            "__ZNK8firebase9firestore5local11QueryEngine22AppendRemainingResultsERKNS0_5model11DocumentSetERKNS0_4core5QueryERKNS3_11IndexOffsetE",
            "__ZN8firebase9firestore5model9FieldPath26FromDotSeparatedStringViewEN4absl12lts_2024011611string_viewE",
            "__ZN8firebase9firestore6remote11WriteStreamC2ERKNSt3__110shared_ptrINS0_4util10AsyncQueueEEENS4_INS0_11credentials19CredentialsProviderINSA_9AuthTokenENSA_4UserEEEEENS4_INSB_INS3_12basic_stringIcNS3_11char_traitsIcEENS3_9allocatorIcEEEESL_EEEENS1_10SerializerEPNS1_14GrpcConnectionEPNS1_19WriteStreamCallbackE",
            "__ZN8firebase9firestore5model15MutableDocument12WithReadTimeERKNS1_15SnapshotVersionE",
            "__ZNK8firebase9firestore6remote6Stream19GetDebugDescriptionEv",
            "__ZNK8firebase9firestore5model14ArrayTransform8elementsEv",
            "__ZNK8firebase9firestore35_google_firestore_v1_ListenResponse8ToStringEi",
            "__ZN8firebase9firestore5local18LevelDbTargetCache12DecodeTargetEN4absl12lts_2024011611string_viewE",
            "__ZN8firebase9firestore5modellsERNSt3__113basic_ostreamIcNS2_11char_traitsIcEEEERKNS1_10DatabaseIdE",
            "__ZN8firebase9firestore5local27LevelDbLruReferenceDelegate17CalculateByteSizeEv",
            "__ZN8firebase9firestore3api19MemoryCacheSettings20CopyMemoryGcSettingsERKNS1_30MemoryGargabeCollectorSettingsE",
            "__ZN8firebase9firestore5local18LevelDbPersistence6CreateENS0_4util4PathEiNS1_15LocalSerializerERKNS1_9LruParamsE",
            "__ZN8firebase9firestore6remote11WatchStream20NotifyStreamResponseERKN4grpc10ByteBufferE",
            "__ZN8firebase9firestore3apieqERKNS1_14DocumentChangeES4_",
            "__ZN8firebase9firestore5local17MemoryPersistence23GetDocumentOverlayCacheERKNS0_11credentials4UserE",
            "__ZN8firebase9firestore4util4Task6RetainEv",
            "__ZNK8firebase9firestore59_google_firestore_v1_AggregationResult_AggregateFieldsEntry8ToStringEi",
            "__ZNK8firebase9firestore5model18TargetIndexMatcher13MatchesFilterERKN4absl12lts_202401168optionalINS0_4core11FieldFilterEEERKNS1_7SegmentE",
            "__ZN8firebase9firestore12EnumToStringENS0_57_google_firestore_v1_StructuredQuery_UnaryFilter_OperatorE",
            "__ZN8firebase9firestore4util10Filesystem10AppDataDirEN4absl12lts_2024011611string_viewE",
            "__ZNK8firebase9firestore6nanopb10ByteString11ToHexStringEv",
            "__ZNK8firebase9firestore5local17MemoryPersistence23current_sequence_numberEv",
            "__ZN8firebase9firestore6remote10GrpcStream7OnWriteEv",
            "__ZN8firebase9firestore5local10LocalStore17StartIndexManagerEv",
            "__ZN8firebase9firestore6remote18OnlineStateTracker22HandleWatchStreamStartEv",
            "__ZNK8firebase9firestore5local27LevelDbDocumentOverlayCache25CountEntriesWithKeyPrefixERKNSt3__112basic_stringIcNS3_11char_traitsIcEENS3_9allocatorIcEEEE",
            "__ZN8firebase9firestore5local25LevelDbDocumentOverlayKey9KeyPrefixEN4absl12lts_2024011611string_viewE",
            "__ZN8firebase9firestore5local32LevelDbRemoteDocumentReadTimeKey9KeyPrefixERKNS0_5model12ResourcePathENS3_15SnapshotVersionE",
            "__ZN8firebase9firestore4corelsERNSt3__113basic_ostreamIcNS2_11char_traitsIcEEEERKNS1_9DirectionE",
            "__ZN8firebase9firestore6nanopb14MakeStringViewEPK16pb_bytes_array_s",
            "__ZNK8firebase9firestore3api9Firestore16MakeDatabaseInfoEv",
            "__ZN8firebase9firestore5model14VerifyMutationC2ENS1_11DocumentKeyENS1_12PreconditionE",
            "__ZN8firebase9firestore5model11IsNullValueERKNS0_26_google_firestore_v1_ValueE",
            "__ZN8firebase9firestore6remote6Stream15CancelIdleCheckEv",
            "__ZN8firebase9firestore5model11ObjectValueC1Ev",
            "__ZN8firebase9firestore5local16LevelDbBundleKey3KeyEN4absl12lts_2024011611string_viewE",
            "__ZN8firebase9firestore4util12MakeCallbackEU13block_pointerFvP7NSErrorE",
            "__ZN8firebase17TimestampInternal4HashERKNS_9TimestampE",
            "__ZN8firebase9firestore6remote10GrpcStream15FinishAndNotifyERKNS0_4util6StatusE",
            "__ZN8firebase9firestore5model8RefValueERKNS1_10DatabaseIdERKNS1_11DocumentKeyE",
            "__ZN8firebase9firestore4util6Status12SetMovedFromEv",
            "__ZN8firebase9firestore6remote11WatchStream15UnwatchTargetIdEi",
            "__ZN8firebase9firestore5local45LevelDbDocumentOverlayCollectionGroupIndexKey9KeyPrefixEN4absl12lts_2024011611string_viewES5_i",
            "__ZNK8firebase9firestore4util11ExecutorStd19CurrentExecutorNameEv",
            "__ZN8firebase9firestore5local11DescribeKeyERKNSt3__112basic_stringIcNS2_11char_traitsIcEENS2_9allocatorIcEEEE",
            "__ZN8firebase9firestore5local19MemoryMutationQueue14IndexOfBatchIdEi",
            "__ZN8firebase9firestore5local28MemoryEagerReferenceDelegate22OnTransactionCommittedEv",
            "__ZN8firebase9firestore5local28LevelDbIndexConfigurationKey6DecodeEN4absl12lts_2024011611string_viewE",
            "__ZNK8firebase9firestore4core7OrderBy8ToStringEv",
            "__ZN8firebase9firestore5local10LocalStore21ConfigureFieldIndexesENSt3__16vectorINS0_5model10FieldIndexENS3_9allocatorIS6_EEEE",
            "__ZN8firebase9firestore5model18DocumentComparator5ByKeyEv",
            "__ZNK8firebase9firestore20_google_protobuf_Any8ToStringEi",
            "__ZNK8firebase9firestore42_google_firestore_v1_UpdateDocumentRequest8ToStringEi",
            "__ZN8firebase9firestore11credentials4UserC2Ev",
            "__ZN8firebase9firestore4util11OrderedCode24WriteSignedNumIncreasingEPNSt3__112basic_stringIcNS3_11char_traitsIcEENS3_9allocatorIcEEEEx",
            "__ZN8firebase9firestore3api8Settings24set_local_cache_settingsERKNS1_18LocalCacheSettingsE",
            "__ZN8firebase9firestore5local17MemoryTargetCache9GetTargetERKNS0_4core6TargetE",
            "__ZN8firebase9firestore4core10SyncEngine21HandleSuccessfulWriteENS0_5model19MutationBatchResultE",
            "__ZNK8firebase9firestore5model11SetMutation3Rep16ApplyToLocalViewERNS1_15MutableDocumentEN4absl12lts_202401168optionalINS1_9FieldMaskEEERKNS_9TimestampE",
            "__ZNK8firebase9firestore5model14DeleteMutation3Rep21ApplyToRemoteDocumentERNS1_15MutableDocumentERKNS1_14MutationResultE",
            "__ZNK8firebase9firestore5model8Mutation3Rep22ServerTransformResultsERKNS1_11ObjectValueERKNS0_6nanopb7MessageINS0_31_google_firestore_v1_ArrayValueEEE",
            "__ZN8firebase9firestore5local45LevelDbDocumentOverlayCollectionGroupIndexKey9KeyPrefixEN4absl12lts_2024011611string_viewES5_",
            "__ZN8firebase9firestore8GeoPointC2Edd",
            "__ZN8firebase9firestore6remote29FirebaseMetadataProviderAppleC1EP6FIRApp",
            "__ZN8firebase9firestore5local18LocalDocumentsView25GetDocumentsMatchingQueryERKNS0_4core5QueryERKNS0_5model11IndexOffsetERN4absl12lts_202401168optionalINS1_12QueryContextEEE",
            "__ZN8firebase9firestore4util10Filesystem9CreateDirERKNS1_4PathE",
            "__ZN8firebase9firestore11credentials9AuthTokenC2Ev",
            "__ZN8firebase9firestore6nanopb8internal8ToStringEd",
            "__ZNK8firebase9firestore6remote10Serializer9DecodeKeyEPNS0_4util11ReadContextERKNS0_5model12ResourcePathE",
            "__ZN8firebase9firestore6remote9DatastoreC1ERKNS0_4core12DatabaseInfoERKNSt3__110shared_ptrINS0_4util10AsyncQueueEEENS8_INS0_11credentials19CredentialsProviderINSE_9AuthTokenENSE_4UserEEEEENS8_INSF_INS7_12basic_stringIcNS7_11char_traitsIcEENS7_9allocatorIcEEEESP_EEEEPNS1_19ConnectivityMonitorEPNS1_24FirebaseMetadataProviderE",
            "__ZNK8firebase9firestore33_firestore_client_UnknownDocument8ToStringEi",
            "__ZNK8firebase9firestore5model13PatchMutation3Rep6EqualsERKNS1_8Mutation3RepE",
            "__ZNK8firebase9firestore3api5Query40ValidateHasExplicitOrderByForLimitToLastEv",
            "__ZN8firebase9firestore3api17DocumentReferenceC1ENS0_5model12ResourcePathENSt3__110shared_ptrINS1_9FirestoreEEE",
            "__ZN8firebase9firestore6remote21WatchChangeAggregator22FilterRemovedDocumentsERKNS1_11BloomFilterEi",
            "__ZN8firebase9firestore5local26MemoryLruReferenceDelegate30EnumerateTargetSequenceNumbersERKNSt3__18functionIFvxEEE",
            "__ZN8firebase9firestore4util28StatusCheckOpHelperOutOfLineERKNS1_6StatusEPKc",
            "__ZN8firebase9firestore4util10LogicUtils28ComputeDistributedNormalFormERKNS0_4core6FilterE",
            "__ZN8firebase9firestore6remote10GrpcStream8ShutdownEv",
            "__ZN8firebase9firestore4core8InFilterC1ERKNS0_5model9FieldPathENS0_6nanopb13SharedMessageINS0_26_google_firestore_v1_ValueEEE",
            "__ZNK8firebase9firestore5index10IndexEntry9CompareToERKS2_",
            "__ZN8firebase9firestore4util19ExecutorLibdispatchC1EPU28objcproto17OS_dispatch_queue8NSObject",
            "__ZNK8firebase9firestore6remote10Serializer29EncodeCompositeFilterOperatorENS0_4core15CompositeFilter8OperatorE",
            "__ZN8firebase9firestore5local45LevelDbDocumentOverlayCollectionGroupIndexKey9KeyPrefixEN4absl12lts_2024011611string_viewE",
            "__ZN8firebase9firestore5model12Precondition10UpdateTimeENS1_15SnapshotVersionE",
            "__ZN8firebase9firestore3api24MakeFIRDocumentReferenceERKNS0_5model11DocumentKeyENSt3__110shared_ptrINS1_9FirestoreEEE",
            "__ZN8firebase9firestore4util13ByteStreamCpp9ReadUntilEcm",
            "__ZNK8firebase9firestore4core7OrderBy7CompareERKNS0_5model8DocumentES6_",
            "__ZNK8firebase9firestore4core18DocumentViewChange4HashEv",
            "__ZN8firebase9firestore4core11FieldFilter6CreateERKNS0_5model9FieldPathENS2_8OperatorENS0_6nanopb13SharedMessageINS0_26_google_firestore_v1_ValueEEE",
            "__ZN8firebase9firestore4core11Transaction13RecordVersionERKNS0_5model8DocumentE",
            "__ZNK8firebase9firestore5local15LocalSerializer12DecodeBundleEPNS0_6nanopb6ReaderERKNS0_25_firestore_BundleMetadataE",
            "__ZN8firebase9firestore5local26LevelDbDocumentMutationKey9KeyPrefixEN4absl12lts_2024011611string_viewE",
            "__ZNK8firebase9firestore5model14DeleteMutation3Rep8ToStringEv",
            "__ZNK8firebase9firestore5model9FieldMask6coversERKNS1_9FieldPathE",
            "__ZN8firebase9Timestamp9FromTimeTEl",
            "__ZN8firebase9firestore4core15FirestoreClient6CreateERKNS1_12DatabaseInfoERKNS0_3api8SettingsENSt3__110shared_ptrINS0_11credentials19CredentialsProviderINSC_9AuthTokenENSC_4UserEEEEENSB_INSD_INSA_12basic_stringIcNSA_11char_traitsIcEENSA_9allocatorIcEEEESN_EEEENSB_INS0_4util8ExecutorEEENSB_INSQ_10AsyncQueueEEENSA_10unique_ptrINS0_6remote24FirebaseMetadataProviderENSA_14default_deleteISX_EEEE",
            "__ZN8firebase9firestore4core10SyncEngine19ListenToRemoteStoreENS1_5QueryE",
            "__ZN8firebase9firestore5local11QueryEngine27SetIndexAutoCreationEnabledEb",
            "__ZNK8firebase9firestore5local10TargetData17WithExpectedCountEN4absl12lts_202401168optionalIiEE",
            "__ZN8firebase9firestore5model12Precondition4NoneEv",
            "__ZNK8firebase9firestore5model11DocumentSet7IndexOfERKNS1_11DocumentKeyE",
            "__ZN8firebase9firestore5model9DeepCloneERKNS0_31_google_firestore_v1_ArrayValueE",
            "__ZN8firebase9firestore5modeleqERKNS1_7OverlayES4_",
            "__ZN8firebase9firestore4corelsERNSt3__113basic_ostreamIcNS2_11char_traitsIcEEEERKNS1_6TargetE",
            "__ZNK8firebase9firestore3api5Query4HashEv",
            "__ZNK8firebase9firestore4core6Target14GetArrayValuesERKNS0_5model10FieldIndexE",
            "__ZNK8firebase9firestore4core11FieldFilter3Rep8ToStringEv",
            "__ZNK8firebase9firestore5local28MemoryEagerReferenceDelegate12IsReferencedERKNS0_5model11DocumentKeyE",
            "__ZN8firebase9firestore5local18LevelDbPersistence15EnsureDirectoryERKNS0_4util4PathE",
            "__ZN8firebase9firestore5model12ResourcePath14FromStringViewEN4absl12lts_2024011611string_viewE",
            "__ZNK8firebase9firestore5local10TargetData15WithResumeTokenENS0_6nanopb10ByteStringENS0_5model15SnapshotVersionE",
            "__ZNK8firebase9firestore5model9FieldPath14IsKeyFieldPathEv",
            "__ZNK8firebase9firestore4core7OrderBy11CanonicalIdEv",
            "__ZN8firebase9firestore4core10SyncEngine27UpdateTrackedLimboDocumentsERKNSt3__16vectorINS1_19LimboDocumentChangeENS3_9allocatorIS5_EEEEi",
            "__ZN8firebase9firestore3api16DocumentSnapshot12FromDocumentENSt3__110shared_ptrINS1_9FirestoreEEENS0_5model8DocumentENS1_16SnapshotMetadataE",
            "__ZNK8firebase9firestore5model8Mutation3Rep25ExtractTransformBaseValueERKNS1_8DocumentE",
            "__ZN8firebase9firestore4util10Filesystem17RecursivelyRemoveERKNS1_4PathE",
            "__ZNK8firebase9firestore3api16DocumentSnapshot4HashEv",
            "__ZNK8firebase9firestore27_google_protobuf_Int64Value8ToStringEi",
            "__ZN8firebase9firestore6nanopb10ByteStringC1EPKvm",
            "__ZN8firebase9firestore6nanopb16ByteStringWriter7ReserveEm",
            "__ZNK8firebase9firestore5local27LevelDbDocumentOverlayCache27ForEachKeyInCollectionGroupEN4absl12lts_2024011611string_viewEiNSt3__18functionIFNS2_16ForEachKeyActionEONS1_25LevelDbDocumentOverlayKeyEEEE",
            "__ZN8firebase9firestore5local18LevelDbPersistence16ClearPersistenceERKNS0_4core12DatabaseInfoE",
            "__ZNK8firebase9firestore4util6Status9ToNSErrorEv",
            "__ZN8firebase9firestore4util15ByteStreamApple11ErrorResultEv",
            "__ZNK8firebase9firestore4core6Target4HashEv",
            "__ZN8firebase9firestore5local18LocalDocumentsView12GetDocumentsERKNS0_9immutable9SortedSetINS0_5model11DocumentKeyENS0_4util10ComparatorIS6_EEEE",
            "__ZN8firebase9firestore5local26LevelDbDocumentMutationKey6DecodeEN4absl12lts_2024011611string_viewE",
            "__ZN8firebase9firestore4coreeqERKNS1_12ViewSnapshotES4_",
            "__ZN8firebase9firestore3api9Firestore20WaitForPendingWritesENSt3__18functionIFvNS0_4util6StatusEEEE",
            "__ZNK8firebase9firestore5model13MutationBatch16ApplyToLocalViewERNS1_15MutableDocumentEON4absl12lts_202401168optionalINS1_9FieldMaskEEE",
            "__ZNK8firebase9firestore6remote10Serializer25DecodeFieldFilterOperatorEPNS0_4util11ReadContextENS0_57_google_firestore_v1_StructuredQuery_FieldFilter_OperatorE",
            "__ZN8firebase9firestore4util13ByteStreamCpp4ReadEm",
            "__ZN8firebase9firestore5local18LevelDbTargetCache12ReadMetadataEPN7leveldb2DBE",
            "__ZN8firebase9firestore5local13LevelDbOpenerC1ENS0_4core12DatabaseInfoEPNS0_4util10FilesystemE",
            "__ZNK8firebase9firestore5model11ObjectValue3GetERKNSt3__112basic_stringIcNS3_11char_traitsIcEENS3_9allocatorIcEEEE",
            "__ZN8firebase9firestore4core12ParseContext14AddToFieldMaskENS0_5model9FieldPathE",
            "__ZN8firebase9firestore6remote9Datastore32RunAggregateQueryWithCredentialsERKNS0_11credentials9AuthTokenERKNSt3__112basic_stringIcNS7_11char_traitsIcEENS7_9allocatorIcEEEERKNS0_4core5QueryERKNS7_6vectorINS0_5model14AggregateFieldENSB_ISM_EEEEONS7_8functionIFvRKNS0_4util8StatusOrINSL_11ObjectValueEEEEEE",
            "__ZN8firebase9firestore5local18LevelDbPersistence6OpenDbERKNS0_4util4PathE",
            "__ZN8firebase9firestore5local44LevelDbDocumentOverlayLargestBatchIdIndexKey9KeyPrefixEN4absl12lts_2024011611string_viewE",
            "__ZN8firebase9firestore5model14FieldTransformC1ENS1_9FieldPathENS1_18TransformOperationE",
            "__ZN8firebase9firestore6remote10GrpcStream14FinishGrpcCallERKNSt3__18functionIFvRKNS3_10shared_ptrINS1_14GrpcCompletionEEEEEE",
            "__ZNK8firebase9firestore5model13MutationBatch8ToStringEv",
            "__ZN8firebase9firestore5local26LevelDbRemoteDocumentCacheC2EPNS1_18LevelDbPersistenceEPNS1_15LocalSerializerE",
            "__ZN8firebase9firestore5local18MemoryIndexManager19CreateTargetIndexesERKNS0_4core6TargetE",
            "__ZN8firebase9firestore6nanopb10ByteStringC2EPK16pb_bytes_array_s",
            "__ZN8firebase9firestore6remote13GrpcUnaryCall17FinishImmediatelyEv",
            "__ZN8firebase9firestore4util10JsonReader14OptionalObjectEPKcRKN8nlohmann10basic_jsonINSt3__13mapENS7_6vectorENS7_12basic_stringIcNS7_11char_traitsIcEENS7_9allocatorIcEEEEbxydSD_NS5_14adl_serializerENS9_IhNSD_IhEEEEEESL_",
            "__ZN8firebase9firestore4core11Transaction21MarkPermanentlyFailedEv",
            "__ZN8firebase9firestore4util10Filesystem11IsDirectoryERKNS1_4PathE",
            "__ZN8firebase9firestore5model13GetLowerBoundEj",
            "__ZN8firebase9firestore5model8Mutation3Rep22GetPostMutationVersionERKNS1_15MutableDocumentE",
            "__ZN8firebase9firestore4core10SyncEngine30StopListeningToRemoteStoreOnlyERKNS1_5QueryE",
            "__ZN8firebase9firestore5model13PatchMutationC1ERKNS1_8MutationE",
            "__ZN8firebase9firestore5model10FieldIndex15SemanticCompareERKS2_S4_",
            "__ZN8firebase9firestore4core15CompositeFilter3RepC1EONSt3__16vectorINS1_6FilterENS4_9allocatorIS6_EEEENS2_8OperatorE",
            "__ZNK8firebase9firestore4core13QueryListener23ShouldRaiseInitialEventERKNS1_12ViewSnapshotENS0_5model11OnlineStateE",
            "__ZN8firebase9firestore5local16LevelDbTargetKey3KeyEi",
            "__ZN8firebase9firestore5model14DeleteMutationC1ERKNS1_8MutationE",
            "__ZN8firebase9firestore4core10SyncEngine23HandleOnlineStateChangeENS0_5model11OnlineStateE",
            "__ZN8firebase9firestore5local28MemoryEagerReferenceDelegate19UpdateLimboDocumentERKNS0_5model11DocumentKeyE",
            "__ZN8firebase9firestore6remote11RemoteStore16StartWatchStreamEv",
            "__ZN8firebase9firestore5local19LevelDbIndexManagerC2ERKNS0_11credentials4UserEPNS1_18LevelDbPersistenceEPNS1_15LocalSerializerE",
            "__ZN8firebase9firestore5local10TargetDataC2ENS0_4core6TargetEixNS1_12QueryPurposeE",
            "__ZNK8firebase9firestore5local10ProtoSizer17CalculateByteSizeERKNS0_5model15MutableDocumentE",
            "__ZNK8firebase9firestore59_google_firestore_v1_StructuredAggregationQuery_Aggregation8ToStringEi",
            "__ZN8firebase9firestore6remote14GrpcConnection10UnregisterEPNS1_8GrpcCallE",
            "__ZNK8firebase9firestore6bundle16BundleSerializer17DecodeBoundFieldsERNS0_4util10JsonReaderERKN8nlohmann10basic_jsonINSt3__13mapENS8_6vectorENS8_12basic_stringIcNS8_11char_traitsIcEENS8_9allocatorIcEEEEbxydSE_NS6_14adl_serializerENSA_IhNSE_IhEEEEEE",
            "__ZN8firebase9firestore5local18LevelDbTargetCache5StartEv",
            "__ZN8firebase9firestore5model11DocumentKeyC1Ev",
            "__ZN8firebase9firestore4util4Task6CancelEv",
            "__ZN8firebase9firestore6remote21WatchChangeAggregator16ParseBloomFilterERKNS1_26ExistenceFilterWatchChangeE",
            "__ZN8firebase9firestore4util11OrderedCode20ReadStringOrInfinityEPN4absl12lts_2024011611string_viewEPNSt3__112basic_stringIcNS7_11char_traitsIcEENS7_9allocatorIcEEEEPb",
            "__ZNK8firebase9firestore5local19LevelDbIndexManager12GetMinOffsetERKNSt3__16vectorINS0_5model10FieldIndexENS3_9allocatorIS6_EEEE",
            "__ZN8firebase9firestore4util10AsyncQueue7EnqueueERKNSt3__18functionIFvvEEE",
            "__ZN8firebase9firestore3apieqERKNS1_19MemoryLruGcSettingsES4_",
            "__ZN8firebase9firestore4coreeqERKNS1_18DocumentViewChangeES4_",
            "__ZN8firebase9firestore4util11ExecutorStdD1Ev",
            "__ZN8firebase9firestore3api16DocumentSnapshot14FromNoDocumentENSt3__110shared_ptrINS1_9FirestoreEEENS0_5model11DocumentKeyENS1_16SnapshotMetadataE",
            "__ZNK8firebase9firestore33_google_firestore_v1_Precondition8ToStringEi",
            "__ZN8firebase9firestore4util10AsyncQueue27RunScheduledOperationsUntilENS1_7TimerIdE",
            "__ZN8firebase9firestore4util15ByteStreamApple9ReadUntilEcm",
            "__ZNK8firebase9firestore35_google_firestore_v1_DocumentDelete8ToStringEi",
            "__ZN8firebase9firestore4util10JsonReader14OptionalStringEPKcRKN8nlohmann10basic_jsonINSt3__13mapENS7_6vectorENS7_12basic_stringIcNS7_11char_traitsIcEENS7_9allocatorIcEEEEbxydSD_NS5_14adl_serializerENS9_IhNSD_IhEEEEEERKSF_",
            "__ZN8firebase9firestore4core12EventManager19RemoveQueryListenerENSt3__110shared_ptrINS1_13QueryListenerEEE",
            "__ZN8firebase9firestore5local20LevelDbMutationQueue7IsEmptyEv",
            "__ZNK8firebase9firestore4core6Target15GetSegmentCountEv",
            "__ZN8firebase9firestore4util19ExecutorLibdispatch8ScheduleENSt3__16chrono8durationIxNS3_5ratioILl1ELl1000EEEEEiONS3_8functionIFvvEEE",
            "__ZN8firebase9firestore6remote11TargetState20RecordTargetResponseEv",
            "__ZNK8firebase9firestore6bundle16BundleSerializer14DecodeDocumentERNS0_4util10JsonReaderERKN8nlohmann10basic_jsonINSt3__13mapENS8_6vectorENS8_12basic_stringIcNS8_11char_traitsIcEENS8_9allocatorIcEEEEbxydSE_NS6_14adl_serializerENSA_IhNSE_IhEEEEEE",
            "__ZN8firebase9firestore4core16ParsedUpdateDataC1ENS0_5model11ObjectValueENS3_9FieldMaskENSt3__16vectorINS3_14FieldTransformENS6_9allocatorIS8_EEEE",
            "__ZN8firebase9firestore6remote10GrpcStream12TryLastWriteEON4grpc10ByteBufferE",
            "__ZN8firebase9firestore5model14VerifyMutationC2ERKNS1_8MutationE",
            "__ZN8firebase9firestore6nanopb4swapERNS1_10ByteStringES3_",
            "__ZN8firebase9firestore4core13QueryListener14OnViewSnapshotENS1_12ViewSnapshotE",
            "__ZNK8firebase9firestore4util11ExecutorStd14IsTagScheduledEi",
            "__ZN8firebase9firestore6remote11RemoteStore17OnWatchStreamOpenEv",
            "__ZN8firebase9firestore5local20LevelDbMutationQueue16AddMutationBatchERKNS_9TimestampEONSt3__16vectorINS0_5model8MutationENS6_9allocatorIS9_EEEESD_",
            "__ZN8firebase9firestore3api9Firestore12set_settingsERKNS1_8SettingsE",
            "__ZN8firebase9firestore4util6Status9FromCauseENSt3__112basic_stringIcNS3_11char_traitsIcEENS3_9allocatorIcEEEERKS2_",
            "__ZN8firebase9firestore5local19MemoryMutationQueue39AllMutationBatchesAffectingDocumentKeysERKNS0_9immutable9SortedSetINS0_5model11DocumentKeyENS0_4util10ComparatorIS6_EEEE",
            "__ZNK8firebase9firestore18_google_rpc_Status8ToStringEi",
            "__ZNK8firebase9firestore5local15LocalSerializer13DecodeVersionEPNS0_6nanopb6ReaderERKNS0_26_google_protobuf_TimestampE",
            "__ZNK8firebase9firestore4util4Path8BasenameEv",
            "__ZN8firebase9firestore11credentials31FirebaseAuthCredentialsProvider27SetCredentialChangeListenerENSt3__18functionIFvNS1_4UserEEEE",
            "__ZNK8firebase9firestore5local27LevelDbDocumentOverlayCache32GetLargestBatchIdIndexEntryCountEv",
            "__ZN8firebase9firestore5local40LevelDbDocumentOverlayCollectionIndexKey9KeyPrefixEN4absl12lts_2024011611string_viewE",
            "__ZN8firebase9firestore5local10LocalStore16ApplyBatchResultERKNS0_5model19MutationBatchResultE",
            "__ZNK8firebase9firestore4core5Bound4HashEv",
            "__ZN8firebase9firestore5model13CompareArraysERKNS0_26_google_firestore_v1_ValueES4_",
            "__ZN8firebase9firestore5local19MemoryMutationQueue11ContainsKeyERKNS0_5model11DocumentKeyE",
            "__ZN8firebase9firestore5modelltERKNS1_11DocumentKeyES4_",
            "__ZN8firebase9firestore4util12TestingHooks11GetInstanceEv",
            "__ZNK8firebase9firestore5model11SetMutation3Rep8ToStringEv",
            "__ZN8firebase9firestore4utileqERKNS1_4PathES4_",
            "__ZN8firebase9firestore6remote16ByteBufferReaderC2ERKN4grpc10ByteBufferE",
            "__ZNK8firebase9firestore5local17MemoryBundleCache17GetBundleMetadataERKNSt3__112basic_stringIcNS3_11char_traitsIcEENS3_9allocatorIcEEEE",
            "__ZN8firebase9firestore4core15FirestoreClient7DisposeEv",
            "__ZNK8firebase9firestore6remote10Serializer21EncodeDocumentsTargetERKNS0_4core6TargetE",
            "__ZN8firebase9firestore6remote10Serializer23DecodeTargetChangeStateEPNS0_4util11ReadContextENS0_50_google_firestore_v1_TargetChange_TargetChangeTypeE",
            "__ZN8firebase9firestore5model15SnapshotVersion4NoneEv",
            "__ZN8firebase9firestore5local16LevelDbBundleKey6DecodeEN4absl12lts_2024011611string_viewE",
            "__ZN8firebase9firestore5local26LevelDbRemoteDocumentCacheD1Ev",
            "__ZN8firebase9firestore6nanopb12StringWriterC1Ev",
            "__ZN8firebase9firestore6nanopb10ByteStringC1ESt16initializer_listIhE",
            "__ZN8firebase9firestore5local20LevelDbMutationQueue19LookupMutationBatchEi",
            "__ZNK8firebase9firestore6nanopb10ByteString9CompareToERKS2_",
            "__ZNK8firebase9firestore19_google_type_LatLng8ToStringEi",
            "__ZNK8firebase9firestore5model12Precondition10IsValidForERKNS1_15MutableDocumentE",
            "__ZN8firebase9firestore3api14LoadBundleTask14RemoveObserverERKx",
            "__ZN8firebase9firestore4core16KeyFieldInFilterC1ERKNS0_5model9FieldPathENS0_6nanopb13SharedMessageINS0_26_google_firestore_v1_ValueEEE",
            "__ZN8firebase9firestore5local27LevelDbLruReferenceDelegate30EnumerateTargetSequenceNumbersERKNSt3__18functionIFvxEEE",
            "__ZN8firebase9firestore5local18LocalDocumentsView35GetDocumentsMatchingCollectionQueryERKNS0_4core5QueryERKNS0_5model11IndexOffsetERN4absl12lts_202401168optionalINS1_12QueryContextEEE",
            "__ZNK8firebase9firestore4core5Query5limitEv",
            "__ZNK8firebase9firestore4core15CompositeFilter3Rep19GetFlattenedFiltersEv",
            "__ZNK8firebase9firestore5model13PatchMutation3Rep16ApplyToLocalViewERNS1_15MutableDocumentEN4absl12lts_202401168optionalINS1_9FieldMaskEEERKNS_9TimestampE",
            "__ZNK8firebase9firestore6remote19DatastoreSerializer19EncodeLookupRequestERKNSt3__16vectorINS0_5model11DocumentKeyENS3_9allocatorIS6_EEEE",
            "__ZNK8firebase9firestore5local15LocalSerializer18DecodeBundledQueryEPNS0_6nanopb6ReaderERNS0_23_firestore_BundledQueryE",
            "__ZN8firebase9firestore4util15ByteStreamApple13ConsumeBufferEv",
            "__ZNK8firebase9firestore5local18LevelDbTargetCache28GetLastRemoteSnapshotVersionEv",
            "__ZN8firebase9firestore4util11OrderedCode19WriteTrailingStringEPNSt3__112basic_stringIcNS3_11char_traitsIcEENS3_9allocatorIcEEEEN4absl12lts_2024011611string_viewE",
            "__ZN8firebase9firestore4core10SyncEngine20HandleRejectedListenEiNS0_4util6StatusE",
            "__ZNK8firebase9firestore5local15LocalSerializer16EncodeNamedQueryERKNS0_6bundle10NamedQueryE",
            "__ZN8firebase9firestore5modeleqERKNS1_13MutationBatchES4_",
            "__ZN8firebase9firestore5local19LevelDbIndexManager19ComputeIndexEntriesERKNS0_5model8DocumentERKNS3_10FieldIndexE",
            "__ZN8firebase9firestore5local19MemoryMutationQueue31GetHighestUnacknowledgedBatchIdEv",
            "__ZNK8firebase9firestore4util8Schedule12HasDueLockedEv",
            "__ZN8firebase9firestore11credentials31FirebaseAuthCredentialsProviderD0Ev",
            "__ZN8firebase9firestore6remote13GrpcUnaryCallC2ENSt3__110unique_ptrIN4grpc13ClientContextENS3_14default_deleteIS6_EEEENS4_INS5_25ClientAsyncResponseReaderINS5_10ByteBufferEEENS7_ISC_EEEERKNS3_10shared_ptrINS0_4util10AsyncQueueEEEPNS1_14GrpcConnectionERKSB_",
            "__ZNK8firebase9firestore5local17MemoryBundleCache13GetNamedQueryERKNSt3__112basic_stringIcNS3_11char_traitsIcEENS3_9allocatorIcEEEE",
            "__ZNK8firebase9firestore3api5Query12AddNewFilterEONS0_4core6FilterE",
            "__ZN8firebase9firestore5local24LevelDbDocumentTargetKey9KeyPrefixEv",
            "__ZN8firebase9firestore6remote14GrpcConnection15CreateUnaryCallEN4absl12lts_2024011611string_viewERKNS0_11credentials9AuthTokenERKNSt3__112basic_stringIcNSA_11char_traitsIcEENSA_9allocatorIcEEEERKN4grpc10ByteBufferE",
            "__ZNK8firebase9firestore47_google_firestore_v1_RunAggregationQueryRequest8ToStringEi",
            "__ZNK8firebase9firestore5local26MemoryLruReferenceDelegate23current_sequence_numberEv",
            "__ZNK8firebase9firestore6remote21WriteStreamSerializer15EncodeHandshakeEv",
            "__ZNK8firebase9firestore5local18LevelDbBundleCache13GetNamedQueryERKNSt3__112basic_stringIcNS3_11char_traitsIcEENS3_9allocatorIcEEEE",
            "__ZNK8firebase9firestore4core22ArrayContainsAnyFilter3Rep7MatchesERKNS0_5model8DocumentE",
            "__ZN8firebase9firestore5local27LevelDbDocumentOverlayCache13DeleteOverlayERKNS1_25LevelDbDocumentOverlayKeyE",
            "__ZNK8firebase9firestore5local18MemoryIndexManager15GetFieldIndexesERKNSt3__112basic_stringIcNS3_11char_traitsIcEENS3_9allocatorIcEEEE",
            "__ZN8firebase9firestore5local17MemoryPersistence11RunInternalEN4absl12lts_2024011611string_viewENSt3__18functionIFvvEEE",
            "__ZN8firebase9firestore4util11OrderedCode18ReadTrailingStringEPN4absl12lts_2024011611string_viewEPNSt3__112basic_stringIcNS7_11char_traitsIcEENS7_9allocatorIcEEEE",
            "__ZN8firebase9firestore4util11OrderedCode11WriteStringEPNSt3__112basic_stringIcNS3_11char_traitsIcEENS3_9allocatorIcEEEEN4absl12lts_2024011611string_viewE",
            "__ZNK8firebase9firestore4core5Bound14PositionStringEv",
            "__ZN8firebase9firestore5local11DescribeKeyEN4absl12lts_2024011611string_viewE",
            "__ZNK8firebase9firestore4core5Query13MatchesBoundsERKNS0_5model8DocumentE",
            "__ZN8firebase9firestore5local10LocalStore17NewUmbrellaTargetERKNSt3__112basic_stringIcNS3_11char_traitsIcEENS3_9allocatorIcEEEE",
            "__ZN8firebase9firestore3api13MakeTimestampEP12FIRTimestamp",
            "__ZN8firebase9firestoreltERKNS0_8GeoPointES3_",
            "__ZN8firebase9firestore4util10Filesystem20RecursivelyCreateDirERKNS1_4PathE",
            "__ZN8firebase9firestore5local18LevelDbPersistence8ShutdownEv",
            "__ZN8firebase9firestore6remote11BloomFilterC1ENS0_6nanopb10ByteStringEii",
            "__ZN8firebase9firestore5local13LevelDbOpener19FirestoreAppDataDirEv",
            "__ZN8firebase9firestore5local18LevelDbPersistence34ReleaseOtherUserSpecificComponentsERKNSt3__112basic_stringIcNS3_11char_traitsIcEENS3_9allocatorIcEEEE",
            "__ZN8firebase9firestore6remote11RemoteStore17OnWriteStreamOpenEv",
            "__ZN8firebase9firestore4util6Status9FromErrnoEiN4absl12lts_2024011611string_viewE",
            "__ZN8firebase9firestore4core13QueryListener6CreateENS1_5QueryENS1_13ListenOptionsEONSt3__18functionIFvNS0_4util8StatusOrINS1_12ViewSnapshotEEEEEE",
            "__ZNK8firebase9firestore27_google_protobuf_FloatValue8ToStringEi",
            "__ZN8firebase9firestore3api17DocumentReference14DeleteDocumentENSt3__18functionIFvNS0_4util6StatusEEEE",
            "__ZNK8firebase9firestore3api8Settings19persistence_enabledEv",
            "__ZN8firebase9firestore4util8Schedule4PushEPNS1_4TaskE",
            "__ZN8firebase9firestore5local10TargetDataC1ENS0_4core6TargetEixNS1_12QueryPurposeENS0_5model15SnapshotVersionES7_NS0_6nanopb10ByteStringEN4absl12lts_202401168optionalIiEE",
            "__ZN8firebase9firestore4util11OrderedCode30ReadStringOrInfinityDecreasingEPN4absl12lts_2024011611string_viewEPNSt3__112basic_stringIcNS7_11char_traitsIcEENS7_9allocatorIcEEEEPb",
            "__ZThn16_N8firebase9firestore6remote11RemoteStore18OnWriteStreamCloseERKNS0_4util6StatusE",
            "__ZNK8firebase9firestore29_google_firestore_v1_Document8ToStringEi",
            "__ZN8firebase9firestore6bundle12BundleReader29DecodeBundleElementFromBufferEv",
            "__ZNK8firebase9firestore5model11ObjectValue16ExtractFieldMaskERKNS0_29_google_firestore_v1_MapValueE",
            "__ZN8firebase9firestore5model6EqualsERKNS0_26_google_firestore_v1_ValueES4_",
            "__ZNK8firebase9firestore6remote6Stream6IsOpenEv",
            "__ZN8firebase9firestore6nanopb12StringReaderC2EPKhm",
            "__ZNK8firebase9firestore5model11SetMutation3Rep4HashEv",
            "__ZN8firebase9firestore5local11DescribeKeyERKNSt3__110unique_ptrINS1_18LevelDbTransaction8IteratorENS2_14default_deleteIS5_EEEE",
            "__ZN8firebase9firestore5modeleqERKNS1_11DocumentSetES4_",
            "__ZN8firebase9firestore4core19LimboDocumentChangeC1ENS2_4TypeENS0_5model11DocumentKeyE",
            "__ZN8firebase9firestore5model9FieldPath16ValidateSegmentsERKNSt3__16vectorINS3_12basic_stringIcNS3_11char_traitsIcEENS3_9allocatorIcEEEENS8_ISA_EEEE",
            "__ZN8firebase9firestore5local18LevelDbPersistence26DeleteEverythingWithPrefixEN4absl12lts_2024011611string_viewERKNSt3__112basic_stringIcNS6_11char_traitsIcEENS6_9allocatorIcEEEE",
            "__ZN8firebase9firestore3api14AggregateQuery3GetEONSt3__18functionIFvRKNS0_4util8StatusOrIxEEEEE",
            "__ZNK8firebase9firestore4core6Target17GetAscendingBoundERKNS0_5model7SegmentERKN4absl12lts_202401168optionalINS1_5BoundEEE",
            "__ZN8firebase9firestore4util15BackgroundQueue7ExecuteEONSt3__18functionIFvvEEE",
            "__ZN8firebase9firestore5local17MemoryPersistence15GetIndexManagerERKNS0_11credentials4UserE",
            "__ZN8firebase9firestore6remote11RemoteStore6ListenENS0_5local10TargetDataE",
            "__ZNK8firebase9firestore6remote10Serializer15EncodeQueryPathERKNS0_5model12ResourcePathE",
            "__ZN8firebase9firestore6remote19GrpcStreamingReader15FinishAndNotifyERKNS0_4util6StatusE",
            "__ZN8firebase9firestore5local24LevelDbDocumentTargetKey19DecodeSentinelValueEN4absl12lts_2024011611string_viewE",
            "__ZN8firebase9firestore12EnumToStringENS0_65_google_firestore_v1_DocumentTransform_FieldTransform_ServerValueE",
            "__ZN8firebase9firestore4core13ParsedSetDataC2ENS0_5model11ObjectValueENS3_9FieldMaskENSt3__16vectorINS3_14FieldTransformENS6_9allocatorIS8_EEEE",
            "__ZN8firebase9firestore6remote11RemoteStore8ShutdownEv",
            "__ZN8firebase9firestore5local25MemoryRemoteDocumentCache3AddERKNS0_5model15MutableDocumentERKNS3_15SnapshotVersionE",
            "__ZNK8firebase9firestore5model14AggregateField4HashEv",
            "__ZN8firebase9firestore3api9Firestore7DisposeEv",
            "__ZN8firebase9firestore6nanopb11PrintHeaderEiN4absl12lts_2024011611string_viewEPKv",
            "__ZNK8firebase9firestore6remote10Serializer17EncodeQueryTargetERKNS0_4core6TargetE",
            "__ZN8firebase9firestore6remote11RemoteStore20HandleHandshakeErrorERKNS0_4util6StatusE",
            "__ZN8firebase9firestore4core15CompositeFilter6CreateEONSt3__16vectorINS1_6FilterENS3_9allocatorIS5_EEEENS2_8OperatorE",
            "__ZN8firebase9firestore5model10SortFieldsERNS0_29_google_firestore_v1_MapValueE",
            "__ZNK8firebase9firestore5local18LocalDocumentsView16PopulateOverlaysERNSt3__113unordered_mapINS0_5model11DocumentKeyENS5_7OverlayENS5_15DocumentKeyHashENS3_8equal_toIS6_EENS3_9allocatorINS3_4pairIKS6_S7_EEEEEERKNS0_9immutable9SortedSetIS6_NS0_4util10ComparatorIS6_EEEE",
            "__ZN8firebase9firestore6remote14GrpcConnectionC1ERKNS0_4core12DatabaseInfoERKNSt3__110shared_ptrINS0_4util10AsyncQueueEEEPN4grpc15CompletionQueueEPNS1_19ConnectivityMonitorEPNS1_24FirebaseMetadataProviderE",
            "__ZN8firebase9firestore4core10SyncEngine28PumpEnqueuedLimboResolutionsEv",
            "__ZN8firebase9firestore4util11OrderedCode20ReadDoubleDecreasingEPN4absl12lts_2024011611string_viewEPd",
            "__ZNK8firebase9firestore4core5Query11CanonicalIdEv",
            "__ZNK8firebase9firestore6bundle16BundleSerializer18DecodeStartAtBoundERNS0_4util10JsonReaderERKN8nlohmann10basic_jsonINSt3__13mapENS8_6vectorENS8_12basic_stringIcNS8_11char_traitsIcEENS8_9allocatorIcEEEEbxydSE_NS6_14adl_serializerENSA_IhNSE_IhEEEEEE",
            "__ZN8firebase9firestore4util6Status12empty_stringEv",
            "__ZN8firebase9firestore5local25MemoryRemoteDocumentCacheC1EPNS1_17MemoryPersistenceE",
            "__ZN8firebase9firestore4core8InFilterC2ERKNS0_5model9FieldPathENS0_6nanopb13SharedMessageINS0_26_google_firestore_v1_ValueEEE",
            "__ZN8firebase9firestore4core11TransactionC1ENSt3__110shared_ptrINS0_6remote9DatastoreEEE",
            "__ZN8firebase9firestore5local10TargetData7InvalidEv",
            "__ZNK8firebase9firestore4util6Status8ToStringEv",
            "__ZN8firebase9firestore3api17DocumentReference11GetDocumentENS1_6SourceEONSt3__110unique_ptrINS0_4core13EventListenerINS1_16DocumentSnapshotEEENS4_14default_deleteIS9_EEEE",
            "__ZN8firebase9firestore3api14LoadBundleTaskD1Ev",
            "__ZNK8firebase9firestore65_google_firestore_v1_StructuredAggregationQuery_Aggregation_Count8ToStringEi",
            "__ZN8firebase9firestore5local26LevelDbCollectionParentKey9KeyPrefixEv",
            "__ZNK8firebase9firestore4core16KeyFieldInFilter3Rep7MatchesERKNS0_5model8DocumentE",
            "__ZN8firebase9firestore3apieqERKNS1_21MemoryEagerGcSettingsES4_",
            "__ZN8firebase9firestore4core15FirestoreClient14TerminateAsyncENSt3__18functionIFvNS0_4util6StatusEEEE",
            "__ZN8firebase9firestore5model12CanonifyBlobERKNS0_26_google_firestore_v1_ValueE",
            "__ZNK8firebase9firestore6remote10Serializer20DecodeDocumentRemoveEPNS0_4util11ReadContextERKNS0_35_google_firestore_v1_DocumentRemoveE",
            "__ZN8firebase9firestore6remote9Datastore29GetAllowlistedHeadersAsStringERKNSt3__18multimapIN4grpc10string_refES6_NS3_4lessIS6_EENS3_9allocatorINS3_4pairIKS6_S6_EEEEEE",
            "__ZN8firebase9firestore4core15FirestoreClient21ConfigureFieldIndexesENSt3__16vectorINS0_5model10FieldIndexENS3_9allocatorIS6_EEEE",
            "__ZNK8firebase9firestore6remote10Serializer25EncodeListenRequestLabelsERKNS0_5local10TargetDataE",
            "__ZN8firebase9firestore3api8SettingsC1ERKS2_",
            "__ZN8firebase9firestore5local20LevelDbIndexEntryKey3KeyEiN4absl12lts_2024011611string_viewES5_S5_S5_S5_",
            "__ZN8firebase9firestore4core15FirestoreClient14WriteMutationsEONSt3__16vectorINS0_5model8MutationENS3_9allocatorIS6_EEEENS3_8functionIFvNS0_4util6StatusEEEE",
            "__ZN8firebase9firestore4core16ParseAccumulator20AddToFieldTransformsENS0_5model9FieldPathENS3_18TransformOperationE",
            "__ZN8firebase9firestore5local18LevelDbTargetCache13RemoveTargetsExRKNSt3__113unordered_mapIiNS1_10TargetDataENS3_4hashIiEENS3_8equal_toIiEENS3_9allocatorINS3_4pairIKiS5_EEEEEE",
            "__ZNK8firebase9firestore4core12ParseContext12ValidatePathEv",
            "__ZN8firebase9firestore5local24LevelDbTargetDocumentKey6DecodeEN4absl12lts_2024011611string_viewE",
            "__ZN8firebase9firestore4util10Filesystem9RemoveDirERKNS1_4PathE",
            "__ZN8firebase9firestore5model8NaNValueEv",
            "__ZN8firebase9firestore6nanopb6Writer5WriteEPK10pb_field_sPKv",
            "__ZNK8firebase9firestore5model14ArrayTransform3Rep22CoercedFieldValueArrayERKN4absl12lts_202401168optionalINS0_26_google_firestore_v1_ValueEEE",
            "__ZNK8firebase9firestore6remote10Serializer12EncodeFilterERKNS0_4core6FilterE",
            "__ZThn16_N8firebase9firestore6remote11RemoteStore27OnWriteStreamMutationResultENS0_5model15SnapshotVersionENSt3__16vectorINS3_14MutationResultENS5_9allocatorIS7_EEEE",
            "__ZNK8firebase9firestore5local10TargetData32WithLastLimboFreeSnapshotVersionENS0_5model15SnapshotVersionE",
            "__ZN8firebase9firestore5local28MemoryEagerReferenceDelegateC2EPNS1_17MemoryPersistenceE",
            "__ZNK8firebase9firestore6remote11RemoteStore22ShouldStartWriteStreamEv",
            "__ZN8firebase9firestore5model11ObjectValue9ParentMapERKNS1_9FieldPathE",
            "__ZNK8firebase9firestore3api5Query33ValidateDisjunctiveFilterElementsERKNS0_26_google_firestore_v1_ValueENS0_4core11FieldFilter8OperatorE",
            "__ZNK8firebase9firestore5model14AggregateAlias11StringValueEv",
            "__ZNK8firebase9firestore5model11DocumentKey9CompareToERKS2_",
            "__ZN8firebase9firestore6remote21WatchChangeAggregator22TargetContainsDocumentEiRKNS0_5model11DocumentKeyE",
            "__ZN8firebase9firestore3api9Firestore9TerminateENSt3__18functionIFvNS0_4util6StatusEEEE",
            "__ZNK8firebase9firestore4core11NotInFilter3Rep7MatchesERKNS0_5model8DocumentE",
            "__ZN8firebase9firestore4core15FirestoreClient10InitializeERKNS0_11credentials4UserERKNS0_3api8SettingsE",
            "__ZNK8firebase9firestore5local27LevelDbDocumentOverlayCache33GetCollectionGroupIndexEntryCountEv",
            "__ZN8firebase9firestore5local40LevelDbDocumentOverlayCollectionIndexKey3KeyEN4absl12lts_2024011611string_viewERKNS0_5model12ResourcePathEiS5_",
            "__ZN8firebase9firestore5model11CompareMapsERKNS0_29_google_firestore_v1_MapValueES4_",
            "__ZN8firebase9firestore5local40LevelDbDocumentOverlayCollectionIndexKey9KeyPrefixEN4absl12lts_2024011611string_viewERKNS0_5model12ResourcePathEi",
            "__ZNK8firebase9firestore5local27MemoryCollectionParentIndex10GetEntriesERKNSt3__112basic_stringIcNS3_11char_traitsIcEENS3_9allocatorIcEEEE",
            "__ZNK8firebase9firestore5local15LocalSerializer21EncodeUnknownDocumentERKNS0_5model15MutableDocumentE",
            "__ZNK8firebase9firestore3api21MemoryEagerGcSettings4HashEv",
            "__ZN8firebase9firestore4core10SyncEngine14ReadIntoLoaderERKNS0_6bundle14BundleMetadataERNS3_12BundleReaderERNS0_3api14LoadBundleTaskE",
            "__ZNK8firebase9firestore3api5Query5CountEv",
            "__ZN8firebase9firestore5local27LevelDbDocumentOverlayCache12SaveOverlaysEiRKNSt3__113unordered_mapINS0_5model11DocumentKeyENS5_8MutationENS5_15DocumentKeyHashENS3_8equal_toIS6_EENS3_9allocatorINS3_4pairIKS6_S7_EEEEEE",
            "__ZN8firebase9firestore5local18LevelDbTargetCache15GetMatchingKeysEi",
            "__ZN8firebase9firestore5model14DeleteMutationC2ERKNS1_8MutationE",
            "__ZNK8firebase9firestore3api27PersistentCacheIndexManager23EnableIndexAutoCreationEv",
            "__ZN8firebase9firestore5local18LevelDbTargetCache18RemoveMatchingKeysERKNS0_9immutable9SortedSetINS0_5model11DocumentKeyENS0_4util10ComparatorIS6_EEEEi",
            "__ZN8firebase9firestore6bundle12BundleReader16ReadLengthPrefixEv",
            "__ZN8firebase9firestore6remote11RemoteStore18OnWriteStreamCloseERKNS0_4util6StatusE",
            "__ZN8firebase9firestore5model11SetMutationC2ERKNS1_8MutationE",
            "__ZNK8firebase9firestore4core5Query8ToTargetERKNSt3__16vectorINS1_7OrderByENS3_9allocatorIS5_EEEE",
            "__ZN8firebase9firestore5local18LevelDbTransaction8Iterator17SyncToTransactionEv",
            "__ZN8firebase9firestore6remote6Stream13OnStreamStartEv",
            "__ZN8firebase9firestore6remote8internal14BufferedWriter12EnqueueWriteEON4grpc10ByteBufferERKNS4_12WriteOptionsE",
            "__ZNK8firebase9firestore4util10AsyncQueue23VerifyIsCurrentExecutorEv",
            "__ZNK8firebase9firestore5model11DocumentKey18GetCollectionGroupEv",
            "__ZNK8firebase9firestore3api5Query5EndAtENS0_4core5BoundE",
            "__ZN8firebase9firestore4util10Filesystem7DefaultEv",
            "__ZNK8firebase9firestore5model14AggregateAlias4HashEv",
            "__ZN8firebase9firestore5local20LevelDbMutationQueue5StartEv",
            "__ZN8firebase9firestore6remote9Datastore30CommitMutationsWithCredentialsERKNS0_11credentials9AuthTokenERKNSt3__112basic_stringIcNS7_11char_traitsIcEENS7_9allocatorIcEEEERKNS7_6vectorINS0_5model8MutationENSB_ISI_EEEEONS7_8functionIFvRKNS0_4util6StatusEEEE",
            "__ZNK8firebase9firestore6remote10Serializer20DecodeDocumentDeleteEPNS0_4util11ReadContextERKNS0_35_google_firestore_v1_DocumentDeleteE",
            "__ZN8firebase9firestore5local19LruGarbageCollector23QueryCountForPercentileEi",
            "__ZN8firebase9firestore6bundle12BundleReaderC1ENS1_16BundleSerializerENSt3__110unique_ptrINS0_4util10ByteStreamENS4_14default_deleteIS7_EEEE",
            "__ZNK8firebase9firestore6remote10Serializer21DecodeStructuredQueryEPNS0_4util11ReadContextEP16pb_bytes_array_sRNS0_36_google_firestore_v1_StructuredQueryE",
            "__ZNK8firebase9firestore4core4View15ShouldBeInLimboERKNS0_5model11DocumentKeyE",
            "__ZN8firebase9firestore5local18LevelDbTransaction8IteratorC2EPS2_",
            "__ZN8firebase9firestore3apineERKNS1_19MemoryCacheSettingsES4_",
            "__ZNK8firebase9firestore4core19KeyFieldNotInFilter3Rep7MatchesERKNS0_5model8DocumentE",
            "__ZNK8firebase9firestore6bundle16BundleSerializer11DecodeValueERNS0_4util10JsonReaderERKN8nlohmann10basic_jsonINSt3__13mapENS8_6vectorENS8_12basic_stringIcNS8_11char_traitsIcEENS8_9allocatorIcEEEEbxydSE_NS6_14adl_serializerENSA_IhNSE_IhEEEEEE",
            "__ZN8firebase9firestore5local18LevelDbTargetCache15TryReadMetadataEPN7leveldb2DBE",
            "__Z31FSTIncludeFSTFirestoreComponentv",
            "__ZNK8firebase9firestore6remote10Serializer23ValidateDocumentKeyPathEPNS0_4util11ReadContextERKNS0_5model12ResourcePathE",
            "__ZN8firebase9firestore5local13LevelDbOpener28RecursivelyCleanupLegacyDirsENS0_4util4PathE",
            "__ZN8firebase9firestore5local26LevelDbRemoteDocumentCache3AddERKNS0_5model15MutableDocumentERKNS3_15SnapshotVersionE",
            "__ZNK8firebase9firestore28_google_protobuf_StringValue8ToStringEi",
            "__ZN8firebase9firestore4core12ParseContext12ChildContextEm",
            "__ZN8firebase9firestore6remote11RemoteStoreC2EPNS0_5local10LocalStoreENSt3__110shared_ptrINS1_9DatastoreEEERKNS7_INS0_4util10AsyncQueueEEEPNS1_19ConnectivityMonitorENS6_8functionIFvNS0_5model11OnlineStateEEEE",
            "__ZN8firebase9firestore4core15FirestoreClient17RunAggregateQueryERKNS1_5QueryERKNSt3__16vectorINS0_5model14AggregateFieldENS6_9allocatorIS9_EEEEONS6_8functionIFvRKNS0_4util8StatusOrINS8_11ObjectValueEEEEEE",
            "__ZN8firebase9firestore5model11IndexOffset12FromDocumentERKNS1_8DocumentE",
            "__ZN8firebase9firestore4util8Schedule5ClearEv",
            "__ZN8firebase9firestore4core10SyncEngine13StopListeningERKNS1_5QueryEb",
            "__ZN8firebase9firestore4core5Bound9FromValueENS0_6nanopb13SharedMessageINS0_31_google_firestore_v1_ArrayValueEEEb",
            "__ZN8firebase9firestore5local19MemoryMutationQueue25AllMutationBatchesWithIdsERKNSt3__13setIiNS3_4lessIiEENS3_9allocatorIiEEEE",
            "__ZN8firebase9firestore4util11ExecutorStd6CancelEj",
            "__ZN8firebase9firestore4util11OrderedCode12TEST_CorruptEPNSt3__112basic_stringIcNS3_11char_traitsIcEENS3_9allocatorIcEEEEi",
            "__ZN8firebase9firestore5local19LruGarbageCollectorC1EPNS1_11LruDelegateENS1_9LruParamsE",
            "__ZN8firebase9firestore5local16LevelDbTargetKey6DecodeEN7leveldb5SliceE",
            "__ZN8firebase9firestore4util10JsonReader13OptionalArrayEPKcRKN8nlohmann10basic_jsonINSt3__13mapENS7_6vectorENS7_12basic_stringIcNS7_11char_traitsIcEENS7_9allocatorIcEEEEbxydSD_NS5_14adl_serializerENS9_IhNSD_IhEEEEEERKNS9_ISJ_NSD_ISJ_EEEE",
            "__ZN8firebase9firestore4core16ParseAccumulator11RootContextEv",
            "__ZN8firebase9firestore6remote18OnlineStateTracker15SetAndBroadcastENS0_5model11OnlineStateE",
            "__ZN8firebase9firestore4core19ViewDocumentChangesC2ENS0_5model11DocumentSetENS1_21DocumentViewChangeSetENS0_9immutable9SortedSetINS3_11DocumentKeyENS0_4util10ComparatorIS8_EEEEb",
            "__ZN8firebase9firestore5model11DocumentSetC1EONS1_18DocumentComparatorE",
            "__ZN8firebase9firestore4core15FirestoreClient23ScheduleIndexBackfillerEv",
            "__ZNK8firebase9firestore3api5Query17ValidateNewFilterERKNS0_4core6FilterE",
            "__ZN8firebase9firestore5model17UpperBoundCompareERKNS0_26_google_firestore_v1_ValueEbS4_b",
            "__ZN8firebase9firestore4util10JsonReader14OptionalDoubleEPKcRKN8nlohmann10basic_jsonINSt3__13mapENS7_6vectorENS7_12basic_stringIcNS7_11char_traitsIcEENS7_9allocatorIcEEEEbxydSD_NS5_14adl_serializerENS9_IhNSD_IhEEEEEEd",
            "__ZN8firebase9firestore5local32LevelDbRemoteDocumentReadTimeKey6DecodeEN4absl12lts_2024011611string_viewE",
            "__ZN8firebase9firestore8GeoPointC1Edd",
            "__ZN8firebase9firestore4util14MakeTargetTimeENSt3__16chrono8durationIxNS2_5ratioILl1ELl1000EEEEE",
            "__ZN8firebase9firestore5local17MemoryTargetCache24EnumerateSequenceNumbersERKNSt3__18functionIFvxEEE",
            "__ZN8firebase9firestore4util17internal_statusor6Helper26HandleInvalidStatusCtorArgEPNS1_6StatusE",
            "__ZN8firebase9firestore6nanopb10ByteStringaSERKS2_",
            "__ZN8firebase9firestore6remote9Datastore17CreateWriteStreamEPNS1_19WriteStreamCallbackE",
            "__ZN8firebase9firestore5modellsERNSt3__113basic_ostreamIcNS2_11char_traitsIcEEEERKNS1_11DocumentSetE",
            "__ZNK8firebase9firestore39_google_firestore_v1_Target_QueryTarget8ToStringEi",
            "__ZN8firebase9firestore5local18LevelDbTargetCache15AddMatchingKeysERKNS0_9immutable9SortedSetINS0_5model11DocumentKeyENS0_4util10ComparatorIS6_EEEEi",
            "__ZNK8firebase9firestore5local27LevelDbLruReferenceDelegate23current_sequence_numberEv",
            "__ZN8firebase9firestore4core15CompositeFilterC2ERKNS1_6FilterE",
            "__ZN8firebase9firestore6remote11RemoteStoreC1EPNS0_5local10LocalStoreENSt3__110shared_ptrINS1_9DatastoreEEERKNS7_INS0_4util10AsyncQueueEEEPNS1_19ConnectivityMonitorENS6_8functionIFvNS0_5model11OnlineStateEEEE",
            "__ZNK8firebase9firestore5local26LevelDbRemoteDocumentCache25GetDocumentsMatchingQueryERKNS0_4core5QueryERKNS0_5model11IndexOffsetEN4absl12lts_202401168optionalImEERKNSt3__113unordered_mapINS7_11DocumentKeyENS7_7OverlayENS7_15DocumentKeyHashENSF_8equal_toISH_EENSF_9allocatorINSF_4pairIKSH_SI_EEEEEE",
            "__ZNK8firebase9firestore5model11DocumentSet11ContainsKeyERKNS1_11DocumentKeyE",
            "__ZN8firebase9firestore4core11Transaction6CommitEONSt3__18functionIFvNS0_4util6StatusEEEE",
            "__ZN8firebase9firestore5local19LevelDbIndexManager21DeleteAllFieldIndexesEv",
            "__ZN8firebase9firestore5model11ObjectValueC1ENS0_6nanopb7MessageINS0_26_google_firestore_v1_ValueEEE",
            "__ZNK8firebase9firestore5local27LevelDbDocumentOverlayCache15GetOverlayCountEv",
            "__ZN8firebase9firestore3api9Firestore6clientEv",
            "__ZNK8firebase9firestore3api19MemoryLruGcSettings13WithSizeBytesEx",
            "__ZN8firebase9firestore6remote11WriteStream16NotifyStreamOpenEv",
            "__ZN8firebase9firestore6remote9Datastore14IsAbortedErrorERKNS0_4util6StatusE",
            "__ZN8firebase9firestore4util19ExecutorLibdispatch7ExecuteEONSt3__18functionIFvvEEE",
            "__ZN8firebase9firestore5modellsERNSt3__113basic_ostreamIcNS2_11char_traitsIcEEEERKNS1_15SnapshotVersionE",
            "__ZN8firebase9firestore6remote6Stream14OnStreamFinishERKNS0_4util6StatusE",
            "__ZN8firebase9firestore5local10TargetDataC1ENS0_4core6TargetEixNS1_12QueryPurposeE",
            "__ZNK8firebase9firestore4util11ExecutorStd13IsIdScheduledEj",
            "__ZNK8firebase9firestore5local15LocalSerializer12EncodeBundleERKNS0_6bundle14BundleMetadataE",
            "__ZN8firebase9firestore5local18LevelDbTargetCacheC2EPNS1_18LevelDbPersistenceEPNS1_15LocalSerializerE",
            "__ZNK8firebase9Timestamp8ToStringEv",
            "__ZN8firebase9firestore5local26MemoryLruReferenceDelegateC1EPNS1_17MemoryPersistenceENS1_9LruParamsENSt3__110unique_ptrINS1_5SizerENS6_14default_deleteIS8_EEEE",
            "__ZNK8firebase9firestore33_google_firestore_v1_TargetChange8ToStringEi",
            "__ZN8firebase9firestore6bundle12BundleLoader12ApplyChangesEv",
            "__ZN8firebase9firestore6remote21WriteStreamSerializerC1ENS1_10SerializerE",
            "__ZNK8firebase9firestore6remote21WriteStreamSerializer21DecodeMutationResultsEPNS0_6nanopb6ReaderERNS0_34_google_firestore_v1_WriteResponseE",
            "__ZN8firebase9firestore5local11QueryEngine10InitializeEPNS1_18LocalDocumentsViewE",
            "__ZN8firebase9firestore5local18LevelDbTransaction3PutENSt3__112basic_stringIcNS3_11char_traitsIcEENS3_9allocatorIcEEEES9_",
            "__ZN8firebase9firestore5local20LevelDbMutationQueue18SetLastStreamTokenENS0_6nanopb10ByteStringE",
            "__ZN8firebase9firestore5local17MemoryTargetCache12RemoveTargetERKNS1_10TargetDataE",
            "__ZN8firebase9firestore3api9Firestore21SetIndexConfigurationERKNSt3__112basic_stringIcNS3_11char_traitsIcEENS3_9allocatorIcEEEERKNS3_8functionIFvNS0_4util6StatusEEEE",
            "__ZNK8firebase9firestore5local26MemoryDocumentOverlayCache15GetOverlayCountEv",
            "__ZN8firebase9firestore3api9Firestore14RunTransactionENSt3__18functionIFvNS3_10shared_ptrINS0_4core11TransactionEEENS4_IFvNS0_4util6StatusEEEEEEESC_i",
            "__ZN8firebase9firestore5model12ResourcePath10FromStringERKNSt3__112basic_stringIcNS3_11char_traitsIcEENS3_9allocatorIcEEEE",
            "__ZN8firebase9firestore5localeqERKNS1_20DocumentKeyReferenceES4_",
            "__ZN8firebase9firestore5model9FieldPath12KeyFieldPathEv",
            "__ZN8firebase9firestore5local18LevelDbTransaction8Iterator10AdvanceLDBEv",
            "__ZN8firebase9firestore5local17MemoryTargetCacheC1EPNS1_17MemoryPersistenceE",
            "__ZN8firebase9firestore4util12TestingHooks31NotifyOnExistenceFilterMismatchERKNS2_27ExistenceFilterMismatchInfoE",
            "__ZNK8firebase9firestore11credentials9AuthToken5tokenEv",
            "__ZN8firebase9firestore5local20LevelDbIndexStateKey9KeyPrefixEv",
            "__ZNK8firebase9firestore6remote10Serializer31DecodeVersionFromListenResponseEPNS0_4util11ReadContextERKNS0_35_google_firestore_v1_ListenResponseE",
            "__ZNK8firebase9firestore30_firestore_client_TargetGlobal8ToStringEi",
            "__ZN8firebase9firestore4util4Task17ExecuteAndReleaseEv",
            "__ZNK8firebase9firestore42_google_firestore_v1_StructuredQuery_Order8ToStringEi",
            "__ZN8firebase9firestore5local27LevelDbLruReferenceDelegate12AddReferenceERKNS0_5model11DocumentKeyE",
            "__ZNK8firebase9firestore5model11ObjectValue4HashEv",
            "__ZN8firebase9firestore5local19LevelDbIndexManager13UpdateEntriesERKNS0_5model8DocumentERKNS3_10FieldIndexERKNSt3__13setINS0_5index10IndexEntryENSA_4lessISD_EENSA_9allocatorISD_EEEESK_",
            "__ZN8firebase9firestore4util6Status18moved_from_messageEv",
            "__ZN8firebase9firestore5local10LocalStore23PopulateDocumentChangesERKNSt3__113unordered_mapINS0_5model11DocumentKeyENS5_15MutableDocumentENS5_15DocumentKeyHashENS3_8equal_toIS6_EENS3_9allocatorINS3_4pairIKS6_S7_EEEEEERKNS4_IS6_NS5_15SnapshotVersionES8_SA_NSB_INSC_ISD_SJ_EEEEEERKSJ_",
            "__ZN8firebase9firestore5local18LevelDbTargetCache8ContainsERKNS0_5model11DocumentKeyE",
            "__ZN8firebase9firestore4util17DirectoryIterator6CreateERKNS1_4PathE",
            "__ZN8firebase9firestore5model11ObjectValue15FromFieldsEntryEPNS0_41_google_firestore_v1_Document_FieldsEntryEj",
            "__ZNK8firebase9firestore4core5Query15IsDocumentQueryEv",
            "__ZNK8firebase9firestore4core6Target11CanonicalIdEv",
            "__ZN8firebase9firestore5local10LocalStore16AcknowledgeBatchERKNS0_5model19MutationBatchResultE",
            "__ZN8firebase9firestore5modeleqERKNS1_15MutableDocumentES4_",
            "__ZN8firebase9firestore5local18LevelDbPersistence21remote_document_cacheEv",
            "__ZN8firebase9firestore5local10LocalStoreC2EPNS1_11PersistenceEPNS1_11QueryEngineERKNS0_11credentials4UserE",
            "__ZN8firebase9firestore5local26LevelDbDocumentMutationKey9KeyPrefixEN4absl12lts_2024011611string_viewERKNS0_5model12ResourcePathE",
            "__ZN8firebase9firestore6remote21WatchChangeAggregator12RemoveTargetEi",
            "__ZNK8firebase9firestore4core12ParseContext16FieldDescriptionEv",
            "__ZN8firebase9firestore5local17MemoryPersistenceD0Ev",
            "__ZN8firebase9firestore5local21LevelDbQueryTargetKey3KeyEN4absl12lts_2024011611string_viewEi",
            "__ZN8firebase9firestore5local10LocalStore14CollectGarbageEPNS1_19LruGarbageCollectorE",
            "__ZN8firebase9firestore5local25MemoryRemoteDocumentCacheC2EPNS1_17MemoryPersistenceE",
            "__ZN8firebase9firestore6remote19GrpcStreamingReaderC2ENSt3__110unique_ptrIN4grpc13ClientContextENS3_14default_deleteIS6_EEEENS4_INS5_23ClientAsyncReaderWriterINS5_10ByteBufferESB_EENS7_ISC_EEEERKNS3_10shared_ptrINS0_4util10AsyncQueueEEEPNS1_14GrpcConnectionERKSB_",
            "__ZNK8firebase9firestore28_google_protobuf_UInt32Value8ToStringEi",
            "__ZN8firebase9firestore4core12EventManager15OnViewSnapshotsEONSt3__16vectorINS1_12ViewSnapshotENS3_9allocatorIS5_EEEE",
            "__ZN8firebase9firestore4core12ViewSnapshot20FromInitialDocumentsENS1_5QueryENS0_5model11DocumentSetENS0_9immutable9SortedSetINS4_11DocumentKeyENS0_4util10ComparatorIS8_EEEEbbb",
            "__ZN8firebase9firestore6remote21WatchStreamSerializerC1ENS1_10SerializerE",
            "__ZN8firebase9firestore5local18MemoryIndexManager12GetIndexTypeERKNS0_4core6TargetE",
            "__ZNK8firebase9firestore48_google_firestore_v1_StructuredQuery_UnaryFilter8ToStringEi",
            "__ZN8firebase9firestore4core11Transaction3SetERKNS0_5model11DocumentKeyEONS1_13ParsedSetDataE",
            "__ZN8firebase9firestore5local12ReferenceSet16RemoveReferencesEi",
            "__ZN8firebase9firestore5local18LevelDbTransaction19DefaultWriteOptionsEv",
            "__ZN8firebase9firestore5local18LevelDbTargetCache30RemoveQueryTargetKeyForTargetsERKNSt3__113unordered_setIiNS3_4hashIiEENS3_8equal_toIiEENS3_9allocatorIiEEEE",
            "__ZNK8firebase9firestore5local27LevelDbDocumentOverlayCache28GetCollectionIndexEntryCountEv",
            "__ZN8firebase9firestore3api19MemoryCacheSettings34WithMemoryGarbageCollectorSettingsERKNS1_30MemoryGargabeCollectorSettingsE",
            "__ZN8firebase9firestore5model11DocumentKeyC1ERKNS1_12ResourcePathE",
            "__ZN8firebase9firestore5local18LevelDbPersistence17CalculateByteSizeEv",
            "__ZN8firebase9firestore5local25LevelDbDocumentOverlayKey6DecodeEN4absl12lts_2024011611string_viewE",
            "__ZN8firebase9firestore11credentials31FirebaseAuthCredentialsProviderD2Ev",
            "__ZN8firebase9firestore6remote10GrpcStream9WriteLastEON4grpc10ByteBufferE",
            "__ZN8firebase9firestore5local19MemoryMutationQueue17CalculateByteSizeERKNS1_5SizerE",
            "__ZN8firebase9firestore4corelsERNSt3__113basic_ostreamIcNS2_11char_traitsIcEEEERKNS1_6FilterE",
            "__ZNK8firebase9firestore5local26MemoryLruReferenceDelegate24IsPinnedAtSequenceNumberExRKNS0_5model11DocumentKeyE",
            "__ZN8firebase9firestore4util4Task7ReleaseEv",
            "__ZNK8firebase9firestore5model13PatchMutation3Rep8ToStringEv",
            "__ZN8firebase9firestore5local17MemoryBundleCache18SaveBundleMetadataERKNS0_6bundle14BundleMetadataE",
            "__ZNK8firebase9firestore5model25NumericIncrementTransform3Rep6EqualsERKNS1_18TransformOperation3RepE",
            "__ZNK8firebase9firestore4core12ViewSnapshot4HashEv",
            "__ZN8firebase9firestore5local26MemoryLruReferenceDelegate22OnTransactionCommittedEv",
            "__ZN8firebase9firestore6remote13GrpcUnaryCall15FinishAndNotifyERKNS0_4util6StatusE",
            "__ZNK8firebase9firestore36_google_firestore_v1_StructuredQuery8ToStringEi",
            "__ZN8firebase9firestore4core13ParsedSetDataC1ENS0_5model11ObjectValueENSt3__16vectorINS3_14FieldTransformENS5_9allocatorIS7_EEEE",
            "__ZN8firebase9firestore4core10SyncEngine10NotifyUserEiNS0_4util6StatusE",
            "__ZNK8firebase9firestore5model18TargetIndexMatcher13MatchesFilterERKNS0_4core11FieldFilterERKNS1_7SegmentE",
            "__ZN8firebase9firestore5local10LocalStore14HasNewerBundleERKNS0_6bundle14BundleMetadataE",
            "__ZN8firebase9firestore5local18LevelDbBundleCache18SaveBundleMetadataERKNS0_6bundle14BundleMetadataE",
            "__ZNK8firebase9firestore4core15CompositeFilter3Rep6IsFlatEv",
            "__ZN8firebase9firestore6bundle12BundleLoader23GetQueryDocumentMappingEv",
            "__ZNK8firebase9firestore5local10LocalStore21DeleteAllFieldIndexesEv",
            "__ZNK8firebase9firestore3api8Settings4HashEv",
            "__ZNK8firebase9firestore4core5Query8ToStringEv",
            "__ZN8firebase9firestore5local18LevelDbTransaction8Iterator4NextEv",
            "__ZN8firebase9firestore5model12CompareBlobsERKNS0_26_google_firestore_v1_ValueES4_",
            "__ZNK8firebase9firestore3api13QuerySnapshot15ForEachDocumentERKNSt3__18functionIFvNS1_16DocumentSnapshotEEEE",
            "__ZNK8firebase9firestore3api19MemoryLruGcSettings4HashEv",
            "__ZNK8firebase9firestore5local26LevelDbRemoteDocumentCache25GetDocumentsMatchingQueryERKNS0_4core5QueryERKNS0_5model11IndexOffsetERN4absl12lts_202401168optionalINS1_12QueryContextEEENSD_ImEERKNSt3__113unordered_mapINS7_11DocumentKeyENS7_7OverlayENS7_15DocumentKeyHashENSI_8equal_toISK_EENSI_9allocatorINSI_4pairIKSK_SL_EEEEEE",
            "__ZN8firebase9firestore5model15MutableDocument10NoDocumentENS1_11DocumentKeyERKNS1_15SnapshotVersionE",
            "__ZNK8firebase9firestore6remote10Serializer12DecodeFilterEPNS0_4util11ReadContextERNS0_43_google_firestore_v1_StructuredQuery_FilterE",
            "__ZN8firebase9firestore6remote11RemoteStore30OnWriteStreamHandshakeCompleteEv",
            "__ZNK8firebase9firestore3api8Settings10gc_enabledEv",
            "__ZN8firebase9firestore5local26MemoryLruReferenceDelegate23RemoveOrphanedDocumentsEx",
            "__ZN8firebase9firestore4core10SyncEngine35EmitNewSnapshotsAndNotifyLocalStoreERKNS0_9immutable9SortedMapINS0_5model11DocumentKeyENS5_8DocumentENS0_4util10ComparatorIS6_EEEERKN4absl12lts_202401168optionalINS0_6remote11RemoteEventEEE",
            "__ZN8firebase9firestore5local13ConvertStatusERKN7leveldb6StatusE",
            "__ZThn8_N8firebase9firestore6remote19GrpcStreamingReader14OnStreamFinishERKNS0_4util6StatusE",
            "__ZNK8firebase9firestore28_google_protobuf_DoubleValue8ToStringEi",
            "__ZN8firebase9firestore6remote6Stream14InhibitBackoffEv",
            "__ZNK8firebase9firestore5local18LocalDocumentsView16GetNextDocumentsERKNSt3__112basic_stringIcNS3_11char_traitsIcEENS3_9allocatorIcEEEERKNS0_5model11IndexOffsetEm",
            "__ZN8firebase9firestore4util10LogicUtils23IsDisjunctiveNormalFormERKNS0_4core6FilterE",
            "__ZN8firebase9firestore11credentials35FirebaseAppCheckCredentialsProvider27SetCredentialChangeListenerENSt3__18functionIFvNS3_12basic_stringIcNS3_11char_traitsIcEENS3_9allocatorIcEEEEEEE",
            "__ZN8firebase9firestore5model14ArrayTransformC2ENS1_18TransformOperation4TypeENS0_6nanopb7MessageINS0_31_google_firestore_v1_ArrayValueEEE",
            "__ZNK8firebase9firestore4util10ComparatorIdE7CompareEdd",
            "__ZN8firebase9firestore4core19KeyFieldNotInFilterC1ERKNS0_5model9FieldPathENS0_6nanopb13SharedMessageINS0_26_google_firestore_v1_ValueEEE",
            "__ZN8firebase9firestore4util19ExecutorLibdispatchD2Ev",
            "__ZN8firebase9firestore5local26LevelDbRemoteDocumentCache15SetIndexManagerEPNS1_12IndexManagerE",
            "__ZN8firebase9firestore4core12ViewSnapshotC1ENS1_5QueryENS0_5model11DocumentSetES5_NSt3__16vectorINS1_18DocumentViewChangeENS6_9allocatorIS8_EEEENS0_9immutable9SortedSetINS4_11DocumentKeyENS0_4util10ComparatorISE_EEEEbbbb",
            "__ZN8firebase9firestore4core18DocumentViewChangeC1ENS0_5model8DocumentENS2_4TypeE",
            "__ZNK8firebase9firestore22_google_protobuf_Empty8ToStringEi",
            "__ZN8firebase9firestore5model11ObjectValueC2ENS0_6nanopb7MessageINS0_26_google_firestore_v1_ValueEEE",
            "__ZN8firebase9firestore5model17GetLocalWriteTimeERKNS0_26_google_firestore_v1_ValueE",
            "__ZNK8firebase9firestore6remote11RemoteStore22ShouldStartWatchStreamEv",
            "__ZNK8firebase9firestore4core15FirestoreClient27SetIndexAutoCreationEnabledEb",
            "__ZN8firebase9firestore6remote9Datastore13PollGrpcQueueEv",
            "__ZThn8_N8firebase9firestore6remote19GrpcStreamingReader13OnStreamStartEv",
            "__ZN8firebase9firestore3api17DocumentReference19AddSnapshotListenerENS0_4core13ListenOptionsEONSt3__110unique_ptrINS3_13EventListenerINS1_16DocumentSnapshotEEENS5_14default_deleteIS9_EEEE",
            "__ZN8firebase9firestore4core11FieldFilterC1ERKNS1_6FilterE",
            "__ZN8firebase9firestore5local36LevelDbIndexEntryDocumentKeyIndexKey9KeyPrefixEiN4absl12lts_2024011611string_viewES5_",
            "__ZNK8firebase9firestore5model14ArrayTransform3Rep5ApplyERKN4absl12lts_202401168optionalINS0_26_google_firestore_v1_ValueEEE",
            "__ZNK8firebase9firestore6bundle16BundleSerializer11DecodeWhereERNS0_4util10JsonReaderERKN8nlohmann10basic_jsonINSt3__13mapENS8_6vectorENS8_12basic_stringIcNS8_11char_traitsIcEENS8_9allocatorIcEEEEbxydSE_NS6_14adl_serializerENSA_IhNSE_IhEEEEEE",
            "__ZN8firebase9firestore4util10LogicUtils46IsDisjunctionOfFieldFiltersAndFlatConjunctionsERKNS0_4core6FilterE",
            "__ZNK8firebase9firestore4core9Direction7ApplyToENS0_4util16ComparisonResultE",
            "__ZN8firebase9firestore5local18LevelDbTransaction8Iterator13UpdateCurrentEv",
            "__ZN8firebase9firestore5local18LocalDocumentsView25GetDocumentsMatchingQueryERKNS0_4core5QueryERKNS0_5model11IndexOffsetE",
            "__ZN8firebase9firestore5local20LevelDbIndexEntryKey9KeyPrefixEiN4absl12lts_2024011611string_viewES5_S5_",
            "__ZNK8firebase9firestore4core5Query4HashEv",
            "__ZN8firebase9firestore4util4Task11AwaitLockedERNSt3__111unique_lockINS3_5mutexEEE",
            "__ZNK8firebase9firestore26_google_protobuf_BoolValue8ToStringEi",
            "__ZNK8firebase9firestore6remote10Serializer25EncodeFieldFilterOperatorENS0_4core11FieldFilter8OperatorE",
            "__ZNK8firebase9firestore32_google_firestore_v1_WriteResult8ToStringEi",
            "__ZN8firebase9firestore5modeleqERKNS1_8MutationES4_",
            "__ZNK8firebase9firestore5local27LevelDbDocumentOverlayCache10GetOverlayERKNS0_5model11DocumentKeyE",
            "__ZNKR8firebase9firestore4core5Query8ToTargetEv",
            "__ZN8firebase9firestore5local10LocalStore12ReadDocumentERKNS0_5model11DocumentKeyE",
            "__ZN8firebase9firestore5local21LoadNextBatchIdFromDbEPN7leveldb2DBE",
            "__ZN8firebase9firestore4core12DatabaseInfoC1ENS0_5model10DatabaseIdENSt3__112basic_stringIcNS5_11char_traitsIcEENS5_9allocatorIcEEEESB_b",
            "__ZN8firebase9firestore5model10SortFieldsERNS0_31_google_firestore_v1_ArrayValueE",
            "__ZN8firebase9firestore5local17MemoryPersistenceC1Ev",
            "__ZN8firebase9firestore4util10AsyncQueueD2Ev",
            "__ZN8firebase9firestore4util19ExecutorLibdispatchD0Ev",
            "__ZN8firebase9firestore5local10LocalStore16ApplyRemoteEventERKNS0_6remote11RemoteEventE",
            "__ZN8firebase9firestore3api9Firestore16ClearPersistenceENSt3__18functionIFvNS0_4util6StatusEEEE",
            "__ZN8firebase9firestore5local27LevelDbDocumentOverlayCache24RemoveOverlaysForBatchIdEi",
            "__ZNK8firebase9firestore4core12ParseContext5writeEv",
            "__ZNK8firebase9firestore4util10AsyncQueue21VerifySequentialOrderEv",
            "__ZNK8firebase9firestore5local11QueryEngine25ExecuteFullCollectionScanERKNS0_4core5QueryERN4absl12lts_202401168optionalINS1_12QueryContextEEE",
            "__ZN8firebase9firestore3apieqERKNS1_5QueryES4_",
            "__ZN8firebase9firestore5local19LevelDbIndexManager19CreateTargetIndexesERKNS0_4core6TargetE",
            "__ZN8firebase9firestore5model10DatabaseId8FromNameERKNSt3__112basic_stringIcNS3_11char_traitsIcEENS3_9allocatorIcEEEE",
            "__ZN8firebase9firestore4util10Filesystem10RemoveFileERKNS1_4PathE",
            "__ZN8firebase9firestore5local19LruGarbageCollector23RemoveOrphanedDocumentsEx",
            "__ZNK8firebase9firestore4util8Schedule4sizeEv",
            "__ZN8firebase9firestore5local12ReferenceSet15RemoveReferenceERKNS0_5model11DocumentKeyEi",
            "__ZN8firebase9firestore4core11Transaction6DeleteERKNS0_5model11DocumentKeyE",
            "__ZNK8firebase9firestore4core5Bound17CompareToDocumentERKNSt3__16vectorINS1_7OrderByENS3_9allocatorIS5_EEEERKNS0_5model8DocumentE",
            "__ZNK8firebase9firestore46_google_firestore_v1_ListenRequest_LabelsEntry8ToStringEi",
            "__ZN8firebase9firestore6remote19GrpcStreamingReader12OnStreamReadERKN4grpc10ByteBufferE",
            "__ZN8firebase9firestore5local19LevelDbIndexManager26AddToCollectionParentIndexERKNS0_5model12ResourcePathE",
            "__ZN8firebase9firestore5model14CanonifyObjectERKNS0_26_google_firestore_v1_ValueE",
            "__ZN8firebase9firestore5local24LevelDbRemoteDocumentKey3KeyERKNS0_5model11DocumentKeyE",
            "__ZN8firebase9firestore3api9FirestoreD2Ev",
            "__ZN8firebase9firestore6remote11RemoteStore23CleanUpWatchStreamStateEv",
            "__ZN8firebase9firestore5local19MemoryMutationQueue19RemoveMutationBatchERKNS0_5model13MutationBatchE",
            "__ZN8firebase9firestore5local19MemoryMutationQueue5StartEv",
            "__ZN8firebase9firestore3apieqERKNS1_30MemoryGargabeCollectorSettingsES4_",
            "__ZNK8firebase9firestore5local28MemoryEagerReferenceDelegate23current_sequence_numberEv",
            "__ZNK8firebase9firestore5model8Mutation3Rep4HashEv",
            "__ZNK8firebase9firestore5model10FieldIndex22GetDirectionalSegmentsEv",
            "__ZN8firebase9firestore4util4TaskC1EPNS1_8ExecutorENSt3__16chrono10time_pointINS6_12steady_clockENS6_8durationIxNS5_5ratioILl1ELl1000EEEEEEEijONS5_8functionIFvvEEE",
            "__ZNK8firebase9firestore6remote10Serializer13DecodeOrderByEPNS0_4util11ReadContextERKNS0_42_google_firestore_v1_StructuredQuery_OrderE",
            "__ZN8firebase9firestore5local19LevelDbIndexManagerC1ERKNS0_11credentials4UserEPNS1_18LevelDbPersistenceEPNS1_15LocalSerializerE",
            "__ZN8firebase9firestore5model18TargetIndexMatcherC2ERKNS0_4core6TargetE",
            "__ZNK8firebase9firestore6remote10Serializer20DecodeFieldTransformEPNS0_4util11ReadContextERNS0_53_google_firestore_v1_DocumentTransform_FieldTransformE",
            "__ZN8firebase9firestore3api16DocumentSnapshotC2ENSt3__110shared_ptrINS1_9FirestoreEEENS0_5model11DocumentKeyEN4absl12lts_202401168optionalINS7_8DocumentEEENS1_16SnapshotMetadataE",
            "__ZNK8firebase9firestore3api8Settings16cache_size_bytesEv",
            "__ZN8firebase9firestore5local26LevelDbRemoteDocumentCache6RemoveERKNS0_5model11DocumentKeyE",
            "__ZN8firebase9firestore5model11SetMutation3RepC1EONS1_11DocumentKeyEONS1_11ObjectValueEONS1_12PreconditionEONSt3__16vectorINS1_14FieldTransformENSA_9allocatorISC_EEEE",
            "__ZN8firebase9firestore5local18MemoryIndexManager12GetMinOffsetERKNS0_4core6TargetE",
            "__ZN8firebase9firestore4core10SyncEngine16TrackLimboChangeERKNS1_19LimboDocumentChangeE",
            "__ZN8firebase9firestore5local27LevelDbDocumentOverlayCacheC2ERKNS0_11credentials4UserEPNS1_18LevelDbPersistenceEPNS1_15LocalSerializerE",
            "__ZN8firebase9firestore6remote18ExponentialBackoff18GetDelayWithJitterEv",
            "__ZN8firebase9firestore6nanopb14CopyBytesArrayEPK16pb_bytes_array_s",
            "__ZN8firebase9firestore4core19LimboDocumentChangeC2ENS2_4TypeENS0_5model11DocumentKeyE",
            "__ZN8firebase9firestore4util4Bits18Log2Floor_PortableEj",
            "__ZN8firebase9firestore4core18DocumentViewChangeC2ENS0_5model8DocumentENS2_4TypeE",
            "__ZNK8firebase9firestore5local10TargetData4HashEv",
            "__ZN8firebase9firestore5local45LevelDbDocumentOverlayCollectionGroupIndexKey6DecodeEN4absl12lts_2024011611string_viewE",
            "__ZN8firebase9firestore5local10LocalStore31GetHighestUnacknowledgedBatchIdEv",
            "__ZN8firebase9firestore6nanopb12StringReader4ReadEPK10pb_field_sPv",
            "__ZNK8firebase9firestore5model8Mutation3Rep6EqualsERKS3_",
            "__ZNK8firebase9firestore8GeoPoint8ToStringEv",
            "__ZNK8firebase9firestore6remote6Stream9IsStartedEv",
            "__ZN8firebase9firestore6remote14GrpcCompletionC2ENS2_4TypeERKNSt3__110shared_ptrINS0_4util10AsyncQueueEEEONS4_8functionIFvbRKNS5_IS2_EEEEE",
            "__ZN8firebase9firestore5local28LevelDbIndexConfigurationKey3KeyEiN4absl12lts_2024011611string_viewE",
            "__ZNK8firebase9firestore6bundle16BundleSerializer22DecodeDocumentMetadataERNS0_4util10JsonReaderERKN8nlohmann10basic_jsonINSt3__13mapENS8_6vectorENS8_12basic_stringIcNS8_11char_traitsIcEENS8_9allocatorIcEEEEbxydSE_NS6_14adl_serializerENSA_IhNSE_IhEEEEEE",
            "__ZNK8firebase9firestore5model8Mutation16ApplyToLocalViewERNS1_15MutableDocumentEN4absl12lts_202401168optionalINS1_9FieldMaskEEERKNS_9TimestampE",
            "__ZN8firebase9firestore5index15WriteIndexValueERKNS0_26_google_firestore_v1_ValueEPNS1_27DirectionalIndexByteEncoderE",
            "__ZNK8firebase9firestore6remote10GrpcStream18GetResponseHeadersEv",
            "__ZNK8firebase9firestore3api10WriteBatch18VerifyNotCommittedEv",
            "__ZNK8firebase9firestore5local18LocalDocumentsView15GetBaseDocumentERKNS0_5model11DocumentKeyERKN4absl12lts_202401168optionalINS3_7OverlayEEE",
            "__ZN8firebase9firestore5local17LevelDbMigrations17ReadSchemaVersionEPN7leveldb2DBE",
            "__ZNK8firebase9firestore4core15CompositeFilter3Rep23FindFirstMatchingFilterERKNSt3__18functionIFbRKNS1_11FieldFilterEEEE",
            "__ZNK8firebase9firestore6remote11WriteStream17last_stream_tokenEv",
            "__ZNK8firebase9firestore48_google_firestore_v1_RunAggregationQueryResponse8ToStringEi",
            "__ZN8firebase9firestore5local18LevelDbTransaction8ToStringEv",
            "__ZN8firebase9firestore5local27LevelDbLruReferenceDelegateC1EPNS1_18LevelDbPersistenceENS1_9LruParamsE",
            "__ZN8firebase9firestore5model19MutationBatchResultC1ENS1_13MutationBatchENS1_15SnapshotVersionENSt3__16vectorINS1_14MutationResultENS5_9allocatorIS7_EEEENS0_6nanopb10ByteStringE",
            "__ZNK8firebase9firestore4core11Transaction10GetVersionERKNS0_5model11DocumentKeyE",
            "__ZN8firebase9firestore5local18MemoryIndexManager26AddToCollectionParentIndexERKNS0_5model12ResourcePathE",
            "__ZN8firebase9firestore4util4TaskD1Ev",
            "__ZN8firebase9firestore4util11OrderedCode12ReadInfinityEPN4absl12lts_2024011611string_viewE",
            "__ZN8firebase9firestore4util11ExecutorStdC2Ei",
            "__ZN8firebase9firestore5locallsERNSt3__113basic_ostreamIcNS2_11char_traitsIcEEEENS1_12QueryPurposeE",
            "__ZN8firebase9firestore3api9Firestore14DisableNetworkENSt3__18functionIFvNS0_4util6StatusEEEE",
            "__ZN8firebase9firestore5local10LocalStore22NotifyLocalViewChangesERKNSt3__16vectorINS1_16LocalViewChangesENS3_9allocatorIS5_EEEE",
            "__ZN8firebase9firestore5indexlsERNSt3__113basic_ostreamIcNS2_11char_traitsIcEEEERKNS1_10IndexEntryE",
            "__ZN8firebase9firestore5local18LevelDbTargetCache14UpdateMetadataERKNS1_10TargetDataE",
            "__ZN8firebase9firestore6remote9Datastore30LookupDocumentsWithCredentialsERKNS0_11credentials9AuthTokenERKNSt3__112basic_stringIcNS7_11char_traitsIcEENS7_9allocatorIcEEEERKNS7_6vectorINS0_5model11DocumentKeyENSB_ISI_EEEEONS7_8functionIFvRKNS0_4util8StatusOrINSG_INSH_8DocumentENSB_ISQ_EEEEEEEEE",
            "__ZNK8firebase9firestore6remote21WatchStreamSerializer20EncodeUnwatchRequestEi",
            "__ZNK8firebase9firestore30_google_api_ResourceDescriptor8ToStringEi",
            "__ZN8firebase9firestore4util15BackgroundQueueC2EPNS1_8ExecutorE",
            "__ZN8firebase9firestore5model13PatchMutationC2ERKNS1_8MutationE",
            "__ZNK8firebase9firestore4util10AsyncQueue20VerifyIsCurrentQueueEv",
            "__ZN8firebase9firestore5local18LevelDbPersistence21DeleteAllFieldIndexesEv",
            "__ZN8firebase9firestore4util8Schedule8PopIfDueEv",
            "__ZN8firebase9firestore4util10AsyncQueue17EnqueueAfterDelayENSt3__16chrono8durationIxNS3_5ratioILl1ELl1000EEEEENS1_7TimerIdERKNS3_8functionIFvvEEE",
            "__ZN8firebase9firestore5local18LevelDbPersistence11RunInternalEN4absl12lts_2024011611string_viewENSt3__18functionIFvvEEE",
            "__ZNK8firebase9firestore4core5Query20normalized_order_bysEv",
            "__ZN8firebase9firestore5local12ReferenceSet16RemoveReferencesERKNS0_9immutable9SortedSetINS0_5model11DocumentKeyENS0_4util10ComparatorIS6_EEEEi",
            "__ZNK8firebase9firestore4core18DocumentViewChange8ToStringEv",
            "__ZNK8firebase9firestore5model10DatabaseId9CompareToERKS2_",
            "__ZN8firebase9firestore5local13LevelDbOpener10StorageDirERKNS0_4util4PathE",
            "__ZN8firebase9firestore5model17CanonifyReferenceERKNS0_26_google_firestore_v1_ValueE",
            "__ZNK8firebase9firestore5model11IndexOffset9CompareToERKS2_",
            "__ZN8firebase9firestore5local45LevelDbDocumentOverlayCollectionGroupIndexKey3KeyERKNS1_25LevelDbDocumentOverlayKeyE",
            "__ZN8firebase9firestore5model16CanonifyGeoPointERKNS0_26_google_firestore_v1_ValueE",
            "__ZN8firebase9firestore4coreeqERKNS1_7OrderByES4_",
            "__ZThn8_N8firebase9firestore6remote11RemoteStore19OnWatchStreamChangeERKNS1_11WatchChangeERKNS0_5model15SnapshotVersionE",
            "__ZN8firebase9firestore4core12DatabaseInfoC2ENS0_5model10DatabaseIdENSt3__112basic_stringIcNS5_11char_traitsIcEENS5_9allocatorIcEEEESB_b",
            "__ZN8firebase9firestore5local26MemoryDocumentOverlayCache11SaveOverlayEiRKNS0_5model8MutationE",
            "__ZNK8firebase9firestore4core11FieldFilter3Rep7MatchesERKNS0_5model8DocumentE",
            "__ZNK8firebase9firestore45_google_firestore_v1_ListCollectionIdsRequest8ToStringEi",
            "__ZN8firebase9firestore4util10AsyncQueue7DisposeEv",
            "__ZNK8firebase9firestore4core19ArrayContainsFilter3Rep7MatchesERKNS0_5model8DocumentE",
            "__ZN8firebase9firestore6nanopb11CheckedSizeEm",
            "__ZN8firebase9firestore4core5QueryC1ENS0_5model12ResourcePathENSt3__112basic_stringIcNS5_11char_traitsIcEENS5_9allocatorIcEEEE",
            "__ZNK8firebase9firestore5model13MutationBatch21ApplyToRemoteDocumentERNS1_15MutableDocumentERKNS1_19MutationBatchResultE",
            "__ZNK8firebase9firestore4util6Status5State7DeleterclEPKS3_",
            "__ZN8firebase9firestore6bundle12BundleLoader10AddElementENSt3__110unique_ptrINS1_13BundleElementENS3_14default_deleteIS5_EEEEy",
            "__ZN8firebase9firestore5local17MemoryBundleCache14SaveNamedQueryERKNS0_6bundle10NamedQueryE",
            "__ZN8firebase9firestore5model11ObjectValueC1ERKS2_",
            "__ZN8firebase9firestore5local44LevelDbDocumentOverlayLargestBatchIdIndexKey9KeyPrefixEN4absl12lts_2024011611string_viewEi",
            "__ZN8firebase9firestore5local10LocalStore20GetNextMutationBatchEi",
            "__ZN8firebase9firestore5local19LevelDbIndexManager20GetCollectionParentsERKNSt3__112basic_stringIcNS3_11char_traitsIcEENS3_9allocatorIcEEEE",
            "__ZN8firebase9firestore5local19LruGarbageCollector7CollectERKNSt3__113unordered_mapIiNS1_10TargetDataENS3_4hashIiEENS3_8equal_toIiEENS3_9allocatorINS3_4pairIKiS5_EEEEEE",
            "__ZN8firebase9firestore6remote10Serializer12DecodeStringEPK16pb_bytes_array_s",
            "__ZNK8firebase9firestore6remote10Serializer21DecodeMissingDocumentEPNS0_4util11ReadContextERKNS0_46_google_firestore_v1_BatchGetDocumentsResponseE",
            "__ZNK8firebase9firestore3api13QuerySnapshot4HashEv",
            "__ZN8firebase9firestore4core16ParseAccumulator14AddToFieldMaskENS0_5model9FieldPathE",
            "__ZN8firebase9firestore4util19ExecutorLibdispatch6CancelEj",
            "__ZN8firebase9firestore5model7CompareERKNS0_26_google_firestore_v1_ValueES4_",
            "__ZNK8firebase9firestore3api13QuerySnapshot5queryEv",
            "__ZN8firebase9firestore4core11FieldFilterC1ENSt3__110shared_ptrIKNS1_6Filter3RepEEE",
            "__ZNK8firebase9firestore5local15LocalSerializer14DecodeMutationEPNS0_6nanopb6ReaderERNS0_26_google_firestore_v1_WriteE",
            "__ZN8firebase9firestore4util11ExecutorStd7ExecuteEONSt3__18functionIFvvEEE",
            "__ZN8firebase9firestore5local27LevelDbLruReferenceDelegateD0Ev",
            "__ZNK8firebase9firestore5model11OverlayHashclERKNS1_7OverlayE",
            "__ZN8firebase9firestore3api9Firestore17SetClientLanguageENSt3__112basic_stringIcNS3_11char_traitsIcEENS3_9allocatorIcEEEE",
            "__ZN8firebase9firestore5local19MemoryMutationQueue29NextMutationBatchAfterBatchIdEi",
            "__ZN8firebase9firestore3apineERKNS1_8SettingsES4_",
            "__ZN8firebase9firestore4core15CompositeFilter16WithAddedFiltersERKNSt3__16vectorINS1_6FilterENS3_9allocatorIS5_EEEE",
            "__ZN8firebase9firestore4util8ScheduleD2Ev",
            "__ZN8firebase9firestore6remote21WatchChangeAggregator17EnsureTargetStateEi",
            "__ZN8firebase9firestore5local19StandardReadOptionsEv",
            "__ZNK8firebase9firestore4util15ByteStreamApple3eofEv",
            "__ZNK8firebase9firestore5local11QueryEngine11NeedsRefillERKNS0_4core5QueryERKNS0_5model11DocumentSetERKNS0_9immutable9SortedSetINS7_11DocumentKeyENS0_4util10ComparatorISD_EEEERKNS7_15SnapshotVersionE",
            "__ZNK8firebase9firestore5model14ArrayTransform3Rep4HashEv",
            "__ZNK8firebase9firestore6remote10Serializer32DecodeExistenceFilterWatchChangeEPNS0_4util11ReadContextERKNS0_36_google_firestore_v1_ExistenceFilterE",
            "__ZN8firebase9firestore4util10Filesystem6RenameERKNS1_4PathES5_",
            "__ZN8firebase9firestore4util10LogicUtils17IsFlatConjunctionERKNS0_4core6FilterE",
            "__ZN8firebase9firestore12EnumToStringENS0_61_google_firestore_v1_StructuredQuery_CompositeFilter_OperatorE",
            "__ZNK8firebase9firestore35_google_firestore_v1_DocumentChange8ToStringEi",
            "__ZNK8firebase9firestore5model25NumericIncrementTransform3Rep16ComputeBaseValueERKN4absl12lts_202401168optionalINS0_26_google_firestore_v1_ValueEEE",
            "__ZN8firebase9firestore4util4TaskD2Ev",
            "__ZNK8firebase9firestore4core5Query14MatchesOrderByERKNS0_5model8DocumentE",
            "__ZNK8firebase9firestore5local27LevelDbDocumentOverlayCache11GetOverlaysEN4absl12lts_2024011611string_viewEim",
            "__ZN8firebase9firestore4util11ExecutorStd15ExecuteBlockingEONSt3__18functionIFvvEEE",
            "__ZN8firebase9firestore5local40LevelDbDocumentOverlayCollectionIndexKey9KeyPrefixEN4absl12lts_2024011611string_viewERKNS0_5model12ResourcePathE",
            "__ZN8firebase9firestore5local27LevelDbLruReferenceDelegate26EnumerateOrphanedDocumentsERKNSt3__18functionIFvRKNS0_5model11DocumentKeyExEEE",
            "__ZNK8firebase9firestore5model9FieldPath15CanonicalStringEv",
            "__ZNK8firebase9firestore43_google_firestore_v1_StructuredQuery_Filter8ToStringEi",
            "__ZNK8firebase9firestore5model15SnapshotVersion9CompareToERKS2_",
            "__ZNK8firebase9firestore5local19LevelDbIndexManager30GetNextCollectionGroupToUpdateEv",
            "__ZN8firebase9firestore6remote10Serializer15DecodeTimestampEPNS0_4util11ReadContextERKNS0_26_google_protobuf_TimestampE",
            "__ZN8firebase9firestore4core4View22ApplyOnlineStateChangeENS0_5model11OnlineStateE",
            "__ZNK8firebase9firestore5local27LevelDbDocumentOverlayCache11GetOverlaysERKNS0_5model12ResourcePathEi",
            "__ZN8firebase9firestore4core13QueryListener6CreateENS1_5QueryENS1_13ListenOptionsEONSt3__110shared_ptrINS1_13EventListenerINS1_12ViewSnapshotEEEEE",
            "__ZN8firebase9firestore5local19MemoryMutationQueueC1EPNS1_17MemoryPersistenceERKNS0_11credentials4UserE",
            "__ZNK8firebase9firestore25_firestore_BundleMetadata8ToStringEi",
            "__ZNK8firebase9firestore4core12ParseContext19ValidatePathSegmentEN4absl12lts_2024011611string_viewE",
            "__ZN8firebase9firestore5local18LocalDocumentsView21GetOverlayedDocumentsERKNS0_9immutable9SortedMapINS0_5model11DocumentKeyENS5_15MutableDocumentENS0_4util10ComparatorIS6_EEEE",
            "__ZNK8firebase9firestore29_google_api_CustomHttpPattern8ToStringEi",
            "__ZN8firebase9firestore4util11ExecutorStd13PollingThreadENSt3__110shared_ptrINS2_11SharedStateEEE",
            "__ZN8firebase9firestore5local26MemoryLruReferenceDelegate17CalculateByteSizeEv",
            "__ZNK8firebase9firestore5local20DocumentKeyReference5ByKey7CompareERKS2_S5_",
            "__ZN8firebase9firestore4core13QueryListener20OnOnlineStateChangedENS0_5model11OnlineStateE",
            "__ZN8firebase9firestore5local19MemoryMutationQueueC2EPNS1_17MemoryPersistenceERKNS0_11credentials4UserE",
            "__ZN8firebase9firestore5local27LevelDbLruReferenceDelegateC2EPNS1_18LevelDbPersistenceENS1_9LruParamsE",
            "__ZN8firebase9firestore6remote10Serializer15EncodeFieldPathERKNS0_5model9FieldPathE",
            "__ZN8firebase9firestore5model11DocumentKey8FromNameERKNSt3__112basic_stringIcNS3_11char_traitsIcEENS3_9allocatorIcEEEE",
            "__ZNK8firebase9firestore32_google_firestore_v1_BloomFilter8ToStringEi",
            "__ZN8firebase9firestore6remote10GrpcStream14WriteAndFinishEON4grpc10ByteBufferE",
            "__ZNO8firebase9firestore4core16ParseAccumulator7SetDataENS0_5model11ObjectValueE",
            "__ZNK8firebase9firestore6nanopb10ByteString8ToStringEv",
            "__ZNK8firebase9firestore4util11ExecutorStd17IsCurrentExecutorEv",
            "__ZN8firebase9firestore5model10DatabaseIdC2ENSt3__112basic_stringIcNS3_11char_traitsIcEENS3_9allocatorIcEEEES9_",
            "__ZNK8firebase9firestore48_google_firestore_v1_StructuredQuery_FieldFilter8ToStringEi",
            "__ZN8firebase9firestore6remote18OnlineStateTracker34LogClientOfflineWarningIfNecessaryERKNSt3__112basic_stringIcNS3_11char_traitsIcEENS3_9allocatorIcEEEE",
            "__ZNK8firebase9firestore5local18MemoryIndexManager30GetNextCollectionGroupToUpdateEv",
            "__ZN8firebase9firestore4core4View20UpdateLimboDocumentsEv",
            "__ZN8firebase9firestore4core17TargetIdGeneratorC2ENS1_19TargetIdGeneratorIdEi",
            "__ZN8firebase9firestore5model11DocumentKey14FromPathStringERKNSt3__112basic_stringIcNS3_11char_traitsIcEENS3_9allocatorIcEEEE",
            "__ZN8firebase9firestore5local18LevelDbPersistence15GetIndexManagerERKNS0_11credentials4UserE",
            "__ZNK8firebase9firestore5model11DocumentSet11GetDocumentERKNS1_11DocumentKeyE",
            "__ZN8firebase9firestore5local26MemoryLruReferenceDelegate15AddInMemoryPinsEPNS1_12ReferenceSetE",
            "__ZN8firebase9firestore4util19ExecutorLibdispatch11InvokeAsyncEPv",
            "__ZNK8firebase9firestore4util19ExecutorLibdispatch17IsCurrentExecutorEv",
            "__ZNK8firebase9firestore45_google_firestore_v1_BatchGetDocumentsRequest8ToStringEi",
            "__ZN8firebase9firestore5local17MemoryPersistence18reference_delegateEv",
            "__ZN8firebase9firestore6remote10GrpcStream17OnOperationFailedEv",
            "__ZNK8firebase9firestore5model13PatchMutation3Rep21ApplyToRemoteDocumentERNS1_15MutableDocumentERKNS1_14MutationResultE",
            "__ZN8firebase9firestore5local26LevelDbDocumentMutationKey9KeyPrefixEv",
            "__ZN8firebase9firestore5model6EqualsERKNS0_31_google_firestore_v1_ArrayValueES4_",
            "__ZN8firebase9firestore4util11OrderedCode18WriteNumDecreasingEPNSt3__112basic_stringIcNS3_11char_traitsIcEENS3_9allocatorIcEEEEy",
            "__ZN8firebase9firestore5model8ContainsENS0_31_google_firestore_v1_ArrayValueENS0_26_google_firestore_v1_ValueE",
            "__ZNK8firebase9firestore6remote19DatastoreSerializer20MergeLookupResponsesERKNSt3__16vectorIN4grpc10ByteBufferENS3_9allocatorIS6_EEEE",
            "__ZN8firebase9firestore6remote23LoadGrpcRootCertificateEv",
            "__ZN8firebase9firestore6bundle12BundleReader17GetBundleMetadataEv",
            "__ZNK8firebase9firestore4core5Query22InequalityFilterFieldsEv",
            "__ZNK8firebase9firestore5local15LocalSerializer18EncodeBundledQueryERKNS0_6bundle12BundledQueryE",
            "__ZN8firebase9firestore5local10LocalStore14AllocateTargetENS0_4core6TargetE",
            "__ZN8firebase9firestore5local27LevelDbLruReferenceDelegateD1Ev",
            "__ZN8firebase9firestore6remote11WatchStreamC2ERKNSt3__110shared_ptrINS0_4util10AsyncQueueEEENS4_INS0_11credentials19CredentialsProviderINSA_9AuthTokenENSA_4UserEEEEENS4_INSB_INS3_12basic_stringIcNS3_11char_traitsIcEENS3_9allocatorIcEEEESL_EEEENS1_10SerializerEPNS1_14GrpcConnectionEPNS1_19WatchStreamCallbackE",
            "__ZN8firebase9firestore3api9Firestore13GetNamedQueryERKNSt3__112basic_stringIcNS3_11char_traitsIcEENS3_9allocatorIcEEEENS3_8functionIFvNS0_4core5QueryEbEEE",
            "__ZNK8firebase9firestore5model11DocumentSet5eraseERKNS1_11DocumentKeyE",
            "__ZN8firebase9firestore4util4TaskD0Ev",
            "__ZNK8firebase9firestore5model7Overlay8ToStringEv",
            "__ZN8firebase9firestore6remote14GrpcConnection17SetClientLanguageENSt3__112basic_stringIcNS3_11char_traitsIcEENS3_9allocatorIcEEEE",
            "__ZN8firebase9firestore5model16GetPreviousValueERKNS0_26_google_firestore_v1_ValueE",
            "__ZNK8firebase9firestore6remote10Serializer17DecodeWatchChangeEPNS0_4util11ReadContextERNS0_35_google_firestore_v1_ListenResponseE",
            "__ZN8firebase9firestore6remote8internal14BufferedWriter13TryStartWriteEv",
            "__ZN8firebase9firestore4util10AsyncQueueC1ENSt3__110unique_ptrINS1_8ExecutorENS3_14default_deleteIS5_EEEE",
            "__ZN8firebase9firestore4util8internal13FailAssertionEPKcS4_iRKNSt3__112basic_stringIcNS5_11char_traitsIcEENS5_9allocatorIcEEEES4_",
            "__ZN8firebase9firestore11credentials4User15UnauthenticatedEv",
            "__ZNK8firebase9firestore3api5Query12LimitToFirstEi",
            "__ZN8firebase9firestore5local20LevelDbMutationQueue16AcknowledgeBatchERKNS0_5model13MutationBatchERKNS0_6nanopb10ByteStringE",
            "__ZN8firebase9firestore4core4ViewC2ENS1_5QueryENS0_9immutable9SortedSetINS0_5model11DocumentKeyENS0_4util10ComparatorIS7_EEEE",
            "__ZN8firebase9firestore5local44LevelDbDocumentOverlayLargestBatchIdIndexKey3KeyEN4absl12lts_2024011611string_viewEiRKNS0_5model11DocumentKeyE",
            "__ZNK8firebase9firestore6remote10Serializer21EncodeCompositeFilterERKNS0_4core15CompositeFilterE",
            "__ZNK8firebase9firestore4util19ExecutorLibdispatch4NameEv",
            "__ZN8firebase9firestore6remote11WriteStream20NotifyStreamResponseERKN4grpc10ByteBufferE",
            "__ZN8firebase9firestore6remote10SerializerC2ENS0_5model10DatabaseIdE",
            "__ZNK8firebase9firestore33_google_firestore_v1_DocumentMask8ToStringEi",
            "__ZN8firebase9firestore5local20LevelDbNamedQueryKey3KeyEN4absl12lts_2024011611string_viewE",
            "__ZN8firebase9firestore4core15FirestoreClient14RemoveListenerERKNSt3__110shared_ptrINS1_13QueryListenerEEE",
            "__ZN8firebase9firestore5model15MutableDocument15InvalidDocumentENS1_11DocumentKeyE",
            "__ZNK8firebase9firestore5local15LocalSerializer19EncodeMutationBatchERKNS0_5model13MutationBatchE",
            "__ZN8firebase9firestore3api17DocumentReference10UpdateDataEONS0_4core16ParsedUpdateDataENSt3__18functionIFvNS0_4util6StatusEEEE",
            "__ZN8firebase9firestore3api14LoadBundleTaskD2Ev",
            "__Z34FSTIncludeFIRSnapshotListenOptionsv",
            "__ZN8firebase9firestore12EnumToStringENS0_38_google_api_ResourceDescriptor_HistoryE",
            "__ZNK8firebase9firestore28_firestore_client_NoDocument8ToStringEi",
            "__ZN8firebase9firestore6remote10Serializer15EncodeFieldMaskERKNS0_5model9FieldMaskE",
            "__ZThn8_N8firebase9firestore6remote19GrpcStreamingReader12OnStreamReadERKN4grpc10ByteBufferE",
            "__ZN8firebase9firestore5model11CanonicalIdERKNS0_31_google_firestore_v1_ArrayValueE",
            "__ZN8firebase9firestore5local11DescribeKeyEN7leveldb5SliceE",
            "__ZN8firebase9firestore4core13QueryListener6CreateENS1_5QueryEONSt3__18functionIFvNS0_4util8StatusOrINS1_12ViewSnapshotEEEEEE",
            "__ZNK8firebase9firestore23_firestore_BundledQuery8ToStringEi",
            "__ZN8firebase9firestore4util10AsyncQueue14EnqueueRelaxedERKNSt3__18functionIFvvEEE",
            "__ZN8firebase9firestore5local10ProtoSizerC2ENS1_15LocalSerializerE",
            "__ZNK8firebase9firestore3api5Query11LimitToLastEi",
            "__ZN8firebase9firestore6remote9Datastore8ShutdownEv",
            "__ZN8firebase9firestore4core12EventManager16AddQueryListenerENSt3__110shared_ptrINS1_13QueryListenerEEE",
            "__ZN8firebase9firestore6remote6Stream5WriteEON4grpc10ByteBufferE",
            "__ZNK8firebase9firestore47_google_firestore_v1_StructuredAggregationQuery8ToStringEi",
            "__ZN8firebase9firestore3apieqERKNS1_14AggregateQueryES4_",
            "__ZN8firebase9firestore6remote6StreamC2ERKNSt3__110shared_ptrINS0_4util10AsyncQueueEEENS4_INS0_11credentials19CredentialsProviderINSA_9AuthTokenENSA_4UserEEEEENS4_INSB_INS3_12basic_stringIcNS3_11char_traitsIcEENS3_9allocatorIcEEEESL_EEEEPNS1_14GrpcConnectionENS5_7TimerIdESQ_SQ_",
            "__ZN8firebase9firestore4core13ParsedSetDataC2ENS0_5model11ObjectValueENSt3__16vectorINS3_14FieldTransformENS5_9allocatorIS7_EEEE",
            "__ZNK8firebase9firestore5local26LevelDbRemoteDocumentCache3GetERKNS0_5model11DocumentKeyE",
            "__ZNK8firebase9firestore6remote10Serializer21DecodeDocumentsTargetEPNS0_4util11ReadContextERKNS0_43_google_firestore_v1_Target_DocumentsTargetE",
            "__ZN8firebase9firestore5local17MemoryTargetCache18RemoveMatchingKeysERKNS0_9immutable9SortedSetINS0_5model11DocumentKeyENS0_4util10ComparatorIS6_EEEEi",
            "__ZN8firebase9firestore5local17MemoryTargetCache12UpdateTargetERKNS1_10TargetDataE",
            "__ZNK8firebase9firestore5model13MutationBatch20ApplyToLocalDocumentERNS1_15MutableDocumentEN4absl12lts_202401168optionalINS1_9FieldMaskEEE",
            "__ZNK8firebase9firestore5local15LocalSerializer16DecodeNoDocumentEPNS0_6nanopb6ReaderERKNS0_28_firestore_client_NoDocumentEb",
            "__ZN8firebase9firestore5local26LevelDbDocumentMutationKey3KeyEN4absl12lts_2024011611string_viewERKNS0_5model11DocumentKeyEi",
            "__ZNK8firebase9firestore4core15FirestoreClient19VerifyNotTerminatedEv",
            "__ZN8firebase9firestore4coreeqERKNS1_5BoundES4_",
            "__ZNK8firebase9firestore27_google_protobuf_BytesValue8ToStringEi",
            "__ZN8firebase9firestore4util15BackgroundQueueC1EPNS1_8ExecutorE",
            "__ZN8firebase9firestore5model8Mutation3RepC2EONS1_11DocumentKeyEONS1_12PreconditionEONSt3__16vectorINS1_14FieldTransformENS8_9allocatorISA_EEEEON4absl12lts_202401168optionalINS1_9FieldMaskEEE",
            "__ZN8firebase9firestore5local10LocalStoreD0Ev",
            "__ZNK8firebase9firestore5local18LevelDbPersistence23current_sequence_numberEv",
            "__ZN8firebase9firestore5local19MemoryMutationQueue23PerformConsistencyCheckEv",
            "__ZNK8firebase9firestore4util4TaskltERKS2_",
            "__ZNK8firebase9firestore5local11QueryEngine27PerformQueryUsingRemoteKeysERKNS0_4core5QueryERKNS0_9immutable9SortedSetINS0_5model11DocumentKeyENS0_4util10ComparatorISA_EEEERKNS9_15SnapshotVersionE",
            "__ZNK8firebase9firestore5model15DocumentKeyHashclERKNS1_11DocumentKeyE",
            "__ZNK8firebase9firestore29_google_firestore_v1_MapValue8ToStringEi",
            "__ZN8firebase9firestore5local17MemoryPersistence21DeleteAllFieldIndexesEv",
            "__ZN8firebase9firestore5local18LevelDbPersistence16GetMutationQueueERKNS0_11credentials4UserEPNS1_12IndexManagerE",
            "__ZN8firebase9firestore6remote8internal14BufferedWriter16DequeueNextWriteEv",
            "__ZNK8firebase9firestore6remote11TargetState14ToTargetChangeEv",
            "__ZN8firebase9firestore4util4Path24MutableAppendUtf8SegmentEN4absl12lts_2024011611string_viewE",
            "__ZN8firebase9firestore6nanopb10ByteStringC1ERKS2_",
            "__ZN8firebase9firestore5model17IsServerTimestampERKNS0_26_google_firestore_v1_ValueE",
            "__ZN8firebase9firestore5local16LevelDbTargetKey9KeyPrefixEv",
            "__ZN8firebase9firestore6remote6Stream17HandleErrorStatusERKNS0_4util6StatusE",
            "__ZN8firebase9firestore6remote10GrpcStreamD1Ev",
            "__ZN8firebase9firestore4util11ExecutorStdD0Ev",
            "__ZN8firebase9firestore3api8Settings20set_cache_size_bytesEx",
            "__ZN8firebase9firestore4util11OrderedCode23ReadSignedNumIncreasingEPN4absl12lts_2024011611string_viewEPx",
            "__ZNK8firebase9firestore5local28MemoryEagerReferenceDelegate24MutationQueuesContainKeyERKNS0_5model11DocumentKeyE",
            "__ZN8firebase9firestore5model25NumericIncrementTransformC2ENS0_6nanopb7MessageINS0_26_google_firestore_v1_ValueEEE",
            "__ZNK8firebase9firestore34_google_firestore_v1_CommitRequest8ToStringEi",
            "__ZN8firebase9firestore6remoteeqERKNS1_17WatchTargetChangeES4_",
            "__ZN8firebase9firestore3api14LoadBundleTask15NotifyObserversEv",
            "__ZN8firebase9firestore5local26LevelDbRemoteDocumentCacheD0Ev",
            "__ZNK8firebase9firestore5model11DocumentKey8ToStringEv",
            "__ZNK8firebase9firestore5model15MutableDocument4HashEv",
            "__ZN8firebase9firestore4util11OrderedCode17ReadNumDecreasingEPN4absl12lts_2024011611string_viewEPy",
            "__ZNK8firebase9firestore5local15IndexBackfiller30WriteEntriesForCollectionGroupEPKNS1_10LocalStoreERKNSt3__112basic_stringIcNS6_11char_traitsIcEENS6_9allocatorIcEEEEm",
            "__ZN8firebase9firestore4core11TransactionC2ENSt3__110shared_ptrINS0_6remote9DatastoreEEE",
            "__ZN8firebase9firestore5model13MutationBatchC1EiNS_9TimestampENSt3__16vectorINS1_8MutationENS4_9allocatorIS6_EEEES9_",
            "__ZN8firebase9firestore4core12ParseContext12ChildContextERKNS0_5model9FieldPathE",
            "__ZNK8firebase9firestore5local10LocalStore28GetLastRemoteSnapshotVersionEv",
            "__ZN8firebase9firestore5model10IsMinValueERKNS0_26_google_firestore_v1_ValueE",
            "__ZN8firebase9firestore4core10SyncEngine36FailOutstandingPendingWriteCallbacksERKNSt3__112basic_stringIcNS3_11char_traitsIcEENS3_9allocatorIcEEEE",
            "__ZN8firebase9firestore5model11DocumentKeyC2EONS1_12ResourcePathE",
            "__ZNK8firebase9firestore4core5Query10StartingAtENS1_5BoundE",
            "__ZN8firebase9firestore3api8Settings23set_persistence_enabledEb",
            "__ZN8firebase9firestore4core10SyncEngine17RunAggregateQueryERKNS1_5QueryERKNSt3__16vectorINS0_5model14AggregateFieldENS6_9allocatorIS9_EEEEONS6_8functionIFvRKNS0_4util8StatusOrINS8_11ObjectValueEEEEEE",
            "__ZN8firebase9firestore6nanopb10ByteStringD2Ev",
            "__ZNK8firebase9firestore5local26MemoryDocumentOverlayCache11GetOverlaysERKNS0_5model12ResourcePathEi",
            "__ZN8firebase9firestore4util8Schedule21InsertPreservingOrderEPNS1_4TaskE",
            "__ZN8firebase9firestore4util10LogicUtils34AssertFieldFilterOrCompositeFilterERKNS0_4core6FilterE",
            "__ZN8firebase9firestore5local10LocalStore16HandleUserChangeERKNS0_11credentials4UserE",
            "__ZN8firebase9firestore4util10AsyncQueue26EnqueueEvenWhileRestrictedERKNSt3__18functionIFvvEEE",
            "__ZN8firebase9firestore4core15FirestoreClient13ListenToQueryENS1_5QueryENS1_13ListenOptionsEONSt3__110shared_ptrINS1_13EventListenerINS1_12ViewSnapshotEEEEE",
            "__ZN8firebase9firestore4util6Status17WithPlatformErrorENSt3__110unique_ptrINS1_13PlatformErrorENS3_14default_deleteIS5_EEEE",
            "__ZN8firebase9firestore5local17MemoryTargetCache15GetMatchingKeysEi",
            "__ZN8firebase9firestore6remote16ByteBufferWriter7ReleaseEv",
            "__ZNK8firebase9firestore27_google_protobuf_Int32Value8ToStringEi",
            "__ZN8firebase9firestore5local18LevelDbTransaction8Iterator4SeekERKNSt3__112basic_stringIcNS4_11char_traitsIcEENS4_9allocatorIcEEEE",
            "__ZN8firebase9firestore4core15FirestoreClient28ScheduleLruGarbageCollectionEv",
            "__ZN8firebase9firestore5local19LevelDbIndexManager21UpdateCollectionGroupERKNSt3__112basic_stringIcNS3_11char_traitsIcEENS3_9allocatorIcEEEENS0_5model11IndexOffsetE",
            "__ZN8firebase9firestore4util11ExecutorStd7DisposeEv",
            "__ZN8firebase9firestore5local27LevelDbLruReferenceDelegateD2Ev",
            "__ZNK8firebase9firestore6remote10Serializer17DecodeCursorValueERNS0_27_google_firestore_v1_CursorE",
            "__ZN8firebase9firestore5local27LevelDbLruReferenceDelegate22GetSequenceNumberCountEv",
            "__ZNK8firebase9firestore5local19LevelDbIndexManager13GetFieldIndexERKNS0_4core6TargetE",
            "__ZN8firebase9firestore6nanopb16ByteStringWriterD1Ev",
            "__ZN8firebase9firestore5local18LevelDbTransactionC2EPN7leveldb2DBEN4absl12lts_2024011611string_viewERKNS3_11ReadOptionsERKNS3_12WriteOptionsE",
            "__ZN8firebase9firestore4core12EventManager25RaiseSnapshotsInSyncEventEv",
            "__ZN8firebase9firestore4coreeqERKNS1_6TargetES4_",
            "__ZN8firebase9firestore4core17TransactionRunner3RunEv",
            "__ZN8firebase9firestore4util10Filesystem20RecursivelyRemoveDirERKNS1_4PathE",
            "__ZNK8firebase9firestore6remote11RemoteStore21CanAddToWritePipelineEv",
            "__ZN8firebase9firestore5local18LevelDbTargetCache28SetLastRemoteSnapshotVersionENS0_5model15SnapshotVersionE",
            "__ZN8firebase9firestore6nanopb10ByteString7releaseEv",
            "__ZNK8firebase9firestore5model10DatabaseId8ToStringEv",
            "__ZNK8firebase9firestore22_google_protobuf_Value8ToStringEi",
            "__ZN8firebase9firestore5local10LocalStore11RejectBatchEi",
            "__ZN8firebase9firestore5local18LevelDbPersistenceD1Ev",
            "__ZN8firebase9firestore6nanopb10ByteStringC1EPK16pb_bytes_array_s",
            "__ZN8firebase9firestore6remote13GrpcUnaryCallD1Ev",
            "__ZN8firebase9firestore3api9Firestore30persistent_cache_index_managerEv",
            "__ZN8firebase9firestore5local20LevelDbNamedQueryKey9KeyPrefixEv",
            "__ZN8firebase9firestore12EnumToStringENS0_46_google_firestore_v1_StructuredQuery_DirectionE",
            "__ZN8firebase9firestore5model11ObjectValue24FromAggregateFieldsEntryEPNS0_59_google_firestore_v1_AggregationResult_AggregateFieldsEntryEjRKN4absl12lts_2024011613flat_hash_mapINSt3__112basic_stringIcNS8_11char_traitsIcEENS8_9allocatorIcEEEESE_NS6_18container_internal10StringHashENSF_8StringEqENSC_INS8_4pairIKSE_SE_EEEEEE",
            "__ZNK8firebase9firestore4core5Query13AddingOrderByENS1_7OrderByE",
            "__ZNK8firebase9firestore5local19LruGarbageCollector17CalculateByteSizeEv",
            "__ZNK8firebase9firestore5local18LevelDbTransaction8Iterator5valueEv",
            "__ZN8firebase9firestore3api10MakeSourceE18FIRFirestoreSource",
            "__ZNK8firebase9firestore5model14VerifyMutation3Rep21ApplyToRemoteDocumentERNS1_15MutableDocumentERKNS1_14MutationResultE",
            "__ZN8firebase9firestore5local19LevelDbIndexManager12GetMinOffsetERKNS0_4core6TargetE",
            "__ZN8firebase9firestore6remote10GrpcStream13NewCompletionENS1_14GrpcCompletion4TypeERKNSt3__18functionIFvRKNS5_10shared_ptrIS3_EEEEE",
            "__ZN8firebase9firestore5local17MemoryPersistenceD1Ev",
            "__ZNK8firebase9firestore4core15CompositeFilter3Rep13IsDisjunctionEv",
            "__ZN8firebase9firestore5local9LruParams8DisabledEv",
            "__ZN8firebase9firestore5local20LevelDbMutationQueue31GetHighestUnacknowledgedBatchIdEv",
            "__ZN8firebase9firestore6nanopb12StringReaderC1EPKhm",
            "__ZN8firebase9firestore6nanopb12StringWriterC2Ev",
            "__ZNK8firebase9firestore5model11DocumentKey4HashEv",
            "__ZNK8firebase9firestore4core5Query7MatchesERKNS0_5model8DocumentE",
            "__ZN8firebase9firestore5modellsERNSt3__113basic_ostreamIcNS2_11char_traitsIcEEEERKNS1_13MutationBatchE",
            "__ZN8firebase9firestore4core14KeyFieldFilterC1ERKNS0_5model9FieldPathENS1_11FieldFilter8OperatorENS0_6nanopb13SharedMessageINS0_26_google_firestore_v1_ValueEEE",
            "__ZN8firebase9firestore6remote11RemoteStore13EnableNetworkEv",
            "__ZN8firebase9firestore6remote10GrpcStream16RemoveCompletionERKNSt3__110shared_ptrINS1_14GrpcCompletionEEE",
            "__ZN8firebase9firestore4core12EventManager18QueryListenersInfo5EraseERKNSt3__110shared_ptrINS1_13QueryListenerEEE",
            "__ZN8firebase9firestore4core11Transaction18CreatePreconditionERKNS0_5model11DocumentKeyE",
            "__ZNK8firebase9firestore43_google_firestore_v1_Target_DocumentsTarget8ToStringEi",
            "__ZN8firebase9firestore5local12ReferenceSet15RemoveReferenceERKNS1_20DocumentKeyReferenceE",
            "__ZN8firebase9firestore5local18LocalDocumentsView11GetDocumentERKNS0_5model11DocumentKeyE",
            "__ZN8firebase9firestore4util8internal13FailAssertionEPKcS4_iRKNSt3__112basic_stringIcNS5_11char_traitsIcEENS5_9allocatorIcEEEE",
            "__ZNK8firebase9firestore4core6Target22GetFieldFiltersForPathERKNS0_5model9FieldPathE",
            "__ZN8firebase9firestore4util19ExecutorLibdispatch7DisposeEv",
            "__ZN8firebase9firestore6nanopb9PrintTailEi",
            "__ZN8firebase9firestore6remote6Stream23BackoffAndTryRestartingEv",
            "__ZN8firebase9firestore5local26MemoryLruReferenceDelegate13RemoveTargetsExRKNSt3__113unordered_mapIiNS1_10TargetDataENS3_4hashIiEENS3_8equal_toIiEENS3_9allocatorINS3_4pairIKiS5_EEEEEE",
            "__ZN8firebase9firestore5local19LevelDbIndexManager12MemoizeIndexENS0_5model10FieldIndexE",
            "__ZN8firebase9firestore5local18MemoryIndexManager26GetDocumentsMatchingTargetERKNS0_4core6TargetE",
            "__ZN8firebase9firestore4core15FirestoreClient13EnableNetworkENSt3__18functionIFvNS0_4util6StatusEEEE",
            "__ZN8firebase9firestore4util15ByteStreamApple12ReadToBufferEm",
            "__ZN8firebase9firestore11credentials35FirebaseAppCheckCredentialsProviderD0Ev",
            "__ZNK8firebase9firestore5model8Mutation3Rep21LocalTransformResultsERKNS1_11ObjectValueERKNS_9TimestampE",
            "__ZN8firebase9firestore5model15MutableDocument22ConvertToFoundDocumentERKNS1_15SnapshotVersionE",
            "__ZN8firebase9firestore4core15FirestoreClient11TransactionEiNSt3__18functionIFvNS3_10shared_ptrINS1_11TransactionEEENS4_IFvNS0_4util6StatusEEEEEEESB_",
            "__ZN8firebase9firestore6remote11WatchStreamC1ERKNSt3__110shared_ptrINS0_4util10AsyncQueueEEENS4_INS0_11credentials19CredentialsProviderINSA_9AuthTokenENSA_4UserEEEEENS4_INSB_INS3_12basic_stringIcNS3_11char_traitsIcEENS3_9allocatorIcEEEESL_EEEENS1_10SerializerEPNS1_14GrpcConnectionEPNS1_19WatchStreamCallbackE",
            "__ZN8firebase9firestore11credentials35FirebaseAppCheckCredentialsProvider8GetTokenENSt3__18functionIFvNS0_4util8StatusOrINS3_12basic_stringIcNS3_11char_traitsIcEENS3_9allocatorIcEEEEEEEEE",
            "__ZN8firebase9firestore6nanopb10ByteStringaSEOS2_",
            "__ZN8firebase9firestore5local18LevelDbPersistence12target_cacheEv",
            "__ZN8firebase9firestore6remote19ConnectivityMonitor16SetInitialStatusENS2_13NetworkStatusE",
            "__ZNK8firebase9firestore4core15CompositeFilter3Rep13IsConjunctionEv",
            "__ZN8firebase9firestore3api9Firestore18GetCollectionGroupENSt3__112basic_stringIcNS3_11char_traitsIcEENS3_9allocatorIcEEEE",
            "__ZN8firebase9firestore4core13QueryListener6CreateENS1_5QueryEONSt3__110shared_ptrINS1_13EventListenerINS1_12ViewSnapshotEEEEE",
            "__ZNK8firebase9firestore4core11FieldFilter3Rep12IsInequalityEv",
            "__ZN8firebase9firestore3api19CollectionReferenceC1ENS0_5model12ResourcePathENSt3__110shared_ptrINS1_9FirestoreEEE",
            "__ZN8firebase9firestore5local44LevelDbDocumentOverlayLargestBatchIdIndexKey6DecodeEN4absl12lts_2024011611string_viewE",
            "__ZN8firebase9firestore6remote9Datastore21IsPermanentWriteErrorERKNS0_4util6StatusE",
            "__ZN8firebase9firestore4core10SyncEngine22HandleCredentialChangeERKNS0_11credentials4UserE",
            "__ZN8firebase9firestore5local26MemoryDocumentOverlayCache24RemoveOverlaysForBatchIdEi",
            "__ZN8firebase9firestore6remote19GrpcStreamingReaderC1ENSt3__110unique_ptrIN4grpc13ClientContextENS3_14default_deleteIS6_EEEENS4_INS5_23ClientAsyncReaderWriterINS5_10ByteBufferESB_EENS7_ISC_EEEERKNS3_10shared_ptrINS0_4util10AsyncQueueEEEPNS1_14GrpcConnectionERKSB_",
            "__ZNK8firebase9firestore20_google_api_HttpRule8ToStringEi",
            "__ZNK8firebase9firestore5model13MutationBatch23ApplyToLocalDocumentSetERNSt3__113unordered_mapINS1_11DocumentKeyENS1_17OverlayedDocumentENS1_15DocumentKeyHashENS3_8equal_toIS5_EENS3_9allocatorINS3_4pairIKS5_S6_EEEEEE",
            "__ZN8firebase9firestore5local20LevelDbMutationQueue38AllMutationBatchesAffectingDocumentKeyERKNS0_5model11DocumentKeyE",
            "__ZNK8firebase9firestore5local26MemoryDocumentOverlayCache11GetOverlaysEN4absl12lts_2024011611string_viewEim",
            "__ZNK8firebase9firestore3api16DocumentSnapshot17internal_documentEv",
            "__ZN8firebase9firestore5local17MemoryPersistence22set_reference_delegateENSt3__110unique_ptrINS1_17ReferenceDelegateENS3_14default_deleteIS5_EEEE",
            "__ZN8firebase9firestore5model10DatabaseIdC1ENSt3__112basic_stringIcNS3_11char_traitsIcEENS3_9allocatorIcEEEES9_",
            "__ZN8firebase9firestore6remote21WatchChangeAggregator16ApplyBloomFilterERKNS1_11BloomFilterERKNS1_26ExistenceFilterWatchChangeEi",
            "__ZNK8firebase9firestore4core5Query19MatchesAllDocumentsEv",
            "__ZN8firebase9firestore5local10LocalStore13ReleaseTargetEi",
            "__ZN8firebase9firestore5local27LevelDbLruReferenceDelegate13RemoveTargetsExRKNSt3__113unordered_mapIiNS1_10TargetDataENS3_4hashIiEENS3_8equal_toIiEENS3_9allocatorINS3_4pairIKiS5_EEEEEE",
            "__ZNK8firebase9firestore4util10ComparatorINSt3__112basic_stringIcNS3_11char_traitsIcEENS3_9allocatorIcEEEEE7CompareERKS9_SC_",
            "__ZNK8firebase9firestore3api13QuerySnapshot14internal_queryEv",
            "__ZN8firebase9firestore6remote21WatchChangeAggregator32GetCurrentDocumentCountForTargetEi",
            "__ZN8firebase9firestore4util11ExecutorStd8ScheduleENSt3__16chrono8durationIxNS3_5ratioILl1ELl1000EEEEEiONS3_8functionIFvvEEE",
            "__ZNK8firebase9firestore5model18TargetIndexMatcher14MatchesOrderByERKNS0_4core7OrderByERKNS1_7SegmentE",
            "__ZN8firebase9firestore4util11LogSetLevelENS1_8LogLevelE",
            "__ZN8firebase9firestore5local19LevelDbIndexManager13AddIndexEntryERKNS0_5model8DocumentERKNS3_10FieldIndexERKNS0_5index10IndexEntryE",
            "__ZN8firebase9firestore5local18LevelDbTransaction6DeleteEN4absl12lts_2024011611string_viewE",
            "__ZN8firebase9firestore4core10SyncEngine14WriteMutationsEONSt3__16vectorINS0_5model8MutationENS3_9allocatorIS6_EEEENS3_8functionIFvNS0_4util6StatusEEEE",
            "__ZN8firebase9firestore5local17MemoryPersistenceC2Ev",
            "__ZNK8firebase9firestore5local26LevelDbRemoteDocumentCache14GetAllExistingEONSt3__113unordered_mapINS0_5model11DocumentKeyENS5_15SnapshotVersionENS5_15DocumentKeyHashENS3_8equal_toIS6_EENS3_9allocatorINS3_4pairIKS6_S7_EEEEEERKNS0_4core5QueryERKNS4_IS6_NS5_7OverlayES8_SA_NSB_INSC_ISD_SM_EEEEEE",
            "__ZNK8firebase9firestore32_google_firestore_admin_v1_Index8ToStringEi",
            "__ZN8firebase9firestore3api19CollectionReferenceC2ENS0_5model12ResourcePathENSt3__110shared_ptrINS1_9FirestoreEEE",
            "__ZN8firebase9firestore4util8Schedule11PopBlockingEv",
            "__ZN8firebase9firestore6remote13GrpcUnaryCallD2Ev",
            "__ZN8firebase9firestore5local20LevelDbIndexStateKey6DecodeEN4absl12lts_2024011611string_viewE",
            "__ZN8firebase9firestore5model9NullValueEv",
            "__ZNK8firebase9firestore47_google_firestore_v1_StructuredQuery_Projection8ToStringEi",
            "__ZN8firebase9firestore5local20LevelDbMutationQueue18GetLastStreamTokenEv",
            "__ZN8firebase9firestore6remote11RemoteStore17CreateTransactionEv",
            "__ZNK8firebase9firestore6remote10Serializer15DecodeQueryPathEPNS0_4util11ReadContextEN4absl12lts_2024011611string_viewE",
            "__ZN8firebase9firestore5local26MemoryLruReferenceDelegate22GetSequenceNumberCountEv",
            "__ZNK8firebase9firestore5local19LevelDbIndexManager11CreateRangeERKNS0_5index10IndexEntryES6_NSt3__16vectorIS4_NS7_9allocatorIS4_EEEE",
            "__ZN8firebase9firestore6bundle12BundleReader15ReadNextElementEv",
            "__ZNK8firebase9firestore5local15LocalSerializer19EncodeMaybeDocumentERKNS0_5model15MutableDocumentE",
            "__ZN8firebase9firestore5model14ArrayTransformC1ENS1_18TransformOperation4TypeENS0_6nanopb7MessageINS0_31_google_firestore_v1_ArrayValueEEE",
            "__ZN8firebase9firestore6nanopb12StringReaderC1ERKNSt3__16vectorIhNS3_9allocatorIhEEEE",
            "__ZN8firebase9firestore4core15CompositeFilter3RepC2EONSt3__16vectorINS1_6FilterENS4_9allocatorIS6_EEEENS2_8OperatorE",
            "__ZN8firebase9firestore5modellsERNSt3__113basic_ostreamIcNS2_11char_traitsIcEEEENS1_15MutableDocument13DocumentStateE",
            "__ZNK8firebase9firestore6remote21WriteStreamSerializer13ParseResponseEPNS0_6nanopb6ReaderE",
            "__ZNK8firebase9firestore4core5Query19FindOpInsideFiltersERKNSt3__16vectorINS1_11FieldFilter8OperatorENS3_9allocatorIS6_EEEE",
            "__ZN8firebase9firestore4util6Status6UpdateERKS2_",
            "__ZNK8firebase9Timestamp14ValidateBoundsEv",
            "__ZN8firebase9firestore5modeleqERKNS1_11DocumentKeyES4_",
            "__ZN8firebase9firestore5local20LevelDbMutationQueue32AllMutationBatchesAffectingQueryERKNS0_4core5QueryE",
            "__ZN8firebase9firestore11credentials9AuthTokenC2ENSt3__112basic_stringIcNS3_11char_traitsIcEENS3_9allocatorIcEEEENS1_4UserE",
            "__ZN8firebase9firestore5local10LocalStore12ExecuteQueryERKNS0_4core5QueryEb",
            "__ZN8firebase9firestore5local18LevelDbMutationKey9KeyPrefixEN4absl12lts_2024011611string_viewE",
            "__ZNK8firebase9firestore49_google_firestore_v1_TransactionOptions_ReadWrite8ToStringEi",
            "__ZN8firebase9firestore5model24ServerTimestampTransformC2Ev",
            "__ZNK8firebase9firestore4core15CompositeFilter3Rep11CanonicalIdEv",
            "__ZN8firebase9firestore3api9Firestore8GetBatchEv",
            "__ZNK8firebase9firestore5local15LocalSerializer14EncodeMutationERKNS0_5model8MutationE",
            "__ZN8firebase9firestore5model9DeepCloneERKNS0_29_google_firestore_v1_MapValueE",
            "__ZN8firebase9firestore5model11DocumentKey13IsDocumentKeyERKNS1_12ResourcePathE",
            "__ZN8firebase9firestore6nanopb14MakeBytesArrayEPKvm",
            "__ZN8firebase9firestore5local19MemoryMutationQueue16AddMutationBatchERKNS_9TimestampEONSt3__16vectorINS0_5model8MutationENS6_9allocatorIS9_EEEESD_",
            "__ZN8firebase9firestore5model10IsNaNValueERKNS0_26_google_firestore_v1_ValueE",
            "__ZN8firebase9firestore6remote21WatchChangeAggregatorC1EPNS1_22TargetMetadataProviderE",
            "__ZN8firebase9firestore5local18LevelDbTransaction3GetEN4absl12lts_2024011611string_viewEPNSt3__112basic_stringIcNS6_11char_traitsIcEENS6_9allocatorIcEEEE",
            "__ZN8firebase9firestore6nanopb10MakeStringEPK16pb_bytes_array_s",
            "__ZN8firebase9firestore3api14LoadBundleTask10SetSuccessENS1_22LoadBundleTaskProgressE",
            "__ZN8firebase9firestore5local18LevelDbTargetCache9GetTargetERKNS0_4core6TargetE",
            "__ZN8firebase9firestore5local18LevelDbTargetCache4SaveERKNS1_10TargetDataE",
            "__ZNK8firebase9firestore4core5Query14MatchesFiltersERKNS0_5model8DocumentE",
            "__ZN8firebase9firestore5local10LocalStore13GetNamedQueryERKNSt3__112basic_stringIcNS3_11char_traitsIcEENS3_9allocatorIcEEEE",
            "__ZN8firebase9firestore3api16MakeListenSourceERK15FIRListenSource",
            "__ZN8firebase9firestore5model11DocumentKeyC1EONS1_12ResourcePathE",
            "__ZN8firebase9firestore6remote19ConnectivityMonitor15InvokeCallbacksENS2_13NetworkStatusE",
            "__ZNK8firebase9firestore4core12ViewSnapshot8ToStringEv",
            "__ZNK8firebase9firestore3api14DocumentChange4HashEv",
            "__ZN8firebase9firestore4core12EventManager26AddSnapshotsInSyncListenerERKNSt3__110shared_ptrINS1_13EventListenerINS0_4util5EmptyEEEEE",
            "__ZNK8firebase9firestore5local18LocalDocumentsView12ComputeViewsENS0_9immutable9SortedMapINS0_5model11DocumentKeyENS5_15MutableDocumentENS0_4util10ComparatorIS6_EEEEONSt3__113unordered_mapIS6_NS5_7OverlayENS5_15DocumentKeyHashENSC_8equal_toIS6_EENSC_9allocatorINSC_4pairIKS6_SE_EEEEEERKNS3_9SortedSetIS6_SA_EE",
            "__ZN8firebase9firestore5model17LowerBoundCompareERKNS0_26_google_firestore_v1_ValueEbS4_b",
            "__ZNK8firebase9firestore5model11DocumentKey4pathEv",
            "__ZN8firebase9TimestampC1Exi",
            "__ZN8firebase9firestore4core19KeyFieldNotInFilterC2ERKNS0_5model9FieldPathENS0_6nanopb13SharedMessageINS0_26_google_firestore_v1_ValueEEE",
            "__ZN8firebase9firestore5local25MemoryRemoteDocumentCache15SetIndexManagerEPNS1_12IndexManagerE",
            "__ZN8firebase9firestore6remote19DatastoreSerializerC2ERKNS0_4core12DatabaseInfoE",
            "__ZN8firebase9firestore4core21DocumentViewChangeSet9AddChangeEONS1_18DocumentViewChangeE",
            "__ZN8firebase9firestore5local11DescribeKeyEPKc",
            "__ZN8firebase9firestore6remote11RemoteStore16HandleWriteErrorERKNS0_4util6StatusE",
            "__ZN8firebase9firestore3apieqERKNS1_23PersistentCacheSettingsES4_",
            "__ZN8firebase9firestore6remote9Datastore24ResumeRpcWithCredentialsERKNSt3__18functionIFvRKNS0_4util8StatusOrINS0_11credentials9AuthTokenEEERKNS3_12basic_stringIcNS3_11char_traitsIcEENS3_9allocatorIcEEEEEEE",
            "__ZN8firebase9firestore6remote14GrpcCompletion17WaitUntilOffQueueEv",
            "__ZN8firebase9firestore5local19LevelDbIndexManager5StartEv",
            "__ZNK8firebase9firestore3api5Query7OrderByENS0_5model9FieldPathEb",
            "__ZNK8firebase9firestore3api5Query7StartAtENS0_4core5BoundE",
            "__ZNK8firebase9firestore6remote11BloomFilter11GetBitIndexERKNS2_4HashEi",
            "__ZN8firebase9firestore6remote10Serializer13DecodeVersionEPNS0_4util11ReadContextERKNS0_26_google_protobuf_TimestampE",
            "__ZN8firebase9firestore6remote11TargetState26RecordPendingTargetRequestEv",
            "__ZNK8firebase9firestore3api5Query8DescribeENS0_4core11FieldFilter8OperatorE",
            "__ZN8firebase9firestore5modellsERNSt3__113basic_ostreamIcNS2_11char_traitsIcEEEERKNS1_8MutationE",
            "__ZNK8firebase9firestore3api10WriteBatch17ValidateReferenceERKNS1_17DocumentReferenceE",
            "__ZN8firebase9firestore4core17TargetIdGeneratorC1ENS1_19TargetIdGeneratorIdEi",
            "__ZNK8firebase9firestore4core5Bound19SortsBeforeDocumentERKNSt3__16vectorINS1_7OrderByENS3_9allocatorIS5_EEEERKNS0_5model8DocumentE",
            "__ZN8firebase9firestore6nanopb10ByteStringD1Ev",
            "__ZNK8firebase9firestore5local27LevelDbDocumentOverlayCache22ForEachKeyInCollectionERKNS0_5model12ResourcePathEiNSt3__18functionIFvONS1_25LevelDbDocumentOverlayKeyEEEE",
            "__ZNK8firebase9firestore5model14ArrayTransform9array_repEv",
            "__ZNK8firebase9firestore3api19CollectionReference8DocumentERKNSt3__112basic_stringIcNS3_11char_traitsIcEENS3_9allocatorIcEEEE",
            "__ZNK8firebase9firestore6remote21WriteStreamSerializer27EncodeWriteMutationsRequestERKNSt3__16vectorINS0_5model8MutationENS3_9allocatorIS6_EEEERKNS0_6nanopb10ByteStringE",
            "__ZN8firebase9firestore5local27LevelDbDocumentOverlayCache11SaveOverlayEiRKNS0_5model11DocumentKeyERKNS3_8MutationE",
            "__ZN8firebase9firestore4util4Path8FromUtf8EN4absl12lts_2024011611string_viewE",
            "__ZN8firebase9firestore4core15FirestoreClient21DeleteAllFieldIndexesEv",
            "__ZN8firebase9firestorelsERNSt3__113basic_ostreamIcNS1_11char_traitsIcEEEERKNS0_8GeoPointE",
            "__ZN8firebase9firestore5modeleqERKNS1_18TransformOperationES4_",
            "__ZN8firebase9firestore6bundle12BundleLoader18AddElementInternalERKNS1_13BundleElementE",
            "__ZNK8firebase9firestore63_google_firestore_v1_StructuredAggregationQuery_Aggregation_Avg8ToStringEi",
            "__ZN8firebase9firestore5local27LevelDbLruReferenceDelegate17garbage_collectorEv",
            "__ZN8firebase9firestore11credentials9AuthTokenC1ENSt3__112basic_stringIcNS3_11char_traitsIcEENS3_9allocatorIcEEEENS1_4UserE",
            "__ZN8firebase9firestore6remote18OnlineStateTracker11UpdateStateENS0_5model11OnlineStateE",
            "__ZN8firebase9firestore5local19LruGarbageCollectorC2EPNS1_11LruDelegateENS1_9LruParamsE",
            "__ZN8firebase9firestore5local21LevelDbQueryTargetKey6DecodeEN4absl12lts_2024011611string_viewE",
            "__ZN8firebase9firestore3api10WriteBatch6CommitENSt3__18functionIFvNS0_4util6StatusEEEE",
            "__ZN8firebase9firestore4util6Status8CausedByERKS2_",
            "__ZN8firebase9firestore5model13PatchMutationC2ENS1_11DocumentKeyENS1_11ObjectValueENS1_9FieldMaskENS1_12PreconditionE",
            "__ZNK8firebase9firestore4util4Path12HasExtensionERKS2_",
            "__ZN8firebase9firestore5local17MemoryPersistence23WithLruGarbageCollectorENS1_9LruParamsENSt3__110unique_ptrINS1_5SizerENS4_14default_deleteIS6_EEEE",
            "__ZN8firebase9firestore5local28MemoryEagerReferenceDelegate23RemoveMutationReferenceERKNS0_5model11DocumentKeyE",
            "__ZN8firebase9firestore5model11SetMutationC2ENS1_11DocumentKeyENS1_11ObjectValueENS1_12PreconditionENSt3__16vectorINS1_14FieldTransformENS6_9allocatorIS8_EEEE",
            "__ZN8firebase9firestore4util12SecureRandomclEv",
            "__ZNK8firebase9firestore45_google_firestore_v1_BeginTransactionResponse8ToStringEi",
            "__ZN8firebase9firestore6remote14GrpcConnection12CreateStreamEN4absl12lts_2024011611string_viewERKNS0_11credentials9AuthTokenERKNSt3__112basic_stringIcNSA_11char_traitsIcEENSA_9allocatorIcEEEEPNS1_18GrpcStreamObserverE",
            "__ZN8firebase9firestore3api5QueryC1ENS0_4core5QueryENSt3__110shared_ptrINS1_9FirestoreEEE",
            "__ZN8firebase9firestore5local17MemoryTargetCache15AddMatchingKeysERKNS0_9immutable9SortedSetINS0_5model11DocumentKeyENS0_4util10ComparatorIS6_EEEEi"
          ],
          "weak": [
            "__ZN8firebase9firestore4util12StringFormatIJPNS0_6remote10GrpcStreamEmbEEENSt3__112basic_stringIcNS6_11char_traitsIcEENS6_9allocatorIcEEEEPKcDpRKT_",
            "__ZN8firebase9firestore4util4impl10InvokeHashINSt3__16vectorINS0_5model14AggregateFieldENS4_9allocatorIS7_EEEEEEmRKT_",
            "__ZN4absl12lts_202401167StrJoinINSt3__111__wrap_iterIPKNS2_12basic_stringIcNS2_11char_traitsIcEENS2_9allocatorIcEEEEEEEES9_T_SD_NS0_11string_viewE",
            "__ZNSt3__112__hash_tableINS_17__hash_value_typeIN8firebase9firestore11credentials4UserENS_13unordered_mapIiNS_8functionIFvNS3_4util6StatusEEEENS_4hashIiEENS_8equal_toIiEENS_9allocatorINS_4pairIKiSB_EEEEEEEENS_22__unordered_map_hasherIS5_SM_NS4_8HashUserENSE_IS5_EELb1EEENS_21__unordered_map_equalIS5_SM_SP_SO_Lb1EEENSG_ISM_EEE11__do_rehashILb1EEEvm",
            "__ZN8firebase9firestore4util4impl12ToStringImplINS0_6nanopb7MessageINS0_31_google_firestore_v1_ArrayValueEEEvEENSt3__112basic_stringIcNS8_11char_traitsIcEENS8_9allocatorIcEEEERKT_NS2_14ToStringChoiceILi1EEE",
            "__ZN8firebase9firestore4util4impl10InvokeHashINS0_5model14AggregateAliasEEEmRKT_",
            "__ZNSt3__15dequeIN8firebase9firestore4util17RandomAccessQueueINS2_5model11DocumentKeyEJNS5_15DocumentKeyHashEEE10QueueEntryENS_9allocatorIS9_EEE12emplace_backIJRKS6_EEEvDpOT_",
            "__ZN8firebase9firestore4util4impl12HashInternalINS0_5model11DocumentSetEJS5_NSt3__16vectorINS0_4core18DocumentViewChangeENS6_9allocatorIS9_EEEEbbbbEEEmmRKT_DpRKT0_",
            "__ZNSt3__112__hash_tableINS_17__hash_value_typeIN8firebase9firestore5model11DocumentKeyENS4_15SnapshotVersionEEENS_22__unordered_map_hasherIS5_S7_NS4_15DocumentKeyHashENS_8equal_toIS5_EELb1EEENS_21__unordered_map_equalIS5_S7_SB_S9_Lb1EEENS_9allocatorIS7_EEE25__emplace_unique_key_argsIS5_JRKNS_21piecewise_construct_tENS_5tupleIJRKS5_EEENSM_IJEEEEEENS_4pairINS_15__hash_iteratorIPNS_11__hash_nodeIS7_PvEEEEbEERKT_DpOT0_",
            "__ZNSt3__112__hash_tableINS_17__hash_value_typeIN8firebase9firestore5model11DocumentKeyENS3_6bundle23BundledDocumentMetadataEEENS_22__unordered_map_hasherIS5_S8_NS4_15DocumentKeyHashENS_8equal_toIS5_EELb1EEENS_21__unordered_map_equalIS5_S8_SC_SA_Lb1EEENS_9allocatorIS8_EEE11__do_rehashILb1EEEvm",
            "__ZN8firebase9firestore4util8ToStringINS0_5model8DocumentEEENSt3__112basic_stringIcNS5_11char_traitsIcEENS5_9allocatorIcEEEERKT_",
            "__ZNK8firebase9firestore9immutable4impl8LlrbNodeINS0_5model11DocumentKeyENS4_7OverlayEE11InnerInsertINS0_4util10ComparatorIS5_EEEES7_RKS5_RKS6_RKT_",
            "__ZN8firebase9firestore4util4impl12ToStringImplINS0_5model11DocumentKeyEvEENSt3__112basic_stringIcNS6_11char_traitsIcEENS6_9allocatorIcEEEERKT_NS2_14ToStringChoiceILi1EEE",
            "__ZN8firebase9firestore6nanopb16SetRepeatedFieldINS0_26_google_firestore_v1_ValueEPS3_ZNS1_16SetRepeatedFieldIS3_N4absl12lts_202401164SpanIS3_EEEEvPPT_PjRKT0_EUlRKS3_E_EEvSC_SD_SE_SE_RKT1_",
            "__ZNSt3__112__hash_tableINS_17__hash_value_typeIN8firebase9firestore4core6TargetENS3_5local10TargetDataEEENS_22__unordered_map_hasherIS5_S8_NS_4hashIS5_EENS_8equal_toIS5_EELb1EEENS_21__unordered_map_equalIS5_S8_SD_SB_Lb1EEENS_9allocatorIS8_EEE4findIS5_EENS_15__hash_iteratorIPNS_11__hash_nodeIS8_PvEEEERKT_",
            "__ZNSt3__15dequeIPKN8firebase9firestore9immutable4impl8LlrbNodeINS2_5model11DocumentKeyENS6_15MutableDocumentEEENS_9allocatorISB_EEE8__appendINS_16__deque_iteratorISB_PKSB_RSH_PKSI_lLl512EEEEEvT_SN_PNS_9enable_ifIXsr31__has_forward_iterator_categoryISN_EE5valueEvE4typeE",
            "__ZNSt3__16vectorIN8firebase9firestore4core6FilterENS_9allocatorIS4_EEE6insertINS_13move_iteratorINS_11__wrap_iterIPKS4_EEEELi0EEENSA_IPS4_EESD_T_SH_",
            "__ZNSt3__16vectorIhNS_9allocatorIhEEE18__construct_at_endIPhS5_EEvT_T0_m",
            "__ZNSt3__112__hash_tableINS_17__hash_value_typeIiNS_6vectorIN8firebase9firestore4core5QueryENS_9allocatorIS6_EEEEEENS_22__unordered_map_hasherIiSA_NS_4hashIiEENS_8equal_toIiEELb1EEENS_21__unordered_map_equalIiSA_SF_SD_Lb1EEENS7_ISA_EEE11__do_rehashILb1EEEvm",
            "__ZNSt3__112__hash_tableINS_17__hash_value_typeIN8firebase9firestore5model11DocumentKeyExEENS_22__unordered_map_hasherIS5_S6_NS4_15DocumentKeyHashENS_8equal_toIS5_EELb1EEENS_21__unordered_map_equalIS5_S6_SA_S8_Lb1EEENS_9allocatorIS6_EEE11__do_rehashILb1EEEvm",
            "__ZN8firebase9firestore6nanopb7MessageINS0_32_google_firestore_admin_v1_IndexEE8TryParseEPNS1_6ReaderE",
            "__ZN8firebase9firestore4util4impl12HashInternalIxJEEEmmRKT_DpRKT0_",
            "__ZN8firebase9firestore4util8ToStringINS0_9immutable9SortedSetINS0_5model8DocumentENS5_18DocumentComparatorEEEEENSt3__112basic_stringIcNS9_11char_traitsIcEENS9_9allocatorIcEEEERKT_",
            "__ZN8firebase9firestore4util4impl12HashInternalINS0_5model18TransformOperationEJEEEmmRKT_DpRKT0_",
            "__ZN8firebase9firestore6nanopb19PrintPrimitiveFieldIP16pb_bytes_array_sEENSt3__112basic_stringIcNS5_11char_traitsIcEENS5_9allocatorIcEEEEN4absl12lts_2024011611string_viewET_ib",
            "__ZNKR8firebase9firestore4util8StatusOrINS0_5model9FieldPathEE6statusEv",
            "__ZNSt3__114__split_bufferIPPN8firebase9firestore4util4TaskERNS_9allocatorIS6_EEE28__construct_at_end_with_sizeINS_13move_iteratorIPS6_EEEEvT_m",
            "__ZN8firebase9firestore6nanopb17PrintMessageFieldINS0_27_google_firestore_v1_TargetEEENSt3__112basic_stringIcNS4_11char_traitsIcEENS4_9allocatorIcEEEEN4absl12lts_2024011611string_viewERKT_ib",
            "__ZN8firebase9firestore4util4impl12HashInternalINSt3__112basic_stringIcNS4_11char_traitsIcEENS4_9allocatorIcEEEEJEEEmmRKT_DpRKT0_",
            "__ZNSt3__112__hash_tableINS_17__hash_value_typeIiN8firebase9firestore5local12QueryPurposeEEENS_22__unordered_map_hasherIiS6_NS_4hashIiEENS_8equal_toIiEELb1EEENS_21__unordered_map_equalIiS6_SB_S9_Lb1EEENS_9allocatorIS6_EEE11__do_rehashILb1EEEvm",
            "__ZN8firebase9firestore4util4HashIJNSt3__13setINS0_5model9FieldPathENS3_4lessIS6_EENS3_9allocatorIS6_EEEEEEEmDpRKT_",
            "__ZNSt3__112__hash_tableINS_17__hash_value_typeINS_12basic_stringIcNS_11char_traitsIcEENS_9allocatorIcEEEENS_10unique_ptrIN8firebase9firestore5local19LevelDbIndexManagerENS_14default_deleteISC_EEEEEENS_22__unordered_map_hasherIS7_SG_NS_4hashIS7_EENS_8equal_toIS7_EELb1EEENS_21__unordered_map_equalIS7_SG_SL_SJ_Lb1EEENS5_ISG_EEE8__rehashILb1EEEvm",
            "__ZN8firebase9firestore9immutable4impl8LlrbNodeINS0_5model11DocumentKeyENS4_7OverlayEE12FixRootColorEv",
            "__ZN8firebase9firestore6nanopb14PrintEnumFieldINS0_49_google_firestore_admin_v1_Index_IndexField_OrderEEENSt3__112basic_stringIcNS4_11char_traitsIcEENS4_9allocatorIcEEEEN4absl12lts_2024011611string_viewET_ib",
            "__ZN4absl12lts_2024011628container_algorithm_internal7c_beginIKNSt3__16vectorIN8firebase9firestore4util7TimerIdENS3_9allocatorIS8_EEEEEEDTcl5beginclsr3stdE7declvalIRT_EEEESE_",
            "__ZNSt3__112__hash_tableINS_17__hash_value_typeINS_12basic_stringIcNS_11char_traitsIcEENS_9allocatorIcEEEEN8firebase9firestore6bundle14BundleMetadataEEENS_22__unordered_map_hasherIS7_SC_NS_4hashIS7_EENS_8equal_toIS7_EELb1EEENS_21__unordered_map_equalIS7_SC_SH_SF_Lb1EEENS5_ISC_EEE8__rehashILb1EEEvm",
            "__ZN8firebase9firestore6nanopb8internal8ToStringIyEENSt3__112basic_stringIcNS4_11char_traitsIcEENS4_9allocatorIcEEEERKT_",
            "__ZN4absl12lts_2024011613hash_internal13HashStateBaseINS1_15MixingHashStateEE7combineImJEEES3_S3_RKT_DpRKT0_",
            "__ZNSt3__16vectorIN8firebase9firestore4core18DocumentViewChangeENS_9allocatorIS4_EEE18__assign_with_sizeB8ue170006IPS4_S9_EEvT_T0_l",
            "__ZNSt3__112__hash_tableINS_17__hash_value_typeIiNS_13unordered_setIN8firebase9firestore5model11DocumentKeyENS5_15DocumentKeyHashENS_8equal_toIS6_EENS_9allocatorIS6_EEEEEENS_22__unordered_map_hasherIiSD_NS_4hashIiEENS8_IiEELb1EEENS_21__unordered_map_equalIiSD_SH_SG_Lb1EEENSA_ISD_EEE11__do_rehashILb1EEEvm",
            "__ZN8firebase9firestore6nanopb17PrintMessageFieldINS0_26_google_firestore_v1_WriteEEENSt3__112basic_stringIcNS4_11char_traitsIcEENS4_9allocatorIcEEEEN4absl12lts_2024011611string_viewERKT_ib",
            "__ZN8firebase9firestore6nanopb17PrintMessageFieldINS0_43_google_firestore_v1_StructuredQuery_FilterEEENSt3__112basic_stringIcNS4_11char_traitsIcEENS4_9allocatorIcEEEEN4absl12lts_2024011611string_viewERKT_ib",
            "__ZNSt3__15dequeIPKN8firebase9firestore9immutable4impl8LlrbNodeINS2_5local20DocumentKeyReferenceENS2_4util5EmptyEEENS_9allocatorISC_EEE8__appendINS_16__deque_iteratorISC_PKSC_RSI_PKSJ_lLl512EEEEEvT_SO_PNS_9enable_ifIXsr31__has_forward_iterator_categoryISO_EE5valueEvE4typeE",
            "__ZN4absl12lts_2024011613hash_internal13HashStateBaseINS1_15MixingHashStateEE18combine_contiguousIcEES3_S3_PKT_m",
            "__ZN8firebase9firestore9immutable4impl8LlrbNodeINS0_5model11DocumentKeyENS0_4core18DocumentViewChangeEE9RemoveMinEv",
            "__ZN8firebase9firestore9immutable4impl8LlrbNodeINS0_5model11DocumentKeyENS4_7OverlayEE10RotateLeftEv",
            "__ZNSt3__15dequeIPKN8firebase9firestore9immutable4impl8LlrbNodeINS2_5model8DocumentENS2_4util5EmptyEEENS_9allocatorISC_EEE18__append_with_sizeB8ue170006INS_16__deque_iteratorISC_PKSC_RSI_PKSJ_lLl512EEEEEvT_m",
            "__ZN4absl12lts_2024011614ShareUniquePtrIN8firebase9firestore4core13EventListenerINS3_3api16DocumentSnapshotEEENSt3__114default_deleteIS8_EEEENS9_10shared_ptrIT_EEONS9_10unique_ptrISD_T0_EE",
            "__ZN8firebase9firestore4util4impl16RankedInvokeHashINS0_3api18LocalCacheSettings4KindEvEEmT_NS2_10HashChoiceILi5EEE",
            "__ZN8firebase9firestore4util4impl10InvokeHashIhEEmRKT_",
            "__ZN8firebase9firestore4util8ToStringINSt3__16vectorINS0_5model14MutationResultENS3_9allocatorIS6_EEEEEENS3_12basic_stringIcNS3_11char_traitsIcEENS7_IcEEEERKT_",
            "__ZN8firebase9firestore6nanopb13MakeStdStringINS0_31_firestore_client_MutationQueueEEENSt3__112basic_stringIcNS4_11char_traitsIcEENS4_9allocatorIcEEEERKNS1_7MessageIT_EE",
            "__ZNSt3__114__split_bufferIPPKN8firebase9firestore9immutable4impl8LlrbNodeINS2_5local20DocumentKeyReferenceENS2_4util5EmptyEEERNS_9allocatorISD_EEE28__construct_at_end_with_sizeINS_13move_iteratorIPSD_EEEEvT_m",
            "__ZN8firebase9firestore4util4impl16RankedInvokeHashINS0_5model12Precondition4TypeEvEEmT_NS2_10HashChoiceILi5EEE",
            "__ZNSt3__16__treeINS_12basic_stringIcNS_11char_traitsIcEENS_9allocatorIcEEEENS_4lessIS6_EENS4_IS6_EEE13__lower_boundIS6_EENS_15__tree_iteratorIS6_PNS_11__tree_nodeIS6_PvEElEERKT_SG_PNS_15__tree_end_nodeIPNS_16__tree_node_baseISE_EEEE",
            "__ZN8firebase9firestore6remote14MakeByteBufferINS0_45_google_firestore_v1_BatchGetDocumentsRequestEEEN4grpc10ByteBufferERKNS0_6nanopb7MessageIT_EE",
            "__ZNSt3__112__hash_tableINS_17__hash_value_typeIN8firebase9firestore5model11DocumentKeyENS4_15MutableDocumentEEENS_22__unordered_map_hasherIS5_S7_NS4_15DocumentKeyHashENS_8equal_toIS5_EELb1EEENS_21__unordered_map_equalIS5_S7_SB_S9_Lb1EEENS_9allocatorIS7_EEE25__emplace_unique_key_argsIS5_JRKNS_21piecewise_construct_tENS_5tupleIJRKS5_EEENSM_IJEEEEEENS_4pairINS_15__hash_iteratorIPNS_11__hash_nodeIS7_PvEEEEbEERKT_DpOT0_",
            "__ZN8firebase9firestore6nanopb17PrintMessageFieldINS0_34_firestore_BundledDocumentMetadataEEENSt3__112basic_stringIcNS4_11char_traitsIcEENS4_9allocatorIcEEEEN4absl12lts_2024011611string_viewERKT_ib",
            "__ZNSt3__112__hash_tableINS_17__hash_value_typeIN8firebase9firestore4core5QueryENS4_12EventManager18QueryListenersInfoEEENS_22__unordered_map_hasherIS5_S8_NS_4hashIS5_EENS_8equal_toIS5_EELb1EEENS_21__unordered_map_equalIS5_S8_SD_SB_Lb1EEENS_9allocatorIS8_EEE21__construct_node_hashIRKS5_JS7_EEENS_10unique_ptrINS_11__hash_nodeIS8_PvEENS_22__hash_node_destructorINSH_ISQ_EEEEEEmOT_DpOT0_",
            "__ZN8firebase9firestore6nanopb14MakeByteStringINS0_28_firestore_client_WriteBatchEEENS1_10ByteStringERKNS1_7MessageIT_EE",
            "__ZN8firebase9firestore4util4impl10InvokeHashINS0_4core18DocumentViewChangeEEEmRKT_",
            "__ZN4absl12lts_2024011616strings_internal13JoinAlgorithmINSt3__111__wrap_iterIPKN8firebase9firestore4core18DocumentViewChangeEEERZNS6_4util4impl12ToStringImplINS3_6vectorIS8_NS3_9allocatorIS8_EEEEvEENS3_12basic_stringIcNS3_11char_traitsIcEENSG_IcEEEERKT_NSD_14ToStringChoiceILi5EEEEUlPSN_RS9_E_EESN_SO_SO_NS0_11string_viewEOT0_",
            "__ZNSt3__15dequeIPKN8firebase9firestore9immutable4impl8LlrbNodeINS2_5model11DocumentKeyENS2_4util5EmptyEEENS_9allocatorISC_EEE18__append_with_sizeB8ue170006INS_16__deque_iteratorISC_PKSC_RSI_PKSJ_lLl512EEEEEvT_m",
            "__ZNSt3__112__hash_tableINS_17__hash_value_typeINS_12basic_stringIcNS_11char_traitsIcEENS_9allocatorIcEEEEN8firebase9firestore9immutable9SortedSetINS9_5model11DocumentKeyENS9_4util10ComparatorISD_EEEEEENS_22__unordered_map_hasherIS7_SI_NS_4hashIS7_EENS_8equal_toIS7_EELb1EEENS_21__unordered_map_equalIS7_SI_SN_SL_Lb1EEENS5_ISI_EEE21__construct_node_hashIRKS7_JSH_EEENS_10unique_ptrINS_11__hash_nodeISI_PvEENS_22__hash_node_destructorINS5_ISZ_EEEEEEmOT_DpOT0_",
            "__ZN8firebase9firestore4util4impl16RankedInvokeHashINS0_5model11DocumentSetEEEDTcldtfp_4HashEERKT_NS2_10HashChoiceILi0EEE",
            "__ZN8firebase9firestore4core18AsyncEventListenerINS1_12ViewSnapshotEE4MuteEv",
            "__ZNSt3__16__treeINS_12__value_typeIN4grpc10string_refES3_EENS_19__map_value_compareIS3_S4_NS_4lessIS3_EELb1EEENS_9allocatorIS4_EEE16__construct_nodeIJRKNS_4pairIKS3_S3_EEEEENS_10unique_ptrINS_11__tree_nodeIS4_PvEENS_22__tree_node_destructorINS9_ISL_EEEEEEDpOT_",
            "__ZNSt3__16__treeIN8firebase9firestore5model10FieldIndexENS4_12SemanticLessENS_9allocatorIS4_EEE25__emplace_unique_key_argsIS4_JS4_EEENS_4pairINS_15__tree_iteratorIS4_PNS_11__tree_nodeIS4_PvEElEEbEERKT_DpOT0_",
            "__ZN8firebase9firestore6nanopb17PrintMessageFieldINS0_20_google_protobuf_AnyEEENSt3__112basic_stringIcNS4_11char_traitsIcEENS4_9allocatorIcEEEEN4absl12lts_2024011611string_viewERKT_ib",
            "__ZN8firebase9firestore4util4impl12HashInternalINS0_5model12Precondition4TypeEJEEEmmRKT_DpRKT0_",
            "__ZNSt3__112__hash_tableINS_17__hash_value_typeIN8firebase9firestore4core6TargetENS3_5local10TargetDataEEENS_22__unordered_map_hasherIS5_S8_NS_4hashIS5_EENS_8equal_toIS5_EELb1EEENS_21__unordered_map_equalIS5_S8_SD_SB_Lb1EEENS_9allocatorIS8_EEE25__emplace_unique_key_argsIS5_JRKNS_21piecewise_construct_tENS_5tupleIJRKS5_EEENSO_IJEEEEEENS_4pairINS_15__hash_iteratorIPNS_11__hash_nodeIS8_PvEEEEbEERKT_DpOT0_",
            "__ZN8firebase9firestore4util4impl11CompareImplIjvEENS1_16ComparisonResultERKT_S7_NS2_13CompareChoiceILi2EEE",
            "__ZNSt3__16__treeINS_12__value_typeIiNS_13unordered_mapIN8firebase9firestore5model11DocumentKeyENS5_7OverlayENS5_15DocumentKeyHashENS_8equal_toIS6_EENS_9allocatorINS_4pairIKS6_S7_EEEEEEEENS_19__map_value_compareIiSH_NS_4lessIiEELb1EEENSB_ISH_EEE16__construct_nodeIJRKNS_21piecewise_construct_tENS_5tupleIJOiEEENSS_IJEEEEEENS_10unique_ptrINS_11__tree_nodeISH_PvEENS_22__tree_node_destructorINSB_ISZ_EEEEEEDpOT_",
            "__ZNSt3__112__hash_tableINS_17__hash_value_typeIN8firebase9firestore5model11DocumentKeyENS4_8MutationEEENS_22__unordered_map_hasherIS5_S7_NS4_15DocumentKeyHashENS_8equal_toIS5_EELb1EEENS_21__unordered_map_equalIS5_S7_SB_S9_Lb1EEENS_9allocatorIS7_EEE25__emplace_unique_key_argsIS5_JRKNS_21piecewise_construct_tENS_5tupleIJRKS5_EEENSM_IJEEEEEENS_4pairINS_15__hash_iteratorIPNS_11__hash_nodeIS7_PvEEEEbEERKT_DpOT0_",
            "__ZN8firebase9firestore4util12StringFormatIJmEEENSt3__112basic_stringIcNS3_11char_traitsIcEENS3_9allocatorIcEEEEPKcDpRKT_",
            "__ZN8firebase9firestore4util4impl10InvokeHashINS0_4core5QueryEEEmRKT_",
            "__ZNSt3__112__hash_tableINS_17__hash_value_typeINS_12basic_stringIcNS_11char_traitsIcEENS_9allocatorIcEEEENS_11__wrap_iterIPN8firebase9firestore26_google_firestore_v1_ValueEEEEENS_22__unordered_map_hasherIS7_SE_NS_4hashIS7_EENS_8equal_toIS7_EELb1EEENS_21__unordered_map_equalIS7_SE_SJ_SH_Lb1EEENS5_ISE_EEE11__do_rehashILb1EEEvm",
            "__ZN8firebase9firestore4util12StringFormatIJN4absl12lts_2024011611string_viewENS0_5ErrorENSt3__112basic_stringIcNS7_11char_traitsIcEENS7_9allocatorIcEEEEEEESD_PKcDpRKT_",
            "__ZN4absl12lts_2024011618container_internal13DecomposePairINS1_12raw_hash_setINS1_17FlatHashMapPolicyINSt3__112basic_stringIcNS5_11char_traitsIcEENS5_9allocatorIcEEEEN8firebase9firestore5model14AggregateFieldEEENS1_10StringHashENS1_8StringEqENS9_INS5_4pairIKSB_SF_EEEEE19EmplaceDecomposableEJNSJ_ISB_SF_EEEEEDTclsr15memory_internalE17DecomposePairImplclsr3stdE7forwardIT_Efp_Ecl8PairArgsspclsr3stdE7forwardIT0_Efp0_EEEEOSQ_DpOSR_",
            "__ZN4absl12lts_2024011618container_internal15memory_internal17DecomposePairImplINS1_12raw_hash_setINS1_17FlatHashMapPolicyINSt3__112basic_stringIcNS6_11char_traitsIcEENS6_9allocatorIcEEEESC_EENS1_10StringHashENS1_8StringEqENSA_INS6_4pairIKSC_SC_EEEEE12EqualElementISC_EERSH_NS6_5tupleIJSN_EEEEEDTclclsr3stdE7declvalIT_EEclsr3stdE7declvalIRKT0_EEL_ZNS6_L19piecewise_constructEEclsr3stdE7declvalINSO_IJSR_EEEEEclsr3stdE7declvalIT1_EEEEOSQ_NSG_ISU_SV_EE",
            "__ZN8firebase9firestore4util12StringFormatIJNS0_57_google_firestore_v1_StructuredQuery_UnaryFilter_OperatorEEEENSt3__112basic_stringIcNS4_11char_traitsIcEENS4_9allocatorIcEEEEPKcDpRKT_",
            "__ZN8firebase9firestore4util12StringFormatIJNS0_4core11FieldFilter8OperatorEEEENSt3__112basic_stringIcNS6_11char_traitsIcEENS6_9allocatorIcEEEEPKcDpRKT_",
            "__ZN8firebase9firestore4util4impl12HashInternalINS0_5model8DocumentEJNS0_4core18DocumentViewChange4TypeEEEEmmRKT_DpRKT0_",
            "__ZNK8firebase9firestore9immutable4impl8LlrbNodeINS0_5model11DocumentKeyENS4_7OverlayEE10InnerEraseINS0_4util10ComparatorIS5_EEEES7_RKS5_RKT_",
            "__ZNK8firebase9firestore9immutable4impl8LlrbNodeINS0_5local20DocumentKeyReferenceENS0_4util5EmptyEE11InnerInsertINS5_5ByKeyEEES8_RKS5_RKS7_RKT_",
            "__ZN8firebase9firestore6nanopb14PrintEnumFieldINS0_38_google_api_ResourceDescriptor_HistoryEEENSt3__112basic_stringIcNS4_11char_traitsIcEENS4_9allocatorIcEEEEN4absl12lts_2024011611string_viewET_ib",
            "__ZNKSt3__112__hash_tableINS_17__hash_value_typeIN8firebase9firestore4core5QueryENS_10shared_ptrINS4_10SyncEngine9QueryViewEEEEENS_22__unordered_map_hasherIS5_SA_NS_4hashIS5_EENS_8equal_toIS5_EELb1EEENS_21__unordered_map_equalIS5_SA_SF_SD_Lb1EEENS_9allocatorISA_EEE4findIS5_EENS_21__hash_const_iteratorIPNS_11__hash_nodeISA_PvEEEERKT_",
            "__ZNSt3__16__treeIN8firebase9firestore5model12ResourcePathENS_4lessIS4_EENS_9allocatorIS4_EEE25__emplace_unique_key_argsIS4_JRKS4_EEENS_4pairINS_15__tree_iteratorIS4_PNS_11__tree_nodeIS4_PvEElEEbEERKT_DpOT0_",
            "__ZNSt3__112__hash_tableIPN8firebase9firestore4util4TaskENS_4hashIS5_EENS_8equal_toIS5_EENS_9allocatorIS5_EEE11__do_rehashILb1EEEvm",
            "__ZNSt3__112__hash_tableINS_17__hash_value_typeIN8firebase9firestore11credentials4UserENS_10unique_ptrINS3_5local26MemoryDocumentOverlayCacheENS_14default_deleteIS8_EEEEEENS_22__unordered_map_hasherIS5_SC_NS4_8HashUserENS_8equal_toIS5_EELb1EEENS_21__unordered_map_equalIS5_SC_SG_SE_Lb1EEENS_9allocatorISC_EEE21__construct_node_hashIRKS5_JSB_EEENS6_INS_11__hash_nodeISC_PvEENS_22__hash_node_destructorINSK_ISS_EEEEEEmOT_DpOT0_",
            "__ZN8firebase9firestore4util4impl12HashInternalINSt3__112basic_stringIcNS4_11char_traitsIcEENS4_9allocatorIcEEEEJbbxNS4_10unique_ptrINS0_3api18LocalCacheSettingsENS4_14default_deleteISD_EEEEEEEmmRKT_DpRKT0_",
            "__ZN8firebase9firestore4util4impl12HashInternalINSt3__112basic_stringIcNS4_11char_traitsIcEENS4_9allocatorIcEEEEJiEEEmmRKT_DpRKT0_",
            "__ZNSt3__112__hash_tableINS_17__hash_value_typeINS_12basic_stringIcNS_11char_traitsIcEENS_9allocatorIcEEEENS_10unique_ptrIN8firebase9firestore5local20LevelDbMutationQueueENS_14default_deleteISC_EEEEEENS_22__unordered_map_hasherIS7_SG_NS_4hashIS7_EENS_8equal_toIS7_EELb1EEENS_21__unordered_map_equalIS7_SG_SL_SJ_Lb1EEENS5_ISG_EEE8__rehashILb1EEEvm",
            "__ZN4absl12lts_2024011628container_algorithm_internal5c_endIKNSt3__16vectorIN8firebase9firestore4core11FieldFilter8OperatorENS3_9allocatorIS9_EEEEEEDTcl5beginclsr3stdE7declvalIRT_EEEESF_",
            "__ZN4absl12lts_2024011618container_internal8AllocateILm8ENSt3__19allocatorIcEEEEPvPT0_m",
            "__ZNSt3__16__treeINS_12__value_typeINS_12basic_stringIcNS_11char_traitsIcEENS_9allocatorIcEEEEN8nlohmann10basic_jsonINS_3mapENS_6vectorES7_bxydS5_NS8_14adl_serializerENSB_IhNS5_IhEEEEEEEENS_19__map_value_compareIS7_SG_NS_4lessIvEELb1EEENS5_ISG_EEE13__lower_boundIA17_cEENS_15__tree_iteratorISG_PNS_11__tree_nodeISG_PvEElEERKT_ST_PNS_15__tree_end_nodeIPNS_16__tree_node_baseISR_EEEE",
            "__ZN8firebase9firestore4util4impl10InvokeHashINSt3__16vectorINS0_4core18DocumentViewChangeENS4_9allocatorIS7_EEEEEEmRKT_",
            "__ZNSt3__112__hash_tableINS_17__hash_value_typeIN8firebase9firestore5model11DocumentKeyEN4absl12lts_202401168optionalINS4_9FieldMaskEEEEENS_22__unordered_map_hasherIS5_SB_NS4_15DocumentKeyHashENS_8equal_toIS5_EELb1EEENS_21__unordered_map_equalIS5_SB_SF_SD_Lb1EEENS_9allocatorISB_EEE25__emplace_unique_key_argsIS5_JRKNS_4pairIKS5_SA_EEEEENSN_INS_15__hash_iteratorIPNS_11__hash_nodeISB_PvEEEEbEERKT_DpOT0_",
            "__ZNSt3__16__treeINS_12__value_typeINS_12basic_stringIcNS_11char_traitsIcEENS_9allocatorIcEEEES7_EENS_19__map_value_compareIS7_S8_NS_4lessIS7_EELb1EEENS5_IS8_EEE12__find_equalIS7_EERPNS_16__tree_node_baseIPvEERPNS_15__tree_end_nodeISJ_EERKT_",
            "__ZN4absl12lts_2024011618container_internal13TrailingZerosIyEEjT_",
            "__ZN8firebase9firestore4util4HashIJNS0_4core6TargetEixNS0_5local12QueryPurposeENS0_5model15SnapshotVersionENS0_6nanopb10ByteStringEN4absl12lts_202401168optionalIiEEEEEmDpRKT_",
            "__ZN8firebase9firestore4util4HashIJNS0_5model15SnapshotVersionEbNS3_12Precondition4TypeEEEEmDpRKT_",
            "__ZNSt3__16__treeINS_12__value_typeINS_12basic_stringIcNS_11char_traitsIcEENS_9allocatorIcEEEES7_EENS_19__map_value_compareIS7_S8_NS_4lessIS7_EELb1EEENS5_IS8_EEE13__lower_boundIS7_EENS_15__tree_iteratorIS8_PNS_11__tree_nodeIS8_PvEElEERKT_SK_PNS_15__tree_end_nodeIPNS_16__tree_node_baseISI_EEEE",
            "__ZN8firebase9firestore4util12StringFormatIJNSt3__112basic_stringIcNS3_11char_traitsIcEENS3_9allocatorIcEEEEiS9_EEES9_PKcDpRKT_",
            "__ZNK8firebase9firestore9immutable4impl8LlrbNodeINS0_5model8DocumentENS0_4util5EmptyEE6insertINS4_18DocumentComparatorEEES8_RKS5_RKS7_RKT_",
            "__ZNSt3__16__treeINS_12__value_typeIiNS_13unordered_mapIN8firebase9firestore5model11DocumentKeyENS5_7OverlayENS5_15DocumentKeyHashENS_8equal_toIS6_EENS_9allocatorINS_4pairIKS6_S7_EEEEEEEENS_19__map_value_compareIiSH_NS_4lessIiEELb1EEENSB_ISH_EEE12__find_equalIiEERPNS_16__tree_node_baseIPvEERPNS_15__tree_end_nodeISS_EERKT_",
            "__ZN4absl12lts_2024011616strings_internal9JoinRangeINSt3__111__wrap_iterIPKNS3_12basic_stringIcNS3_11char_traitsIcEENS3_9allocatorIcEEEEEEEESA_T_SE_NS0_11string_viewE",
            "__ZNSt3__112__hash_tableINS_17__hash_value_typeIiN8firebase9firestore5local10TargetDataEEENS_22__unordered_map_hasherIiS6_NS_4hashIiEENS_8equal_toIiEELb1EEENS_21__unordered_map_equalIiS6_SB_S9_Lb1EEENS_9allocatorIS6_EEE4findIiEENS_15__hash_iteratorIPNS_11__hash_nodeIS6_PvEEEERKT_",
            "__ZN4absl12lts_2024011628container_algorithm_internal5c_endINSt3__16vectorINS3_10shared_ptrIN8firebase9firestore4core13QueryListenerEEENS3_9allocatorISA_EEEEEEDTcl5beginclsr3stdE7declvalIRT_EEEESF_",
            "__ZNKR8firebase9firestore4util8StatusOrIN4absl12lts_202401168optionalINS0_3api22LoadBundleTaskProgressEEEE6statusEv",
            "__ZNKSt3__16__treeINS_12basic_stringIcNS_11char_traitsIcEENS_9allocatorIcEEEENS_4lessIS6_EENS4_IS6_EEE4findIS6_EENS_21__tree_const_iteratorIS6_PNS_11__tree_nodeIS6_PvEElEERKT_",
            "__ZN8firebase9firestore9immutable4impl8LlrbNodeINS0_5model8DocumentENS0_4util5EmptyEE9FlipColorEv",
            "__ZN8firebase9firestore6nanopb13MakeStdStringINS0_25_firestore_BundleMetadataEEENSt3__112basic_stringIcNS4_11char_traitsIcEENS4_9allocatorIcEEEERKNS1_7MessageIT_EE",
            "__ZN8firebase9firestore4util4impl11CompareImplINS0_5model9TypeOrderEvEENS1_16ComparisonResultERKT_S9_NS2_13CompareChoiceILi2EEE",
            "__ZNSt3__16__treeIiNS_4lessIiEENS_9allocatorIiEEE16__construct_nodeIJiEEENS_10unique_ptrINS_11__tree_nodeIiPvEENS_22__tree_node_destructorINS3_ISA_EEEEEEDpOT_",
            "__ZNK8firebase9firestore9immutable4impl8LlrbNodeINS0_5model11DocumentKeyENS0_4util5EmptyEE11InnerInsertINS6_10ComparatorIS5_EEEES8_RKS5_RKS7_RKT_",
            "__ZNSt3__16__treeINS_12basic_stringIcNS_11char_traitsIcEENS_9allocatorIcEEEENS_4lessIS6_EENS4_IS6_EEE14__erase_uniqueIS6_EEmRKT_",
            "__ZNSt3__16vectorINS_12basic_stringIcNS_11char_traitsIcEENS_9allocatorIcEEEENS4_IS6_EEE18__construct_at_endINS_11__wrap_iterIPKN4absl12lts_2024011611string_viewEEESG_EEvT_T0_m",
            "__ZN8firebase9firestore6nanopb11MakeMessageINS0_31_google_firestore_v1_ArrayValueEEENS1_7MessageIT_EERKS5_",
            "__ZNSt3__112__hash_tableINS_17__hash_value_typeIN8firebase9firestore5model11DocumentKeyENS3_6bundle23BundledDocumentMetadataEEENS_22__unordered_map_hasherIS5_S8_NS4_15DocumentKeyHashENS_8equal_toIS5_EELb1EEENS_21__unordered_map_equalIS5_S8_SC_SA_Lb1EEENS_9allocatorIS8_EEE21__construct_node_hashIRKS5_JRKS7_EEENS_10unique_ptrINS_11__hash_nodeIS8_PvEENS_22__hash_node_destructorINSG_ISR_EEEEEEmOT_DpOT0_",
            "__ZNKR8firebase9firestore4util8StatusOrINSt3__112basic_stringIcNS3_11char_traitsIcEENS3_9allocatorIcEEEEE6statusEv",
            "__ZN8firebase9firestore4util4impl16RankedInvokeHashINS0_4core12ViewSnapshotEEEDTcldtfp_4HashEERKT_NS2_10HashChoiceILi0EEE",
            "__ZNSt3__112__hash_tableINS_17__hash_value_typeIiN8firebase9firestore5local12QueryPurposeEEENS_22__unordered_map_hasherIiS6_NS_4hashIiEENS_8equal_toIiEELb1EEENS_21__unordered_map_equalIiS6_SB_S9_Lb1EEENS_9allocatorIS6_EEE21__construct_node_hashIRKNS_4pairIKiS5_EEJEEENS_10unique_ptrINS_11__hash_nodeIS6_PvEENS_22__hash_node_destructorINSF_ISR_EEEEEEmOT_DpOT0_",
            "__ZN8nlohmann6detail7to_jsonINS_10basic_jsonINSt3__13mapENS3_6vectorENS3_12basic_stringIcNS3_11char_traitsIcEENS3_9allocatorIcEEEEbxydS9_NS_14adl_serializerENS5_IhNS9_IhEEEEEEA6_cLi0EEEvRT_RKT0_",
            "__ZNSt3__112__hash_tableINS_10shared_ptrIN8firebase9firestore4core13EventListenerINS3_4util5EmptyEEEEENS_4hashIS9_EENS_8equal_toIS9_EENS_9allocatorIS9_EEE8__rehashILb1EEEvm",
            "__ZNSt3__16vectorINS_12basic_stringIcNS_11char_traitsIcEENS_9allocatorIcEEEENS4_IS6_EEE6insertINS_11__wrap_iterIPKS6_EELi0EEENSA_IPS6_EESD_T_SG_",
            "__ZN8firebase9firestore4util4HashIJiiEEEmDpRKT_",
            "__ZNSt3__112__hash_tableINS_17__hash_value_typeIiN8firebase9firestore6remote11TargetStateEEENS_22__unordered_map_hasherIiS6_NS_4hashIiEENS_8equal_toIiEELb1EEENS_21__unordered_map_equalIiS6_SB_S9_Lb1EEENS_9allocatorIS6_EEE14__erase_uniqueIiEEmRKT_",
            "__ZN8firebase9firestore6nanopb17PrintMessageFieldINS0_59_google_firestore_v1_StructuredAggregationQuery_AggregationEEENSt3__112basic_stringIcNS4_11char_traitsIcEENS4_9allocatorIcEEEEN4absl12lts_2024011611string_viewERKT_ib",
            "__ZN8firebase9firestore4util12StringFormatIJEEENSt3__112basic_stringIcNS3_11char_traitsIcEENS3_9allocatorIcEEEEPKcDpRKT_",
            "__ZN8firebase9firestore4util12StringFormatIJNS0_65_google_firestore_v1_DocumentTransform_FieldTransform_ServerValueEEEENSt3__112basic_stringIcNS4_11char_traitsIcEENS4_9allocatorIcEEEEPKcDpRKT_",
            "__ZNSt3__112__hash_tableINS_17__hash_value_typeINS_12basic_stringIcNS_11char_traitsIcEENS_9allocatorIcEEEEN8firebase9firestore6bundle10NamedQueryEEENS_22__unordered_map_hasherIS7_SC_NS_4hashIS7_EENS_8equal_toIS7_EELb1EEENS_21__unordered_map_equalIS7_SC_SH_SF_Lb1EEENS5_ISC_EEE21__construct_node_hashIRKNS_21piecewise_construct_tEJNS_5tupleIJRKS7_EEENSR_IJEEEEEENS_10unique_ptrINS_11__hash_nodeISC_PvEENS_22__hash_node_destructorINS5_ISZ_EEEEEEmOT_DpOT0_",
            "__ZN8firebase9firestore4util17internal_statusor12PlacementNewINS_9TimestampEJS4_EEEvPvDpOT0_",
            "__ZN8firebase9firestore4util20ThrowInvalidArgumentIJiEEEvPKcDpRKT_",
            "__ZN8firebase9firestore9immutable4impl12KeysViewFromINS1_9SortedMapINS0_5local20DocumentKeyReferenceENS0_4util5EmptyENS6_5ByKeyEEES6_EENS7_5rangeINS7_14iterator_firstIDTcldtfp_11lower_boundfp0_EEEEEERKT_RKT0_",
            "__ZN8firebase9firestore4util4impl12HashInternalINS0_5model9FieldPathEJEEEmmRKT_DpRKT0_",
            "__ZNKSt3__112__hash_tableINS_17__hash_value_typeINS_12basic_stringIcNS_11char_traitsIcEENS_9allocatorIcEEEENS_3setIN8firebase9firestore5model12ResourcePathENS_4lessISC_EENS5_ISC_EEEEEENS_22__unordered_map_hasherIS7_SH_NS_4hashIS7_EENS_8equal_toIS7_EELb1EEENS_21__unordered_map_equalIS7_SH_SM_SK_Lb1EEENS5_ISH_EEE4findIS7_EENS_21__hash_const_iteratorIPNS_11__hash_nodeISH_PvEEEERKT_",
            "__ZN4absl12lts_2024011616strings_internal13JoinAlgorithmINSt3__111__wrap_iterIPKNS3_12basic_stringIcNS3_11char_traitsIcEENS3_9allocatorIcEEEEEEvEESA_T_SE_NS0_11string_viewENS1_11NoFormatterE",
            "__ZN8firebase9firestore4util17internal_statusor12PlacementNewINS1_6StatusEJEEEvPvDpOT0_",
            "__ZNK8firebase9firestore9immutable4impl8LlrbNodeINS0_5local20DocumentKeyReferenceENS0_4util5EmptyEE11InnerInsertINS5_4ByIdEEES8_RKS5_RKS7_RKT_",
            "__ZNR8firebase9firestore4util8StatusOrINS0_5local10TargetDataEE10ValueOrDieEv",
            "__ZNSt3__112__hash_tableINS_17__hash_value_typeINS_12basic_stringIcNS_11char_traitsIcEENS_9allocatorIcEEEENS_10unique_ptrIN8firebase9firestore5local30LevelDbOverlayMigrationManagerENS_14default_deleteISC_EEEEEENS_22__unordered_map_hasherIS7_SG_NS_4hashIS7_EENS_8equal_toIS7_EELb1EEENS_21__unordered_map_equalIS7_SG_SL_SJ_Lb1EEENS5_ISG_EEE4findIS7_EENS_15__hash_iteratorIPNS_11__hash_nodeISG_PvEEEERKT_",
            "__ZN8firebase9firestore4util16CompareContainerINSt3__16vectorINS3_12basic_stringIcNS3_11char_traitsIcEENS3_9allocatorIcEEEENS8_ISA_EEEEEENS1_16ComparisonResultERKT_SG_",
            "__ZNSt3__112__hash_tableINS_17__hash_value_typeINS_12basic_stringIcNS_11char_traitsIcEENS_9allocatorIcEEEENS_10unique_ptrIN8firebase9firestore5local30LevelDbOverlayMigrationManagerENS_14default_deleteISC_EEEEEENS_22__unordered_map_hasherIS7_SG_NS_4hashIS7_EENS_8equal_toIS7_EELb1EEENS_21__unordered_map_equalIS7_SG_SL_SJ_Lb1EEENS5_ISG_EEE14__erase_uniqueIS7_EEmRKT_",
            "__ZN8firebase9firestore4util4impl12ToStringImplINSt3__16vectorINS0_5model14FieldTransformENS4_9allocatorIS7_EEEEvEENS4_12basic_stringIcNS4_11char_traitsIcEENS8_IcEEEERKT_NS2_14ToStringChoiceILi5EEE",
            "__ZNSt3__16vectorIiNS_9allocatorIiEEE18__construct_at_endIPiS5_EEvT_T0_m",
            "__ZNSt3__112__hash_tableIiNS_4hashIiEENS_8equal_toIiEENS_9allocatorIiEEE11__do_rehashILb1EEEvm",
            "__ZNSt3__112__hash_tableINS_17__hash_value_typeINS_12basic_stringIcNS_11char_traitsIcEENS_9allocatorIcEEEENS_11__wrap_iterIPN8firebase9firestore26_google_firestore_v1_ValueEEEEENS_22__unordered_map_hasherIS7_SE_NS_4hashIS7_EENS_8equal_toIS7_EELb1EEENS_21__unordered_map_equalIS7_SE_SJ_SH_Lb1EEENS5_ISE_EEE21__construct_node_hashIRKNS_21piecewise_construct_tEJNS_5tupleIJRKS7_EEENST_IJEEEEEENS_10unique_ptrINS_11__hash_nodeISE_PvEENS_22__hash_node_destructorINS5_IS11_EEEEEEmOT_DpOT0_",
            "__ZNSt3__114__split_bufferIPPKN8firebase9firestore9immutable4impl8LlrbNodeINS2_5model8DocumentENS2_4util5EmptyEEERNS_9allocatorISD_EEE18__construct_at_endINS_13move_iteratorIPSD_EEEENS_9enable_ifIXsr31__has_forward_iterator_categoryIT_EE5valueEvE4typeESN_SN_",
            "__ZN8firebase9firestore4util4impl12HashInternalINS0_5model8MutationEJEEEmmRKT_DpRKT0_",
            "__ZN8firebase9firestore4util12StringFormatIJjEEENSt3__112basic_stringIcNS3_11char_traitsIcEENS3_9allocatorIcEEEEPKcDpRKT_",
            "__ZNKR8firebase9firestore4util8StatusOrIN4grpc10ByteBufferEE10ValueOrDieEv",
            "__ZNKR8firebase9firestore4util8StatusOrINS0_9immutable9SortedMapINS0_5model11DocumentKeyENS5_8DocumentENS1_10ComparatorIS6_EEEEE6statusEv",
            "__ZN8firebase9firestore4util4impl12HashInternalIiJiEEEmmRKT_DpRKT0_",
            "__ZNKR8firebase9firestore4util8StatusOrINS0_11credentials9AuthTokenEE6statusEv",
            "__ZN8firebase9firestore4util12StringFormatIJNSt3__112basic_stringIcNS3_11char_traitsIcEENS3_9allocatorIcEEEES9_S9_S9_bjbbEEES9_PKcDpRKT_",
            "__ZN8firebase9firestore6nanopb16SetRepeatedFieldINS0_26_google_firestore_v1_ValueEN4absl12lts_202401164SpanIS3_EEEEvPPT_PjRKT0_",
            "__ZN8firebase9firestore6nanopb17PrintMessageFieldINS0_38_google_firestore_v1_AggregationResultEEENSt3__112basic_stringIcNS4_11char_traitsIcEENS4_9allocatorIcEEEEN4absl12lts_2024011611string_viewERKT_ib",
            "__ZN8firebase9firestore4util4impl10InvokeHashINS0_4core18DocumentViewChange4TypeEEEmRKT_",
            "__ZNSt3__112__hash_tableINS_17__hash_value_typeIiN8firebase9firestore5local12QueryPurposeEEENS_22__unordered_map_hasherIiS6_NS_4hashIiEENS_8equal_toIiEELb1EEENS_21__unordered_map_equalIiS6_SB_S9_Lb1EEENS_9allocatorIS6_EEE21__construct_node_hashINS_4pairIKiS5_EEJEEENS_10unique_ptrINS_11__hash_nodeIS6_PvEENS_22__hash_node_destructorINSF_ISP_EEEEEEmOT_DpOT0_",
            "__ZNSt3__112__hash_tableINS_17__hash_value_typeIN8firebase9firestore5model11DocumentKeyEPNS4_15MutableDocumentEEENS_22__unordered_map_hasherIS5_S8_NS4_15DocumentKeyHashENS_8equal_toIS5_EELb1EEENS_21__unordered_map_equalIS5_S8_SC_SA_Lb1EEENS_9allocatorIS8_EEE21__construct_node_hashIRKNS_21piecewise_construct_tEJNS_5tupleIJRKS5_EEENSN_IJEEEEEENS_10unique_ptrINS_11__hash_nodeIS8_PvEENS_22__hash_node_destructorINSG_ISV_EEEEEEmOT_DpOT0_",
            "__ZN8firebase9firestore6nanopb17PrintMessageFieldINS0_33_google_firestore_v1_PreconditionEEENSt3__112basic_stringIcNS4_11char_traitsIcEENS4_9allocatorIcEEEEN4absl12lts_2024011611string_viewERKT_ib",
            "__ZNSt3__112basic_stringIcNS_11char_traitsIcEENS_9allocatorIcEEE16__init_with_sizeB8ue170006IPcS7_EEvT_T0_m",
            "__ZN8firebase9firestore4util4HashIJiNS0_5model11DocumentKeyENSt3__112basic_stringIcNS5_11char_traitsIcEENS5_9allocatorIcEEEESB_EEEmDpRKT_",
            "__ZN4absl12lts_2024011616strings_internal13JoinAlgorithmIN8firebase9firestore9immutable4impl17SortedMapIteratorINSt3__14pairINS4_5model11DocumentKeyENS4_4core18DocumentViewChangeEEEPKSE_NS6_16LlrbNodeIteratorINS6_8LlrbNodeISB_SD_EEEEEERZNS4_4util4impl12ToStringImplINS5_9SortedMapISB_SD_NSM_10ComparatorISB_EEEEvEENS8_12basic_stringIcNS8_11char_traitsIcEENS8_9allocatorIcEEEERKT_NSN_14ToStringChoiceILi4EEEEUlPSY_RSF_E_EESY_SZ_SZ_NS0_11string_viewEOT0_",
            "__ZN8firebase9firestore4util4impl10InvokeHashINS0_3api5QueryEEEmRKT_",
            "__ZN8firebase9firestore4util4impl10InvokeHashIN4absl12lts_202401168optionalINS0_5model9FieldMaskEEEEEmRKT_",
            "__ZNSt3__16__treeIN8firebase9firestore5index10IndexEntryENS_4lessIS4_EENS_9allocatorIS4_EEE30__emplace_hint_unique_key_argsIS4_JRKS4_EEENS_4pairINS_15__tree_iteratorIS4_PNS_11__tree_nodeIS4_PvEElEEbEENS_21__tree_const_iteratorIS4_SI_lEERKT_DpOT0_",
            "__ZNSt3__112__hash_tableINS_17__hash_value_typeIN8firebase9firestore5model11DocumentKeyENS4_7OverlayEEENS_22__unordered_map_hasherIS5_S7_NS4_15DocumentKeyHashENS_8equal_toIS5_EELb1EEENS_21__unordered_map_equalIS5_S7_SB_S9_Lb1EEENS_9allocatorIS7_EEE25__emplace_unique_key_argsIS5_JRKNS_21piecewise_construct_tENS_5tupleIJOS5_EEENSM_IJEEEEEENS_4pairINS_15__hash_iteratorIPNS_11__hash_nodeIS7_PvEEEEbEERKT_DpOT0_",
            "__ZNSt3__112__hash_tableINS_17__hash_value_typeIN8firebase9firestore5model11DocumentKeyENS4_15SnapshotVersionEEENS_22__unordered_map_hasherIS5_S7_NS4_15DocumentKeyHashENS_8equal_toIS5_EELb1EEENS_21__unordered_map_equalIS5_S7_SB_S9_Lb1EEENS_9allocatorIS7_EEE8__rehashILb1EEEvm",
            "__ZNSt3__112__hash_tableINS_17__hash_value_typeINS_12basic_stringIcNS_11char_traitsIcEENS_9allocatorIcEEEEN8firebase9firestore9immutable9SortedSetINS9_5model11DocumentKeyENS9_4util10ComparatorISD_EEEEEENS_22__unordered_map_hasherIS7_SI_NS_4hashIS7_EENS_8equal_toIS7_EELb1EEENS_21__unordered_map_equalIS7_SI_SN_SL_Lb1EEENS5_ISI_EEE8__rehashILb1EEEvm",
            "__ZN8firebase9firestore4util8ToStringINSt3__16vectorINS0_4core18DocumentViewChangeENS3_9allocatorIS6_EEEEEENS3_12basic_stringIcNS3_11char_traitsIcEENS7_IcEEEERKT_",
            "__ZNSt3__112__hash_tableINS_17__hash_value_typeIN8firebase9firestore4core5QueryENS4_12EventManager18QueryListenersInfoEEENS_22__unordered_map_hasherIS5_S8_NS_4hashIS5_EENS_8equal_toIS5_EELb1EEENS_21__unordered_map_equalIS5_S8_SD_SB_Lb1EEENS_9allocatorIS8_EEE25__emplace_unique_key_argsIS5_JRKS5_S7_EEENS_4pairINS_15__hash_iteratorIPNS_11__hash_nodeIS8_PvEEEEbEERKT_DpOT0_",
            "__ZN8firebase9firestore6nanopb17PrintMessageFieldINS0_27_google_protobuf_Int64ValueEEENSt3__112basic_stringIcNS4_11char_traitsIcEENS4_9allocatorIcEEEEN4absl12lts_2024011611string_viewERKT_ib",
            "__ZN8firebase9firestore6nanopb9MakeArrayINS0_41_google_firestore_v1_MapValue_FieldsEntryEEEPT_j",
            "__ZN8firebase9firestore4util4HashIJNS0_5model9FieldPathEEEEmDpRKT_",
            "__ZN8firebase9firestore4util17internal_statusor12PlacementNewINS0_4core12ViewSnapshotEJS5_EEEvPvDpOT0_",
            "__ZNSt3__112__hash_tableIN8firebase9firestore5model11DocumentKeyENS3_15DocumentKeyHashENS_8equal_toIS4_EENS_9allocatorIS4_EEE14__erase_uniqueIS4_EEmRKT_",
            "__ZNR8firebase9firestore4util8StatusOrINS0_5model9FieldPathEE10ValueOrDieEv",
            "__ZN8firebase9firestore9immutable4impl8LlrbNodeINS0_5model8DocumentENS0_4util5EmptyEE9RemoveMinEv",
            "__ZN8firebase9firestore4util4impl16RankedInvokeHashINS0_5model15SnapshotVersionEEEDTcldtfp_4HashEERKT_NS2_10HashChoiceILi0EEE",
            "__ZNSt3__16__treeINS_12__value_typeIN4grpc10string_refES3_EENS_19__map_value_compareIS3_S4_NS_4lessIS3_EELb1EEENS_9allocatorIS4_EEE4findIS3_EENS_15__tree_iteratorIS4_PNS_11__tree_nodeIS4_PvEElEERKT_",
            "__ZN8firebase9firestore4util4impl10InvokeHashINS0_3api16SnapshotMetadataEEEmRKT_",
            "__ZNSt3__112__hash_tableINS_17__hash_value_typeINS_12basic_stringIcNS_11char_traitsIcEENS_9allocatorIcEEEENS_10unique_ptrIN8firebase9firestore5local27LevelDbDocumentOverlayCacheENS_14default_deleteISC_EEEEEENS_22__unordered_map_hasherIS7_SG_NS_4hashIS7_EENS_8equal_toIS7_EELb1EEENS_21__unordered_map_equalIS7_SG_SL_SJ_Lb1EEENS5_ISG_EEE21__construct_node_hashIRKNS_21piecewise_construct_tEJNS_5tupleIJRKS7_EEENSV_IJEEEEEENS8_INS_11__hash_nodeISG_PvEENS_22__hash_node_destructorINS5_IS12_EEEEEEmOT_DpOT0_",
            "__ZN8firebase9firestore9immutable4impl8LlrbNodeINS0_5model11DocumentKeyENS0_4util5EmptyEE9FlipColorEv",
            "__ZN8firebase9firestore4util8StatusOrINS0_3api16DocumentSnapshotEEaSEONS1_6StatusE",
            "__ZN8firebase9firestore6nanopb17PrintMessageFieldINS0_26_google_protobuf_ListValueEEENSt3__112basic_stringIcNS4_11char_traitsIcEENS4_9allocatorIcEEEEN4absl12lts_2024011611string_viewERKT_ib",
            "__ZN8firebase9firestore4util4HashIJNS0_4core5QueryENS0_5model11DocumentSetES6_NSt3__16vectorINS3_18DocumentViewChangeENS7_9allocatorIS9_EEEEbbbbEEEmDpRKT_",
            "__ZNSt3__16__treeIN8firebase9firestore5model9FieldPathENS_4lessIS4_EENS_9allocatorIS4_EEE13__lower_boundIS4_EENS_15__tree_iteratorIS4_PNS_11__tree_nodeIS4_PvEElEERKT_SF_PNS_15__tree_end_nodeIPNS_16__tree_node_baseISD_EEEE",
            "__ZN8firebase9firestore6nanopb7MessageINS0_28_firestore_client_WriteBatchEE8TryParseEPNS1_6ReaderE",
            "__ZNSt3__112__hash_tableINS_17__hash_value_typeIN8firebase9firestore5model11DocumentKeyEN4absl12lts_202401168optionalINS4_9FieldMaskEEEEENS_22__unordered_map_hasherIS5_SB_NS4_15DocumentKeyHashENS_8equal_toIS5_EELb1EEENS_21__unordered_map_equalIS5_SB_SF_SD_Lb1EEENS_9allocatorISB_EEE21__construct_node_hashIRKNS_21piecewise_construct_tEJNS_5tupleIJRKS5_EEENSQ_IJEEEEEENS_10unique_ptrINS_11__hash_nodeISB_PvEENS_22__hash_node_destructorINSJ_ISY_EEEEEEmOT_DpOT0_",
            "__ZN8firebase9firestore6nanopb17PrintMessageFieldINS0_55_google_firestore_v1_StructuredQuery_CollectionSelectorEEENSt3__112basic_stringIcNS4_11char_traitsIcEENS4_9allocatorIcEEEEN4absl12lts_2024011611string_viewERKT_ib",
            "__ZNSt3__16__treeINS_12__value_typeIN8firebase9firestore5model11DocumentKeyEiEENS_19__map_value_compareIS5_S6_NS_4lessIS5_EELb1EEENS_9allocatorIS6_EEE16__construct_nodeIJRS5_RiEEENS_10unique_ptrINS_11__tree_nodeIS6_PvEENS_22__tree_node_destructorINSB_ISK_EEEEEEDpOT_",
            "__ZNSt3__112__hash_tableINS_17__hash_value_typeIN8firebase9firestore11credentials4UserENS_10unique_ptrINS3_5local19MemoryMutationQueueENS_14default_deleteIS8_EEEEEENS_22__unordered_map_hasherIS5_SC_NS4_8HashUserENS_8equal_toIS5_EELb1EEENS_21__unordered_map_equalIS5_SC_SG_SE_Lb1EEENS_9allocatorISC_EEE4findIS5_EENS_15__hash_iteratorIPNS_11__hash_nodeISC_PvEEEERKT_",
            "__ZN8firebase9firestore9immutable4impl8LlrbNodeINS0_5model11DocumentKeyENS0_4util5EmptyEE12FixRootColorEv",
            "__ZN8firebase9firestore9immutable4impl8LlrbNodeINS0_5model11DocumentKeyENS0_4core18DocumentViewChangeEE11RotateRightEv",
            "__ZNO8firebase9firestore4util8StatusOrINSt3__110unique_ptrINS0_5local18LevelDbPersistenceENS3_14default_deleteIS6_EEEEE10ValueOrDieEv",
            "__ZNKR8firebase9firestore4util8StatusOrINS0_11credentials9AuthTokenEE10ValueOrDieEv",
            "__ZN8firebase9firestore4util12StringFormatIJNSt3__112basic_stringIcNS3_11char_traitsIcEENS3_9allocatorIcEEEES9_S9_S9_EEES9_PKcDpRKT_",
            "__ZNSt3__112__hash_tableINS_17__hash_value_typeIN8firebase9firestore4core6TargetENS_6vectorIS5_NS_9allocatorIS5_EEEEEENS_22__unordered_map_hasherIS5_SA_NS_4hashIS5_EENS_8equal_toIS5_EELb1EEENS_21__unordered_map_equalIS5_SA_SF_SD_Lb1EEENS7_ISA_EEE21__construct_node_hashIRKNS_21piecewise_construct_tEJNS_5tupleIJRKS5_EEENSP_IJEEEEEENS_10unique_ptrINS_11__hash_nodeISA_PvEENS_22__hash_node_destructorINS7_ISX_EEEEEEmOT_DpOT0_",
            "__ZN8firebase9firestore6nanopb17PrintMessageFieldINS0_52_google_firestore_v1_StructuredQuery_CompositeFilterEEENSt3__112basic_stringIcNS4_11char_traitsIcEENS4_9allocatorIcEEEEN4absl12lts_2024011611string_viewERKT_ib",
            "__ZN8firebase9firestore4util20ThrowInvalidArgumentIJdEEEvPKcDpRKT_",
            "__ZNSt3__112__hash_tableINS_17__hash_value_typeIN8firebase9firestore5model11DocumentKeyExEENS_22__unordered_map_hasherIS5_S6_NS4_15DocumentKeyHashENS_8equal_toIS5_EELb1EEENS_21__unordered_map_equalIS5_S6_SA_S8_Lb1EEENS_9allocatorIS6_EEE8__rehashILb1EEEvm",
            "__ZNSt3__16vectorINS_12basic_stringIcNS_11char_traitsIcEENS_9allocatorIcEEEENS4_IS6_EEE18__construct_at_endIPKS6_SB_EEvT_T0_m",
            "__ZN8firebase9firestore6nanopb21ReleaseFieldOwnershipINS0_26_google_firestore_v1_ValueEEEvPT_j",
            "__ZN8firebase9firestore4util4impl16RankedInvokeHashIxEENSt3__19enable_ifIXsr12has_std_hashIT_EE5valueEmE4typeERKS6_NS2_10HashChoiceILi2EEE",
            "__ZNSt3__16__treeIN8firebase9firestore5index10IndexEntryENS_4lessIS4_EENS_9allocatorIS4_EEE16__construct_nodeIJS4_EEENS_10unique_ptrINS_11__tree_nodeIS4_PvEENS_22__tree_node_destructorINS7_ISE_EEEEEEDpOT_",
            "__ZNSt3__16__treeIN8firebase9firestore5model11DocumentKeyENS_4lessIS4_EENS_9allocatorIS4_EEE25__emplace_unique_key_argsIS4_JRKS4_EEENS_4pairINS_15__tree_iteratorIS4_PNS_11__tree_nodeIS4_PvEElEEbEERKT_DpOT0_",
            "__ZN8firebase9firestore6nanopb7MessageINS0_24_firestore_client_TargetEE8TryParseEPNS1_6ReaderE",
            "__ZNSt3__112__hash_tableINS_17__hash_value_typeIiN8firebase9firestore6remote12TargetChangeEEENS_22__unordered_map_hasherIiS6_NS_4hashIiEENS_8equal_toIiEELb1EEENS_21__unordered_map_equalIiS6_SB_S9_Lb1EEENS_9allocatorIS6_EEE25__emplace_unique_key_argsIiJRKNS_4pairIKiS5_EEEEENSJ_INS_15__hash_iteratorIPNS_11__hash_nodeIS6_PvEEEEbEERKT_DpOT0_",
            "__ZN8firebase9firestore9immutable4impl8LlrbNodeINS0_5model11DocumentKeyENS0_4core18DocumentViewChangeEE10RotateLeftEv",
            "__ZNSt3__112__hash_tableINS_17__hash_value_typeIN8firebase9firestore5model11DocumentKeyEN4absl12lts_202401168optionalINS4_9FieldMaskEEEEENS_22__unordered_map_hasherIS5_SB_NS4_15DocumentKeyHashENS_8equal_toIS5_EELb1EEENS_21__unordered_map_equalIS5_SB_SF_SD_Lb1EEENS_9allocatorISB_EEE4findIS5_EENS_15__hash_iteratorIPNS_11__hash_nodeISB_PvEEEERKT_",
            "__ZN8firebase9firestore4util4impl10InvokeHashINSt3__13setINS0_5model9FieldPathENS4_4lessIS7_EENS4_9allocatorIS7_EEEEEEmRKT_",
            "__ZNSt3__16__treeINS_12__value_typeINS_12basic_stringIcNS_11char_traitsIcEENS_9allocatorIcEEEEN8nlohmann10basic_jsonINS_3mapENS_6vectorES7_bxydS5_NS8_14adl_serializerENSB_IhNS5_IhEEEEEEEENS_19__map_value_compareIS7_SG_NS_4lessIvEELb1EEENS5_ISG_EEE13__lower_boundIA8_cEENS_15__tree_iteratorISG_PNS_11__tree_nodeISG_PvEElEERKT_ST_PNS_15__tree_end_nodeIPNS_16__tree_node_baseISR_EEEE",
            "__ZN8firebase9firestore4util4impl16RankedInvokeHashINSt3__16vectorINS0_5model14AggregateFieldENS4_9allocatorIS7_EEEEEEDTcl10InvokeHashdeclsr3stdE5beginfp_EEERKT_NS2_10HashChoiceILi3EEE",
            "__ZNK8firebase9firestore9immutable4impl8LlrbNodeINS0_5model8DocumentENS0_4util5EmptyEE11InnerInsertINS4_18DocumentComparatorEEES8_RKS5_RKS7_RKT_",
            "__ZN4absl12lts_2024011616numbers_internal16safe_strtoi_baseIxEEbNS0_11string_viewEPT_i",
            "__ZNSt3__112__hash_tableINS_17__hash_value_typeIN8firebase9firestore5model11DocumentKeyENS4_8MutationEEENS_22__unordered_map_hasherIS5_S7_NS4_15DocumentKeyHashENS_8equal_toIS5_EELb1EEENS_21__unordered_map_equalIS5_S7_SB_S9_Lb1EEENS_9allocatorIS7_EEE21__construct_node_hashIRKNS_21piecewise_construct_tEJNS_5tupleIJRKS5_EEENSM_IJEEEEEENS_10unique_ptrINS_11__hash_nodeIS7_PvEENS_22__hash_node_destructorINSF_ISU_EEEEEEmOT_DpOT0_",
            "__ZNSt3__112__hash_tableINS_17__hash_value_typeIiN8firebase9firestore6remote11TargetStateEEENS_22__unordered_map_hasherIiS6_NS_4hashIiEENS_8equal_toIiEELb1EEENS_21__unordered_map_equalIiS6_SB_S9_Lb1EEENS_9allocatorIS6_EEE21__construct_node_hashIRKNS_21piecewise_construct_tEJNS_5tupleIJRKiEEENSM_IJEEEEEENS_10unique_ptrINS_11__hash_nodeIS6_PvEENS_22__hash_node_destructorINSF_ISU_EEEEEEmOT_DpOT0_",
            "__ZNR8firebase9firestore4util8StatusOrINS0_5model12PreconditionEE10ValueOrDieEv",
            "__ZNSt3__16vectorIN8firebase9firestore5model7SegmentENS_9allocatorIS4_EEE18__construct_at_endIPS4_S9_EEvT_T0_m",
            "__ZN8firebase9firestore9immutable4impl8LlrbNodeINS0_5local20DocumentKeyReferenceENS0_4util5EmptyEE9RemoveMinEv",
            "__ZNSt3__16__treeINS_12__value_typeIN4grpc10string_refES3_EENS_19__map_value_compareIS3_S4_NS_4lessIS3_EELb1EEENS_9allocatorIS4_EEE16__construct_nodeIJNS_4pairIS3_S3_EEEEENS_10unique_ptrINS_11__tree_nodeIS4_PvEENS_22__tree_node_destructorINS9_ISI_EEEEEEDpOT_",
            "__ZN8firebase9firestore4util4impl10InvokeHashINS0_5model9FieldMaskEEEmRKT_",
            "__ZN8firebase9firestore4util4impl11CompareImplINS_9TimestampEvEENS1_16ComparisonResultERKT_S8_NS2_13CompareChoiceILi2EEE",
            "__ZNKR8firebase9firestore4util8StatusOrINS0_5local10TargetDataEE6statusEv",
            "__ZN8firebase9firestore6nanopb17PrintMessageFieldINS0_33_google_firestore_v1_TargetChangeEEENSt3__112basic_stringIcNS4_11char_traitsIcEENS4_9allocatorIcEEEEN4absl12lts_2024011611string_viewERKT_ib",
            "__ZNSt3__112__hash_tableINS_17__hash_value_typeIN8firebase9firestore5model11DocumentKeyENS3_4core18DocumentViewChange4TypeEEENS_22__unordered_map_hasherIS5_S9_NS4_15DocumentKeyHashENS_8equal_toIS5_EELb1EEENS_21__unordered_map_equalIS5_S9_SD_SB_Lb1EEENS_9allocatorIS9_EEE21__construct_node_hashIRKNS_21piecewise_construct_tEJNS_5tupleIJRKS5_EEENSO_IJEEEEEENS_10unique_ptrINS_11__hash_nodeIS9_PvEENS_22__hash_node_destructorINSH_ISW_EEEEEEmOT_DpOT0_",
            "__ZNSt3__16__treeINS_12__value_typeINS_12basic_stringIcNS_11char_traitsIcEENS_9allocatorIcEEEEN8nlohmann10basic_jsonINS_3mapENS_6vectorES7_bxydS5_NS8_14adl_serializerENSB_IhNS5_IhEEEEEEEENS_19__map_value_compareIS7_SG_NS_4lessIvEELb1EEENS5_ISG_EEE12__find_equalIS7_EERPNS_16__tree_node_baseIPvEENS_21__tree_const_iteratorISG_PNS_11__tree_nodeISG_SP_EElEERPNS_15__tree_end_nodeISR_EESS_RKT_",
            "__ZNSt3__16__treeIiNS_4lessIiEENS_9allocatorIiEEE25__emplace_unique_key_argsIiJiEEENS_4pairINS_15__tree_iteratorIiPNS_11__tree_nodeIiPvEElEEbEERKT_DpOT0_",
            "__ZN8nlohmann6detail8to_charsIdEEPcS2_PKcT_",
            "__ZNSt3__112__hash_tableIN8firebase9firestore5model11DocumentKeyENS3_15DocumentKeyHashENS_8equal_toIS4_EENS_9allocatorIS4_EEE11__do_rehashILb1EEEvm",
            "__ZNSt3__112__hash_tableINS_17__hash_value_typeIN8firebase9firestore5model11DocumentKeyEPNS4_15MutableDocumentEEENS_22__unordered_map_hasherIS5_S8_NS4_15DocumentKeyHashENS_8equal_toIS5_EELb1EEENS_21__unordered_map_equalIS5_S8_SC_SA_Lb1EEENS_9allocatorIS8_EEE25__emplace_unique_key_argsIS5_JRKNS_21piecewise_construct_tENS_5tupleIJRKS5_EEENSN_IJEEEEEENS_4pairINS_15__hash_iteratorIPNS_11__hash_nodeIS8_PvEEEEbEERKT_DpOT0_",
            "__ZN8firebase9firestore6nanopb17PrintMessageFieldINS0_32_google_firestore_v1_BloomFilterEEENSt3__112basic_stringIcNS4_11char_traitsIcEENS4_9allocatorIcEEEEN4absl12lts_2024011611string_viewERKT_ib",
            "__ZN8firebase9firestore4util4impl10InvokeHashINS0_5model18TransformOperationEEEmRKT_",
            "__ZNK8firebase9firestore9immutable4impl8LlrbNodeINS0_5local20DocumentKeyReferenceENS0_4util5EmptyEE6insertINS5_4ByIdEEES8_RKS5_RKS7_RKT_",
            "__ZN8firebase9firestore6nanopb7MessageINS0_46_google_firestore_v1_BatchGetDocumentsResponseEE8TryParseEPNS1_6ReaderE",
            "__ZNK8firebase9firestore9immutable4impl8LlrbNodeINS0_5local20DocumentKeyReferenceENS0_4util5EmptyEE10InnerEraseINS5_5ByKeyEEES8_RKS5_RKT_",
            "__ZNSt3__112basic_stringIcNS_11char_traitsIcEENS_9allocatorIcEEE18__insert_with_sizeIPKhS8_EENS_11__wrap_iterIPcEENS9_IPKcEET_T0_m",
            "__ZN8firebase9firestore4util4impl12HashInternalINS0_4core5QueryEJNS0_5model11DocumentSetES7_NSt3__16vectorINS4_18DocumentViewChangeENS8_9allocatorISA_EEEEbbbbEEEmmRKT_DpRKT0_",
            "__ZN8nlohmann6detail7to_jsonINS_10basic_jsonINSt3__13mapENS3_6vectorENS3_12basic_stringIcNS3_11char_traitsIcEENS3_9allocatorIcEEEEbxydS9_NS_14adl_serializerENS5_IhNS9_IhEEEEEEdLi0EEEvRT_T0_",
            "__ZNSt3__112__hash_tableINS_17__hash_value_typeIN8firebase9firestore5model11DocumentKeyEN4absl12lts_202401168optionalINS4_9FieldMaskEEEEENS_22__unordered_map_hasherIS5_SB_NS4_15DocumentKeyHashENS_8equal_toIS5_EELb1EEENS_21__unordered_map_equalIS5_SB_SF_SD_Lb1EEENS_9allocatorISB_EEE25__emplace_unique_key_argsIS5_JRKNS_21piecewise_construct_tENS_5tupleIJRKS5_EEENSQ_IJEEEEEENS_4pairINS_15__hash_iteratorIPNS_11__hash_nodeISB_PvEEEEbEERKT_DpOT0_",
            "__ZN8firebase9firestore4util4HashIJPNS0_3api9FirestoreENS0_5model11DocumentKeyEEEEmDpRKT_",
            "__ZN8firebase9firestore9immutable4impl8LlrbNodeINS0_5model11DocumentKeyENS4_8DocumentEE11RotateRightEv",
            "__ZN8firebase9firestore4util4impl10InvokeHashINS0_9immutable9SortedSetINS0_5model8DocumentENS6_18DocumentComparatorEEEEEmRKT_",
            "__ZN8firebase9firestore4util12StringFormatIJNSt3__112basic_stringIcNS3_11char_traitsIcEENS3_9allocatorIcEEEES9_EEES9_PKcDpRKT_",
            "__ZNSt3__16__treeINS_12__value_typeIN8firebase9firestore5model9FieldPathEN4absl12lts_202401168optionalINS3_6nanopb7MessageINS3_26_google_firestore_v1_ValueEEEEEEENS_19__map_value_compareIS5_SE_NS_4lessIS5_EELb1EEENS_9allocatorISE_EEE12__find_equalIS5_EERPNS_16__tree_node_baseIPvEERPNS_15__tree_end_nodeISQ_EERKT_",
            "__ZN8firebase9firestore4util4impl12HashInternalINS0_5model11DocumentKeyEJNS4_12PreconditionENSt3__16vectorINS4_14FieldTransformENS7_9allocatorIS9_EEEEEEEmmRKT_DpRKT0_",
            "__ZN8firebase9firestore6nanopb7MessageINS0_31_firestore_client_MaybeDocumentEE8TryParseEPNS1_6ReaderE",
            "__ZN4absl12lts_202401169StrFormatIJxiEEENSt3__112basic_stringIcNS2_11char_traitsIcEENS2_9allocatorIcEEEERKNS0_19str_format_internal18FormatSpecTemplateIJXspclsr19str_format_internalE14ArgumentToConvIT_EEEEEEDpRKSB_",
            "__ZN8firebase9firestore4util20ThrowInvalidArgumentIJxEEEvPKcDpRKT_",
            "__ZN4absl12lts_2024011628container_algorithm_internal7c_beginIKN8firebase9firestore9immutable9SortedSetINS4_5model8DocumentENS7_18DocumentComparatorEEEEEDTcl5beginclsr3stdE7declvalIRT_EEEESD_",
            "__ZNKSt3__16__treeINS_12basic_stringIcNS_11char_traitsIcEENS_9allocatorIcEEEENS_4lessIS6_EENS4_IS6_EEE13__lower_boundIS6_EENS_21__tree_const_iteratorIS6_PNS_11__tree_nodeIS6_PvEElEERKT_SG_PNS_15__tree_end_nodeIPNS_16__tree_node_baseISE_EEEE",
            "__ZN8firebase9firestore4util4impl12HashInternalINS0_5model14AggregateField6OpKindEJNS4_14AggregateAliasENSt3__112basic_stringIcNS8_11char_traitsIcEENS8_9allocatorIcEEEEEEEmmRKT_DpRKT0_",
            "__ZNSt3__16__treeINS_12__value_typeIN8firebase9firestore5model11DocumentKeyENS4_8DocumentEEENS_19__map_value_compareIS5_S7_NS_4lessIS5_EELb1EEENS_9allocatorIS7_EEE12__find_equalIS5_EERPNS_16__tree_node_baseIPvEERPNS_15__tree_end_nodeISJ_EERKT_",
            "__ZNK8firebase9firestore9immutable4impl8LlrbNodeINS0_5model11DocumentKeyENS0_4util5EmptyEE5eraseINS6_10ComparatorIS5_EEEES8_RKS5_RKT_",
            "__ZN8firebase9firestore4util4impl16RankedInvokeHashINS0_3api5QueryEEEDTcldtfp_4HashEERKT_NS2_10HashChoiceILi0EEE",
            "__ZNSt3__112__hash_tableINS_17__hash_value_typeIN8firebase9firestore4core5QueryENS4_12EventManager18QueryListenersInfoEEENS_22__unordered_map_hasherIS5_S8_NS_4hashIS5_EENS_8equal_toIS5_EELb1EEENS_21__unordered_map_equalIS5_S8_SD_SB_Lb1EEENS_9allocatorIS8_EEE11__do_rehashILb1EEEvm",
            "__ZNSt3__16__treeINS_12__value_typeINS_12basic_stringIcNS_11char_traitsIcEENS_9allocatorIcEEEEN8nlohmann10basic_jsonINS_3mapENS_6vectorES7_bxydS5_NS8_14adl_serializerENSB_IhNS5_IhEEEEEEEENS_19__map_value_compareIS7_SG_NS_4lessIvEELb1EEENS5_ISG_EEE16__construct_nodeIJRKNS_21piecewise_construct_tENS_5tupleIJRKS7_EEENSR_IJEEEEEENS_10unique_ptrINS_11__tree_nodeISG_PvEENS_22__tree_node_destructorINS5_ISZ_EEEEEEDpOT_",
            "__ZNSt3__112__hash_tableINS_17__hash_value_typeIN8firebase9firestore5model11DocumentKeyENS4_7OverlayEEENS_22__unordered_map_hasherIS5_S7_NS4_15DocumentKeyHashENS_8equal_toIS5_EELb1EEENS_21__unordered_map_equalIS5_S7_SB_S9_Lb1EEENS_9allocatorIS7_EEE21__construct_node_hashIRKNS_21piecewise_construct_tEJNS_5tupleIJOS5_EEENSM_IJEEEEEENS_10unique_ptrINS_11__hash_nodeIS7_PvEENS_22__hash_node_destructorINSF_IST_EEEEEEmOT_DpOT0_",
            "__ZN8firebase9firestore4util4impl16RankedInvokeHashINS0_3api18LocalCacheSettingsEEEDTcldtfp_4HashEERKT_NS2_10HashChoiceILi0EEE",
            "__ZN8firebase9firestore4util12StringFormatIJNSt3__112basic_stringIcNS3_11char_traitsIcEENS3_9allocatorIcEEEES9_S9_S9_S9_EEES9_PKcDpRKT_",
            "__ZN8firebase9firestore9immutable4impl10KeysViewInINS1_9SortedMapINS0_5local20DocumentKeyReferenceENS0_4util5EmptyENS6_4ByIdEEES6_S9_EENS7_5rangeINS7_14iterator_firstIDTcldtfp_11lower_boundfp0_EEEEEERKT_RKT0_SL_RKT1_",
            "__ZNK8firebase9firestore9immutable4impl8LlrbNodeINS0_5model11DocumentKeyENS0_4util5EmptyEE10InnerEraseINS6_10ComparatorIS5_EEEES8_RKS5_RKT_",
            "__ZNSt3__112__hash_tableINS_17__hash_value_typeIN8firebase9firestore5model11DocumentKeyENS4_15MutableDocumentEEENS_22__unordered_map_hasherIS5_S7_NS4_15DocumentKeyHashENS_8equal_toIS5_EELb1EEENS_21__unordered_map_equalIS5_S7_SB_S9_Lb1EEENS_9allocatorIS7_EEE21__construct_node_hashIRKNS_4pairIKS5_S6_EEJEEENS_10unique_ptrINS_11__hash_nodeIS7_PvEENS_22__hash_node_destructorINSF_ISR_EEEEEEmOT_DpOT0_",
            "__ZNSt3__16__treeINS_12__value_typeIN4grpc10string_refES3_EENS_19__map_value_compareIS3_S4_NS_4lessIS3_EELb1EEENS_9allocatorIS4_EEE20__emplace_hint_multiIJRKNS_4pairIKS3_S3_EEEEENS_15__tree_iteratorIS4_PNS_11__tree_nodeIS4_PvEElEENS_21__tree_const_iteratorIS4_SM_lEEDpOT_",
            "__ZN8firebase9firestore6nanopb9MakeArrayINS0_43_google_firestore_v1_StructuredQuery_FilterEEEPT_j",
            "__ZNKSt3__112__hash_tableINS_17__hash_value_typeIiN8firebase9firestore5local10TargetDataEEENS_22__unordered_map_hasherIiS6_NS_4hashIiEENS_8equal_toIiEELb1EEENS_21__unordered_map_equalIiS6_SB_S9_Lb1EEENS_9allocatorIS6_EEE4findIiEENS_21__hash_const_iteratorIPNS_11__hash_nodeIS6_PvEEEERKT_",
            "__ZNSt3__16__treeIN8firebase9firestore5index10IndexEntryENS_4lessIS4_EENS_9allocatorIS4_EEE25__emplace_unique_key_argsIS4_JS4_EEENS_4pairINS_15__tree_iteratorIS4_PNS_11__tree_nodeIS4_PvEElEEbEERKT_DpOT0_",
            "__ZNSt3__112__hash_tableINS_17__hash_value_typeINS_12basic_stringIcNS_11char_traitsIcEENS_9allocatorIcEEEENS_10unique_ptrIN8firebase9firestore5local19LevelDbIndexManagerENS_14default_deleteISC_EEEEEENS_22__unordered_map_hasherIS7_SG_NS_4hashIS7_EENS_8equal_toIS7_EELb1EEENS_21__unordered_map_equalIS7_SG_SL_SJ_Lb1EEENS5_ISG_EEE11__do_rehashILb1EEEvm",
            "__ZNSt3__112__hash_tableINS_17__hash_value_typeIN8firebase9firestore4core6TargetENS_6vectorIS5_NS_9allocatorIS5_EEEEEENS_22__unordered_map_hasherIS5_SA_NS_4hashIS5_EENS_8equal_toIS5_EELb1EEENS_21__unordered_map_equalIS5_SA_SF_SD_Lb1EEENS7_ISA_EEE4findIS5_EENS_15__hash_iteratorIPNS_11__hash_nodeISA_PvEEEERKT_",
            "__ZNSt3__112__hash_tableINS_17__hash_value_typeIN8firebase9firestore4core6TargetENS3_5local10TargetDataEEENS_22__unordered_map_hasherIS5_S8_NS_4hashIS5_EENS_8equal_toIS5_EELb1EEENS_21__unordered_map_equalIS5_S8_SD_SB_Lb1EEENS_9allocatorIS8_EEE14__erase_uniqueIS5_EEmRKT_",
            "__ZNSt3__112__hash_tableINS_17__hash_value_typeIN8firebase9firestore5model11DocumentKeyENS4_8MutationEEENS_22__unordered_map_hasherIS5_S7_NS4_15DocumentKeyHashENS_8equal_toIS5_EELb1EEENS_21__unordered_map_equalIS5_S7_SB_S9_Lb1EEENS_9allocatorIS7_EEE8__rehashILb1EEEvm",
            "__ZNSt3__112__hash_tableINS_17__hash_value_typeINS_12basic_stringIcNS_11char_traitsIcEENS_9allocatorIcEEEENS_10unique_ptrIN8firebase9firestore5local30LevelDbOverlayMigrationManagerENS_14default_deleteISC_EEEEEENS_22__unordered_map_hasherIS7_SG_NS_4hashIS7_EENS_8equal_toIS7_EELb1EEENS_21__unordered_map_equalIS7_SG_SL_SJ_Lb1EEENS5_ISG_EEE25__emplace_unique_key_argsIS7_JNS_4pairIKS7_SF_EEEEENSS_INS_15__hash_iteratorIPNS_11__hash_nodeISG_PvEEEEbEERKT_DpOT0_",
            "__ZNSt3__113basic_filebufIcNS_11char_traitsIcEEE5closeEv",
            "__ZNSt3__112__hash_tableINS_17__hash_value_typeIiN8firebase9firestore5model10IndexStateEEENS_22__unordered_map_hasherIiS6_NS_4hashIiEENS_8equal_toIiEELb1EEENS_21__unordered_map_equalIiS6_SB_S9_Lb1EEENS_9allocatorIS6_EEE11__do_rehashILb1EEEvm",
            "__ZNSt3__112__hash_tableINS_17__hash_value_typeIN8firebase9firestore11credentials4UserENS_10unique_ptrINS3_5local19MemoryMutationQueueENS_14default_deleteIS8_EEEEEENS_22__unordered_map_hasherIS5_SC_NS4_8HashUserENS_8equal_toIS5_EELb1EEENS_21__unordered_map_equalIS5_SC_SG_SE_Lb1EEENS_9allocatorISC_EEE25__emplace_unique_key_argsIS5_JRKS5_SB_EEENS_4pairINS_15__hash_iteratorIPNS_11__hash_nodeISC_PvEEEEbEERKT_DpOT0_",
            "__ZNKR8firebase9firestore4util8StatusOrINSt3__112basic_stringIcNS3_11char_traitsIcEENS3_9allocatorIcEEEEE10ValueOrDieEv",
            "__ZN8nlohmann6detail9from_jsonINS_10basic_jsonINSt3__13mapENS3_6vectorENS3_12basic_stringIcNS3_11char_traitsIcEENS3_9allocatorIcEEEEbxydS9_NS_14adl_serializerENS5_IhNS9_IhEEEEEEEEvRKT_RNSG_8string_tE",
            "__ZN8firebase9firestore4util17internal_statusor12PlacementNewINS0_11credentials9AuthTokenEJRKS5_EEEvPvDpOT0_",
            "__ZN8firebase9firestore6nanopb19PrintPrimitiveFieldIdEENSt3__112basic_stringIcNS3_11char_traitsIcEENS3_9allocatorIcEEEEN4absl12lts_2024011611string_viewET_ib",
            "__ZN8firebase9firestore4util4impl10InvokeHashImEEmRKT_",
            "__ZN8firebase9firestore6nanopb17PrintMessageFieldINS0_23_firestore_BundledQueryEEENSt3__112basic_stringIcNS4_11char_traitsIcEENS4_9allocatorIcEEEEN4absl12lts_2024011611string_viewERKT_ib",
            "__ZN8firebase9firestore4util4impl12HashInternalINSt3__112basic_stringIcNS4_11char_traitsIcEENS4_9allocatorIcEEEEJSA_EEEmmRKT_DpRKT0_",
            "__ZN8firebase9firestore4util4impl12ToStringImplINSt3__16vectorINS0_4core18DocumentViewChangeENS4_9allocatorIS7_EEEEvEENS4_12basic_stringIcNS4_11char_traitsIcEENS8_IcEEEERKT_NS2_14ToStringChoiceILi5EEE",
            "__ZNK8firebase9firestore9immutable4impl8LlrbNodeINS0_5model11DocumentKeyENS0_4core18DocumentViewChangeEE10InnerEraseINS0_4util10ComparatorIS5_EEEES8_RKS5_RKT_",
            "__ZNSt3__114__split_bufferIPN8firebase9firestore6remote8internal13BufferedWriteERNS_9allocatorIS6_EEE28__construct_at_end_with_sizeINS_13move_iteratorIPS6_EEEEvT_m",
            "__ZN8firebase9firestore4util4impl10InvokeHashINS0_3api18LocalCacheSettingsEEEmRKT_",
            "__ZN8firebase9firestore4util12StringFormatIJPNS0_6remote10GrpcStreamEmEEENSt3__112basic_stringIcNS6_11char_traitsIcEENS6_9allocatorIcEEEEPKcDpRKT_",
            "__ZN8firebase9firestore6nanopb19PrintPrimitiveFieldIiEENSt3__112basic_stringIcNS3_11char_traitsIcEENS3_9allocatorIcEEEEN4absl12lts_2024011611string_viewET_ib",
            "__ZN8firebase9firestore4util4impl12ToStringImplINS0_5model8MutationEvEENSt3__112basic_stringIcNS6_11char_traitsIcEENS6_9allocatorIcEEEERKT_NS2_14ToStringChoiceILi1EEE",
            "__ZNSt3__16__treeINS_12__value_typeINS_12basic_stringIcNS_11char_traitsIcEENS_9allocatorIcEEEEN8nlohmann10basic_jsonINS_3mapENS_6vectorES7_bxydS5_NS8_14adl_serializerENSB_IhNS5_IhEEEEEEEENS_19__map_value_compareIS7_SG_NS_4lessIvEELb1EEENS5_ISG_EEE4findIA7_cEENS_15__tree_iteratorISG_PNS_11__tree_nodeISG_PvEElEERKT_",
            "__ZNKR8firebase9firestore4util8StatusOrINSt3__110unique_ptrINS0_5local18LevelDbPersistenceENS3_14default_deleteIS6_EEEEE6statusEv",
            "__ZN8nlohmann6detail7to_jsonINS_10basic_jsonINSt3__13mapENS3_6vectorENS3_12basic_stringIcNS3_11char_traitsIcEENS3_9allocatorIcEEEEbxydS9_NS_14adl_serializerENS5_IhNS9_IhEEEEEEyLi0EEEvRT_T0_",
            "__ZN4absl12lts_202401167StrJoinINSt3__111__wrap_iterIPNS2_12basic_stringIcNS2_11char_traitsIcEENS2_9allocatorIcEEEEEEEES9_T_SC_NS0_11string_viewE",
            "__ZNO8firebase9firestore4util8StatusOrINS0_3api13QuerySnapshotEE10ValueOrDieEv",
            "__ZNSt3__112__hash_tableINS_17__hash_value_typeIjPN8firebase9firestore4util4TaskEEENS_22__unordered_map_hasherIjS7_NS_4hashIjEENS_8equal_toIjEELb1EEENS_21__unordered_map_equalIjS7_SC_SA_Lb1EEENS_9allocatorIS7_EEE21__construct_node_hashIRKNS_21piecewise_construct_tEJNS_5tupleIJRKjEEENSN_IJEEEEEENS_10unique_ptrINS_11__hash_nodeIS7_PvEENS_22__hash_node_destructorINSG_ISV_EEEEEEmOT_DpOT0_",
            "__ZNSt3__114__split_bufferIPN8firebase9firestore6remote8internal13BufferedWriteERNS_9allocatorIS6_EEE18__construct_at_endINS_13move_iteratorIPS6_EEEENS_9enable_ifIXsr31__has_forward_iterator_categoryIT_EE5valueEvE4typeESG_SG_",
            "__ZNSt3__112__hash_tableIPN8firebase9firestore4util4TaskENS_4hashIS5_EENS_8equal_toIS5_EENS_9allocatorIS5_EEE4findIS5_EENS_15__hash_iteratorIPNS_11__hash_nodeIS5_PvEEEERKT_",
            "__ZN8firebase9firestore4util10make_rangeINS1_14iterator_firstINS0_9immutable4impl17SortedMapIteratorINSt3__14pairINS0_5model11DocumentKeyENS9_15MutableDocumentEEEPKSC_NS5_16LlrbNodeIteratorINS5_8LlrbNodeISA_SB_EEEEEEEEEENS1_5rangeIT_EESM_SM_",
            "__ZNSt3__16__treeINS_12__value_typeINS_12basic_stringIcNS_11char_traitsIcEENS_9allocatorIcEEEEN8nlohmann10basic_jsonINS_3mapENS_6vectorES7_bxydS5_NS8_14adl_serializerENSB_IhNS5_IhEEEEEEEENS_19__map_value_compareIS7_SG_NS_4lessIvEELb1EEENS5_ISG_EEE4findIA12_cEENS_15__tree_iteratorISG_PNS_11__tree_nodeISG_PvEElEERKT_",
            "__ZNSt3__112__hash_tableINS_17__hash_value_typeIiN8firebase9firestore5model10FieldIndexEEENS_22__unordered_map_hasherIiS6_NS_4hashIiEENS_8equal_toIiEELb1EEENS_21__unordered_map_equalIiS6_SB_S9_Lb1EEENS_9allocatorIS6_EEE21__construct_node_hashIRKNS_21piecewise_construct_tEJNS_5tupleIJRKiEEENSM_IJEEEEEENS_10unique_ptrINS_11__hash_nodeIS6_PvEENS_22__hash_node_destructorINSF_ISU_EEEEEEmOT_DpOT0_",
            "__ZNSt3__16vectorIN8nlohmann10basic_jsonINS_3mapES0_NS_12basic_stringIcNS_11char_traitsIcEENS_9allocatorIcEEEEbxydS7_NS1_14adl_serializerENS0_IhNS7_IhEEEEEENS7_ISD_EEE18__construct_at_endIPKNS1_6detail8json_refISD_EESL_EEvT_T0_m",
            "__ZN8firebase9firestore4util4impl10InvokeHashINS0_5model8MutationEEEmRKT_",
            "__ZN8firebase9firestore4util4HashIJmNS0_5model11ObjectValueEEEEmDpRKT_",
            "__ZN8firebase9firestore4util11AppendBytesILb1EEEvPNSt3__112basic_stringIcNS3_11char_traitsIcEENS3_9allocatorIcEEEEPKcm",
            "__ZNSt3__112__hash_tableINS_17__hash_value_typeIN8firebase9firestore4core6TargetENS3_5local10TargetDataEEENS_22__unordered_map_hasherIS5_S8_NS_4hashIS5_EENS_8equal_toIS5_EELb1EEENS_21__unordered_map_equalIS5_S8_SD_SB_Lb1EEENS_9allocatorIS8_EEE11__do_rehashILb1EEEvm",
            "__ZNSt3__112__hash_tableIN8firebase9firestore5model11DocumentKeyENS3_15DocumentKeyHashENS_8equal_toIS4_EENS_9allocatorIS4_EEE8__rehashILb1EEEvm",
            "__ZNSt3__112__hash_tableINS_17__hash_value_typeINS_12basic_stringIcNS_11char_traitsIcEENS_9allocatorIcEEEENS_10unique_ptrIN8firebase9firestore5local20LevelDbMutationQueueENS_14default_deleteISC_EEEEEENS_22__unordered_map_hasherIS7_SG_NS_4hashIS7_EENS_8equal_toIS7_EELb1EEENS_21__unordered_map_equalIS7_SG_SL_SJ_Lb1EEENS5_ISG_EEE25__emplace_unique_key_argsIS7_JNS_4pairIKS7_SF_EEEEENSS_INS_15__hash_iteratorIPNS_11__hash_nodeISG_PvEEEEbEERKT_DpOT0_",
            "__ZNR8firebase9firestore4util8StatusOrIN4absl12lts_202401168optionalINS0_3api22LoadBundleTaskProgressEEEE10ValueOrDieEv",
            "__ZNK8firebase9firestore9immutable4impl8LlrbNodeINS0_5model11DocumentKeyENS4_7OverlayEE6insertINS0_4util10ComparatorIS5_EEEES7_RKS5_RKS6_RKT_",
            "__ZN8firebase9firestore4util4impl12ToStringImplINSt3__112basic_stringIcNS4_11char_traitsIcEENS4_9allocatorIcEEEEvEESA_RKT_NS2_14ToStringChoiceILi2EEE",
            "__ZNSt3__16__treeINS_12__value_typeINS_12basic_stringIcNS_11char_traitsIcEENS_9allocatorIcEEEEN8nlohmann10basic_jsonINS_3mapENS_6vectorES7_bxydS5_NS8_14adl_serializerENSB_IhNS5_IhEEEEEEEENS_19__map_value_compareIS7_SG_NS_4lessIvEELb1EEENS5_ISG_EEE13__lower_boundIA10_cEENS_15__tree_iteratorISG_PNS_11__tree_nodeISG_PvEElEERKT_ST_PNS_15__tree_end_nodeIPNS_16__tree_node_baseISR_EEEE",
            "__ZN8nlohmann6detail7to_jsonINS_10basic_jsonINSt3__13mapENS3_6vectorENS3_12basic_stringIcNS3_11char_traitsIcEENS3_9allocatorIcEEEEbxydS9_NS_14adl_serializerENS5_IhNS9_IhEEEEEEiLi0EEEvRT_T0_",
            "__ZNSt3__112__hash_tableINS_17__hash_value_typeIN8firebase9firestore5model11DocumentKeyEPNS3_4util17RandomAccessQueueIS5_JNS4_15DocumentKeyHashEEE10QueueEntryEEENS_22__unordered_map_hasherIS5_SC_S8_NS_8equal_toIS5_EELb1EEENS_21__unordered_map_equalIS5_SC_SF_S8_Lb1EEENS_9allocatorISC_EEE21__construct_node_hashIRKS5_JDnEEENS_10unique_ptrINS_11__hash_nodeISC_PvEENS_22__hash_node_destructorINSJ_ISS_EEEEEEmOT_DpOT0_",
            "__ZN8firebase9firestore9immutable4impl8LlrbNodeINS0_5local20DocumentKeyReferenceENS0_4util5EmptyEE10RotateLeftEv",
            "__ZN8firebase9firestore6nanopb17PrintMessageFieldINS0_25_firestore_BundleMetadataEEENSt3__112basic_stringIcNS4_11char_traitsIcEENS4_9allocatorIcEEEEN4absl12lts_2024011611string_viewERKT_ib",
            "__ZN8nlohmann6detail9dtoa_impl18compute_boundariesIdEENS1_10boundariesET_",
            "__ZNSt3__112__hash_tableINS_17__hash_value_typeIN8firebase9firestore5model11DocumentKeyENS4_8MutationEEENS_22__unordered_map_hasherIS5_S7_NS4_15DocumentKeyHashENS_8equal_toIS5_EELb1EEENS_21__unordered_map_equalIS5_S7_SB_S9_Lb1EEENS_9allocatorIS7_EEE25__emplace_unique_key_argsIS5_JRKS5_S6_EEENS_4pairINS_15__hash_iteratorIPNS_11__hash_nodeIS7_PvEEEEbEERKT_DpOT0_",
            "__ZNSt3__112__hash_tableINS_17__hash_value_typeIN8firebase9firestore5model11DocumentKeyENS4_8MutationEEENS_22__unordered_map_hasherIS5_S7_NS4_15DocumentKeyHashENS_8equal_toIS5_EELb1EEENS_21__unordered_map_equalIS5_S7_SB_S9_Lb1EEENS_9allocatorIS7_EEE21__construct_node_hashIRKS5_JS6_EEENS_10unique_ptrINS_11__hash_nodeIS7_PvEENS_22__hash_node_destructorINSF_ISO_EEEEEEmOT_DpOT0_",
            "__ZNSt3__16__treeINS_12__value_typeINS_12basic_stringIcNS_11char_traitsIcEENS_9allocatorIcEEEEN8nlohmann10basic_jsonINS_3mapENS_6vectorES7_bxydS5_NS8_14adl_serializerENSB_IhNS5_IhEEEEEEEENS_19__map_value_compareIS7_SG_NS_4lessIvEELb1EEENS5_ISG_EEE4findIA13_cEENS_15__tree_iteratorISG_PNS_11__tree_nodeISG_PvEElEERKT_",
            "__ZN8firebase9firestore4util4impl12HashInternalIiJEEEmmRKT_DpRKT0_",
            "__ZNSt3__112__hash_tableINS_17__hash_value_typeINS_12basic_stringIcNS_11char_traitsIcEENS_9allocatorIcEEEENS_13unordered_mapIiN8firebase9firestore5model10FieldIndexENS_4hashIiEENS_8equal_toIiEENS5_INS_4pairIKiSC_EEEEEEEENS_22__unordered_map_hasherIS7_SM_NSD_IS7_EENSF_IS7_EELb1EEENS_21__unordered_map_equalIS7_SM_SP_SO_Lb1EEENS5_ISM_EEE25__emplace_unique_key_argsIS7_JRKNS_21piecewise_construct_tENS_5tupleIJRKS7_EEENSZ_IJEEEEEENSH_INS_15__hash_iteratorIPNS_11__hash_nodeISM_PvEEEEbEERKT_DpOT0_",
            "__ZNSt3__112__hash_tableINS_17__hash_value_typeIN8firebase9firestore11credentials4UserENS_10unique_ptrINS3_5local26MemoryDocumentOverlayCacheENS_14default_deleteIS8_EEEEEENS_22__unordered_map_hasherIS5_SC_NS4_8HashUserENS_8equal_toIS5_EELb1EEENS_21__unordered_map_equalIS5_SC_SG_SE_Lb1EEENS_9allocatorISC_EEE8__rehashILb1EEEvm",
            "__ZN8firebase9firestore6nanopb14PrintEnumFieldINS0_55_google_firestore_admin_v1_Index_IndexField_ArrayConfigEEENSt3__112basic_stringIcNS4_11char_traitsIcEENS4_9allocatorIcEEEEN4absl12lts_2024011611string_viewET_ib",
            "__ZNSt3__112__hash_tableINS_17__hash_value_typeINS_12basic_stringIcNS_11char_traitsIcEENS_9allocatorIcEEEENS_11__wrap_iterIPN8firebase9firestore26_google_firestore_v1_ValueEEEEENS_22__unordered_map_hasherIS7_SE_NS_4hashIS7_EENS_8equal_toIS7_EELb1EEENS_21__unordered_map_equalIS7_SE_SJ_SH_Lb1EEENS5_ISE_EEE4findIS7_EENS_15__hash_iteratorIPNS_11__hash_nodeISE_PvEEEERKT_",
            "__ZN8firebase9firestore4util20ThrowInvalidArgumentIJNSt3__112basic_stringIcNS3_11char_traitsIcEENS3_9allocatorIcEEEEmEEEvPKcDpRKT_",
            "__ZN8firebase9firestore4util4impl16RankedInvokeHashINSt3__16vectorINS0_4core18DocumentViewChangeENS4_9allocatorIS7_EEEEEEDTcl10InvokeHashdeclsr3stdE5beginfp_EEERKT_NS2_10HashChoiceILi3EEE",
            "__ZN4absl12lts_2024011618container_internal8PairArgsIRKNSt3__112basic_stringIcNS3_11char_traitsIcEENS3_9allocatorIcEEEESB_EENS3_4pairINS3_5tupleIJOT_EEENSD_IJOT0_EEEEESF_SI_",
            "__ZN4absl12lts_2024011618container_internal8PairArgsINSt3__112basic_stringIcNS3_11char_traitsIcEENS3_9allocatorIcEEEEN8firebase9firestore5model14AggregateFieldEEENS3_4pairINS3_5tupleIJOT_EEENSF_IJOT0_EEEEEONSE_ISG_SJ_EE",
            "__ZN8firebase9firestore4util8ToStringINS0_4core18DocumentViewChangeEEENSt3__112basic_stringIcNS5_11char_traitsIcEENS5_9allocatorIcEEEERKT_",
            "__ZN8firebase9firestore9immutable4impl8LlrbNodeINS0_5model11DocumentKeyENS0_4core18DocumentViewChangeEE12FixRootColorEv",
            "__ZN8firebase9firestore4util4impl16RankedInvokeHashINS0_4core5QueryEEEDTcldtfp_4HashEERKT_NS2_10HashChoiceILi0EEE",
            "__ZNSt3__112__hash_tableINS_17__hash_value_typeIN8firebase9firestore11credentials4UserENS_10unique_ptrINS3_5local26MemoryDocumentOverlayCacheENS_14default_deleteIS8_EEEEEENS_22__unordered_map_hasherIS5_SC_NS4_8HashUserENS_8equal_toIS5_EELb1EEENS_21__unordered_map_equalIS5_SC_SG_SE_Lb1EEENS_9allocatorISC_EEE25__emplace_unique_key_argsIS5_JRKS5_SB_EEENS_4pairINS_15__hash_iteratorIPNS_11__hash_nodeISC_PvEEEEbEERKT_DpOT0_",
            "__ZNSt3__112__hash_tableINS_17__hash_value_typeIN8firebase9firestore5model11DocumentKeyExEENS_22__unordered_map_hasherIS5_S6_NS4_15DocumentKeyHashENS_8equal_toIS5_EELb1EEENS_21__unordered_map_equalIS5_S6_SA_S8_Lb1EEENS_9allocatorIS6_EEE25__emplace_unique_key_argsIS5_JRKNS_21piecewise_construct_tENS_5tupleIJRKS5_EEENSL_IJEEEEEENS_4pairINS_15__hash_iteratorIPNS_11__hash_nodeIS6_PvEEEEbEERKT_DpOT0_",
            "__ZN8firebase9firestore4util12StringFormatIJxxxxEEENSt3__112basic_stringIcNS3_11char_traitsIcEENS3_9allocatorIcEEEEPKcDpRKT_",
            "__ZNSt3__112__hash_tableINS_17__hash_value_typeIN8firebase9firestore5model11DocumentKeyENS4_8MutationEEENS_22__unordered_map_hasherIS5_S7_NS4_15DocumentKeyHashENS_8equal_toIS5_EELb1EEENS_21__unordered_map_equalIS5_S7_SB_S9_Lb1EEENS_9allocatorIS7_EEE11__do_rehashILb1EEEvm",
            "__ZN8firebase9firestore4util4impl12HashInternalINSt3__16vectorINS4_12basic_stringIcNS4_11char_traitsIcEENS4_9allocatorIcEEEENS9_ISB_EEEEJEEEmmRKT_DpRKT0_",
            "__ZNSt3__16__treeINS_12__value_typeIN8firebase9firestore5model11DocumentKeyENS4_8DocumentEEENS_19__map_value_compareIS5_S7_NS_4lessIS5_EELb1EEENS_9allocatorIS7_EEE16__construct_nodeIJRKNS_21piecewise_construct_tENS_5tupleIJRKS5_EEENSJ_IJEEEEEENS_10unique_ptrINS_11__tree_nodeIS7_PvEENS_22__tree_node_destructorINSC_ISR_EEEEEEDpOT_",
            "__ZN8firebase9firestore6nanopb17PrintMessageFieldINS0_49_google_firestore_v1_TransactionOptions_ReadWriteEEENSt3__112basic_stringIcNS4_11char_traitsIcEENS4_9allocatorIcEEEEN4absl12lts_2024011611string_viewERKT_ib",
            "__ZN8firebase9firestore4util4impl12HashInternalINS0_5local12QueryPurposeEJNS0_5model15SnapshotVersionENS0_6nanopb10ByteStringEN4absl12lts_202401168optionalIiEEEEEmmRKT_DpRKT0_",
            "__ZNSt3__16__treeINS_12__value_typeIN8firebase9firestore5model9FieldPathEN4absl12lts_202401168optionalINS3_6nanopb7MessageINS3_26_google_firestore_v1_ValueEEEEEEENS_19__map_value_compareIS5_SE_NS_4lessIS5_EELb1EEENS_9allocatorISE_EEE25__emplace_unique_key_argsIS5_JRKNS_21piecewise_construct_tENS_5tupleIJRKS5_EEENSQ_IJEEEEEENS_4pairINS_15__tree_iteratorISE_PNS_11__tree_nodeISE_PvEElEEbEERKT_DpOT0_",
            "__ZNSt3__16vectorIN8firebase9firestore4core11FieldFilter8OperatorENS_9allocatorIS5_EEE18__construct_at_endIPKS5_SB_EEvT_T0_m",
            "__ZN8firebase9firestore4util17internal_statusor12PlacementNewINS0_4core12ViewSnapshotEJRKS5_EEEvPvDpOT0_",
            "__ZN8firebase9firestore4util4HashIJNS0_5model12ResourcePathEEEEmDpRKT_",
            "__ZNSt3__112__hash_tableIN8firebase9firestore5model11DocumentKeyENS3_15DocumentKeyHashENS_8equal_toIS4_EENS_9allocatorIS4_EEE21__construct_node_hashIRKS4_JEEENS_10unique_ptrINS_11__hash_nodeIS4_PvEENS_22__hash_node_destructorINS8_ISH_EEEEEEmOT_DpOT0_",
            "__ZN8firebase9firestore4util4impl16RankedInvokeHashINS0_5model12ResourcePathEEEDTcldtfp_4HashEERKT_NS2_10HashChoiceILi0EEE",
            "__ZNSt3__16__treeINS_12__value_typeIiN8firebase9firestore9immutable9SortedSetINS3_5model11DocumentKeyENS3_4util10ComparatorIS7_EEEEEENS_19__map_value_compareIiSC_NS_4lessIiEELb1EEENS_9allocatorISC_EEE16__construct_nodeIJRKNS_21piecewise_construct_tENS_5tupleIJRKiEEENSO_IJEEEEEENS_10unique_ptrINS_11__tree_nodeISC_PvEENS_22__tree_node_destructorINSH_ISW_EEEEEEDpOT_",
            "__ZN8firebase9firestore6nanopb7MessageINS0_30_firestore_client_TargetGlobalEE8TryParseEPNS1_6ReaderE",
            "__ZNSt3__16__treeINS_12__value_typeIiN8firebase9firestore4core10SyncEngine15LimboResolutionEEENS_19__map_value_compareIiS7_NS_4lessIiEELb1EEENS_9allocatorIS7_EEE14__erase_uniqueIiEEmRKT_",
            "__ZN8firebase9firestore4util12StringFormatIJNS0_4core14UserDataSourceEEEENSt3__112basic_stringIcNS5_11char_traitsIcEENS5_9allocatorIcEEEEPKcDpRKT_",
            "__ZN8firebase9firestore6nanopb14PrintEnumFieldINS0_43_google_firestore_admin_v1_Index_QueryScopeEEENSt3__112basic_stringIcNS4_11char_traitsIcEENS4_9allocatorIcEEEEN4absl12lts_2024011611string_viewET_ib",
            "__ZN8firebase9firestore4util4impl16RankedInvokeHashINS0_3api30MemoryGargabeCollectorSettingsEEEDTcldtfp_4HashEERKT_NS2_10HashChoiceILi0EEE",
            "__ZN8firebase9firestore6nanopb17PrintMessageFieldINS0_45_google_firestore_v1_WriteRequest_LabelsEntryEEENSt3__112basic_stringIcNS4_11char_traitsIcEENS4_9allocatorIcEEEEN4absl12lts_2024011611string_viewERKT_ib",
            "__ZN8firebase9firestore4util7CompareINSt3__112basic_stringIcNS3_11char_traitsIcEENS3_9allocatorIcEEEENS1_10ComparatorIS9_EEEENS1_16ComparisonResultERKT_SF_RKT0_",
            "__ZNSt3__16vectorIN8firebase9firestore5model13MutationBatchENS_9allocatorIS4_EEE18__construct_at_endIPS4_S9_EEvT_T0_m",
            "__ZN8firebase9firestore6nanopb14PrintEnumFieldINS0_57_google_firestore_v1_StructuredQuery_FieldFilter_OperatorEEENSt3__112basic_stringIcNS4_11char_traitsIcEENS4_9allocatorIcEEEEN4absl12lts_2024011611string_viewET_ib",
            "__ZNSt3__16__treeINS_12__value_typeIN4grpc10string_refES3_EENS_19__map_value_compareIS3_S4_NS_4lessIS3_EELb1EEENS_9allocatorIS4_EEE13__lower_boundIS3_EENS_15__tree_iteratorIS4_PNS_11__tree_nodeIS4_PvEElEERKT_SH_PNS_15__tree_end_nodeIPNS_16__tree_node_baseISF_EEEE",
            "__ZNSt3__112__hash_tableINS_17__hash_value_typeINS_12basic_stringIcNS_11char_traitsIcEENS_9allocatorIcEEEENS_13unordered_mapIiN8firebase9firestore5model10FieldIndexENS_4hashIiEENS_8equal_toIiEENS5_INS_4pairIKiSC_EEEEEEEENS_22__unordered_map_hasherIS7_SM_NSD_IS7_EENSF_IS7_EELb1EEENS_21__unordered_map_equalIS7_SM_SP_SO_Lb1EEENS5_ISM_EEE11__do_rehashILb1EEEvm",
            "__ZN8firebase9firestore6nanopb17PrintMessageFieldINS0_47_google_firestore_v1_StructuredQuery_ProjectionEEENSt3__112basic_stringIcNS4_11char_traitsIcEENS4_9allocatorIcEEEEN4absl12lts_2024011611string_viewERKT_ib",
            "__ZNSt3__16__treeINS_12__value_typeINS_12basic_stringIcNS_11char_traitsIcEENS_9allocatorIcEEEEN8nlohmann10basic_jsonINS_3mapENS_6vectorES7_bxydS5_NS8_14adl_serializerENSB_IhNS5_IhEEEEEEEENS_19__map_value_compareIS7_SG_NS_4lessIvEELb1EEENS5_ISG_EEE4findIA8_cEENS_15__tree_iteratorISG_PNS_11__tree_nodeISG_PvEElEERKT_",
            "__ZNSt3__16__treeINS_12__value_typeIiNS_13unordered_mapIN8firebase9firestore5model11DocumentKeyENS5_7OverlayENS5_15DocumentKeyHashENS_8equal_toIS6_EENS_9allocatorINS_4pairIKS6_S7_EEEEEEEENS_19__map_value_compareIiSH_NS_4lessIiEELb1EEENSB_ISH_EEE25__emplace_unique_key_argsIiJRKNS_21piecewise_construct_tENS_5tupleIJOiEEENSS_IJEEEEEENSC_INS_15__tree_iteratorISH_PNS_11__tree_nodeISH_PvEElEEbEERKT_DpOT0_",
            "__ZNSt3__16vectorIN8firebase9firestore4core6FilterENS_9allocatorIS4_EEE6insertINS_11__wrap_iterIPKS4_EELi0EEENS9_IPS4_EESC_T_SF_",
            "__ZNSt3__16__treeIiNS_4lessIiEENS_9allocatorIiEEE12__find_equalIiEERPNS_16__tree_node_baseIPvEERPNS_15__tree_end_nodeISA_EERKT_",
            "__ZN8firebase9firestore6nanopb17PrintMessageFieldINS0_36_google_firestore_v1_StructuredQueryEEENSt3__112basic_stringIcNS4_11char_traitsIcEENS4_9allocatorIcEEEEN4absl12lts_2024011611string_viewERKT_ib",
            "__ZN8firebase9firestore6nanopb17PrintMessageFieldINS0_41_google_firestore_v1_MapValue_FieldsEntryEEENSt3__112basic_stringIcNS4_11char_traitsIcEENS4_9allocatorIcEEEEN4absl12lts_2024011611string_viewERKT_ib",
            "__ZN8firebase9firestore4util4impl10InvokeHashINSt3__110unique_ptrINS0_3api18LocalCacheSettingsENS4_14default_deleteIS7_EEEEEEmRKT_",
            "__ZN8nlohmann6detail9dtoa_impl6grisu2IdEEvPcRiS4_T_",
            "__ZNSt3__112__hash_tableINS_17__hash_value_typeIN8firebase9firestore5model11DocumentKeyExEENS_22__unordered_map_hasherIS5_S6_NS4_15DocumentKeyHashENS_8equal_toIS5_EELb1EEENS_21__unordered_map_equalIS5_S6_SA_S8_Lb1EEENS_9allocatorIS6_EEE14__erase_uniqueIS5_EEmRKT_",
            "__ZN8firebase9firestore4util20ThrowInvalidArgumentIJNSt3__112basic_stringIcNS3_11char_traitsIcEENS3_9allocatorIcEEEEEEEvPKcDpRKT_",
            "__ZN8firebase9firestore4util12StringFormatIJNSt3__112basic_stringIcNS3_11char_traitsIcEENS3_9allocatorIcEEEEPKNS0_6remote6StreamEEEES9_PKcDpRKT_",
            "__ZN8nlohmann6detail13input_adapterIPKcEENS0_30iterator_input_adapter_factoryIT_vE12adapter_typeES5_S5_",
            "__ZN4absl12lts_2024011618container_internal13DecomposePairINS1_12raw_hash_setINS1_17FlatHashMapPolicyINSt3__112basic_stringIcNS5_11char_traitsIcEENS5_9allocatorIcEEEEN8firebase9firestore5model14AggregateFieldEEENS1_10StringHashENS1_8StringEqENS9_INS5_4pairIKSB_SF_EEEEE11FindElementEJRSL_EEEDTclsr15memory_internalE17DecomposePairImplclsr3stdE7forwardIT_Efp_Ecl8PairArgsspclsr3stdE7forwardIT0_Efp0_EEEEOSQ_DpOSR_",
            "__ZN8firebase9firestore4util12StringFormatIJxxEEENSt3__112basic_stringIcNS3_11char_traitsIcEENS3_9allocatorIcEEEEPKcDpRKT_",
            "__ZN8firebase9firestore4util20ThrowInvalidArgumentIJPKcNSt3__112basic_stringIcNS5_11char_traitsIcEENS5_9allocatorIcEEEEEEEvS4_DpRKT_",
            "__ZN8firebase9firestore6nanopb17PrintMessageFieldINS0_26_google_protobuf_TimestampEEENSt3__112basic_stringIcNS4_11char_traitsIcEENS4_9allocatorIcEEEEN4absl12lts_2024011611string_viewERKT_ib",
            "__ZNSt3__16vectorIN4grpc10ByteBufferENS_9allocatorIS2_EEE18__construct_at_endIPS2_S7_EEvT_T0_m",
            "__ZNSt3__112__hash_tableINS_10shared_ptrIN8firebase9firestore4core13EventListenerINS3_4util5EmptyEEEEENS_4hashIS9_EENS_8equal_toIS9_EENS_9allocatorIS9_EEE11__do_rehashILb1EEEvm",
            "__ZNKSt3__112__hash_tableIN8firebase9firestore5model11DocumentKeyENS3_15DocumentKeyHashENS_8equal_toIS4_EENS_9allocatorIS4_EEE4findIS4_EENS_21__hash_const_iteratorIPNS_11__hash_nodeIS4_PvEEEERKT_",
            "__ZNK8firebase9firestore9immutable4impl8LlrbNodeINS0_5model11DocumentKeyENS0_4core18DocumentViewChangeEE11InnerInsertINS0_4util10ComparatorIS5_EEEES8_RKS5_RKS7_RKT_",
            "__ZNSt3__112__hash_tableINS_17__hash_value_typeIiN8firebase9firestore5local12QueryPurposeEEENS_22__unordered_map_hasherIiS6_NS_4hashIiEENS_8equal_toIiEELb1EEENS_21__unordered_map_equalIiS6_SB_S9_Lb1EEENS_9allocatorIS6_EEE25__emplace_unique_key_argsIiJRKNS_4pairIKiS5_EEEEENSJ_INS_15__hash_iteratorIPNS_11__hash_nodeIS6_PvEEEEbEERKT_DpOT0_",
            "__ZNSt3__112__hash_tableINS_17__hash_value_typeIiNS_10shared_ptrINS_8functionIFvRKN8firebase9firestore4util12TestingHooks27ExistenceFilterMismatchInfoEEEEEEEENS_22__unordered_map_hasherIiSE_NS_4hashIiEENS_8equal_toIiEELb1EEENS_21__unordered_map_equalIiSE_SJ_SH_Lb1EEENS_9allocatorISE_EEE8__rehashILb1EEEvm",
            "__ZNSt3__112basic_stringIcNS_11char_traitsIcEENS_9allocatorIcEEE16__init_with_sizeB8ue170006IPhS7_EEvT_T0_m",
            "__ZN8firebase9firestore6nanopb17PrintMessageFieldINS0_51_google_firestore_v1_StructuredQuery_FieldReferenceEEENSt3__112basic_stringIcNS4_11char_traitsIcEENS4_9allocatorIcEEEEN4absl12lts_2024011611string_viewERKT_ib",
            "__ZNSt3__16__treeINS_12__value_typeINS_12basic_stringIcNS_11char_traitsIcEENS_9allocatorIcEEEEN8nlohmann10basic_jsonINS_3mapENS_6vectorES7_bxydS5_NS8_14adl_serializerENSB_IhNS5_IhEEEEEEEENS_19__map_value_compareIS7_SG_NS_4lessIvEELb1EEENS5_ISG_EEE4findIA17_cEENS_15__tree_iteratorISG_PNS_11__tree_nodeISG_PvEElEERKT_",
            "__ZN8firebase9firestore4util20ThrowInvalidArgumentIJEEEvPKcDpRKT_",
            "__ZNSt3__112__hash_tableINS_17__hash_value_typeIN8firebase9firestore5model11DocumentKeyENS4_17OverlayedDocumentEEENS_22__unordered_map_hasherIS5_S7_NS4_15DocumentKeyHashENS_8equal_toIS5_EELb1EEENS_21__unordered_map_equalIS5_S7_SB_S9_Lb1EEENS_9allocatorIS7_EEE21__construct_node_hashINS_4pairIKS5_S6_EEJEEENS_10unique_ptrINS_11__hash_nodeIS7_PvEENS_22__hash_node_destructorINSF_ISP_EEEEEEmOT_DpOT0_",
            "__ZNSt3__112__hash_tableINS_17__hash_value_typeIiN8firebase9firestore6remote12TargetChangeEEENS_22__unordered_map_hasherIiS6_NS_4hashIiEENS_8equal_toIiEELb1EEENS_21__unordered_map_equalIiS6_SB_S9_Lb1EEENS_9allocatorIS6_EEE21__construct_node_hashIRKNS_21piecewise_construct_tEJNS_5tupleIJRKiEEENSM_IJEEEEEENS_10unique_ptrINS_11__hash_nodeIS6_PvEENS_22__hash_node_destructorINSF_ISU_EEEEEEmOT_DpOT0_",
            "__ZN4absl12lts_2024011618container_internal13DecomposePairINS1_12raw_hash_setINS1_17FlatHashMapPolicyINSt3__112basic_stringIcNS5_11char_traitsIcEENS5_9allocatorIcEEEESB_EENS1_10StringHashENS1_8StringEqENS9_INS5_4pairIKSB_SB_EEEEE11HashElementEJRSH_EEEDTclsr15memory_internalE17DecomposePairImplclsr3stdE7forwardIT_Efp_Ecl8PairArgsspclsr3stdE7forwardIT0_Efp0_EEEEOSM_DpOSN_",
            "__ZN8firebase9firestore4util4HashIJNS0_3api30MemoryGargabeCollectorSettings12MemoryGcKindExEEEmDpRKT_",
            "__ZN8firebase9firestore4util4impl12HashInternalINS0_3api30MemoryGargabeCollectorSettingsEJEEEmmRKT_DpRKT0_",
            "__ZNSt3__16vectorIN8firebase9firestore5model11DocumentKeyENS_9allocatorIS4_EEE18__construct_at_endIPS4_S9_EEvT_T0_m",
            "__ZN8firebase9firestore4util12StringFormatIJPNS0_6remote11RemoteStoreEEEENSt3__112basic_stringIcNS6_11char_traitsIcEENS6_9allocatorIcEEEEPKcDpRKT_",
            "__ZN8firebase9firestore4util12StringFormatIJU8__strongP7NSErrorEEENSt3__112basic_stringIcNS6_11char_traitsIcEENS6_9allocatorIcEEEEPKcDpRKT_",
            "__ZN8firebase9firestore4util7CompareINS0_5model9TypeOrderENS1_10ComparatorIS4_EEEENS1_16ComparisonResultERKT_SA_RKT0_",
            "__ZN4absl12lts_2024011616strings_internal13JoinAlgorithmINSt3__111__wrap_iterIPKN8firebase9firestore5model14MutationResultEEERZNS6_4util4impl12ToStringImplINS3_6vectorIS8_NS3_9allocatorIS8_EEEEvEENS3_12basic_stringIcNS3_11char_traitsIcEENSG_IcEEEERKT_NSD_14ToStringChoiceILi5EEEEUlPSN_RS9_E_EESN_SO_SO_NS0_11string_viewEOT0_",
            "__ZN8firebase9firestore4util4impl12ToStringImplINS0_9immutable9SortedMapINS0_5model11DocumentKeyENS0_4core18DocumentViewChangeENS1_10ComparatorIS7_EEEEvEENSt3__112basic_stringIcNSD_11char_traitsIcEENSD_9allocatorIcEEEERKT_NS2_14ToStringChoiceILi4EEE",
            "__ZNSt3__112__hash_tableINS_17__hash_value_typeIN8firebase9firestore5model11DocumentKeyENS4_15SnapshotVersionEEENS_22__unordered_map_hasherIS5_S7_NS4_15DocumentKeyHashENS_8equal_toIS5_EELb1EEENS_21__unordered_map_equalIS5_S7_SB_S9_Lb1EEENS_9allocatorIS7_EEE25__emplace_unique_key_argsIS5_JRKS5_RKS6_EEENS_4pairINS_15__hash_iteratorIPNS_11__hash_nodeIS7_PvEEEEbEERKT_DpOT0_",
            "__ZN8firebase9firestore6nanopb17PrintMessageFieldINS0_35_google_firestore_v1_DocumentDeleteEEENSt3__112basic_stringIcNS4_11char_traitsIcEENS4_9allocatorIcEEEEN4absl12lts_2024011611string_viewERKT_ib",
            "__ZNSt3__112__hash_tableINS_17__hash_value_typeIN8firebase9firestore11credentials4UserENS_13unordered_mapIiNS_8functionIFvNS3_4util6StatusEEEENS_4hashIiEENS_8equal_toIiEENS_9allocatorINS_4pairIKiSB_EEEEEEEENS_22__unordered_map_hasherIS5_SM_NS4_8HashUserENSE_IS5_EELb1EEENS_21__unordered_map_equalIS5_SM_SP_SO_Lb1EEENSG_ISM_EEE25__emplace_unique_key_argsIS5_JRKNS_21piecewise_construct_tENS_5tupleIJRKS5_EEENSZ_IJEEEEEENSH_INS_15__hash_iteratorIPNS_11__hash_nodeISM_PvEEEEbEERKT_DpOT0_",
            "__ZNSt3__16__treeINS_12__value_typeINS_12basic_stringIcNS_11char_traitsIcEENS_9allocatorIcEEEEN8firebase9firestore6nanopb7MessageINS9_26_google_firestore_v1_ValueEEEEENS_19__map_value_compareIS7_SE_NS_4lessIS7_EELb1EEENS5_ISE_EEE16__construct_nodeIJRKNS_21piecewise_construct_tENS_5tupleIJRKS7_EEENSP_IJEEEEEENS_10unique_ptrINS_11__tree_nodeISE_PvEENS_22__tree_node_destructorINS5_ISX_EEEEEEDpOT_",
            "__ZNSt3__16vectorIN8firebase9firestore5model10FieldIndexENS_9allocatorIS4_EEE18__construct_at_endIPS4_S9_EEvT_T0_m",
            "__ZNSt3__16__treeIN8firebase9firestore5index10IndexEntryENS_4lessIS4_EENS_9allocatorIS4_EEE12__find_equalIS4_EERPNS_16__tree_node_baseIPvEERPNS_15__tree_end_nodeISE_EERKT_",
            "__ZN4absl12lts_2024011615c_linear_searchINSt3__16vectorIN8firebase9firestore4util7TimerIdENS2_9allocatorIS7_EEEERKS7_EEbRKT_OT0_",
            "__ZNSt3__16vectorIN8firebase9firestore5local19LevelDbIndexManager10IndexRangeENS_9allocatorIS5_EEE6insertINS_11__wrap_iterIPS5_EELi0EEESC_NSA_IPKS5_EET_SG_",
            "__ZNK8firebase9firestore9immutable4impl8LlrbNodeINS0_5model11DocumentKeyENS4_8DocumentEE11InnerInsertINS0_4util10ComparatorIS5_EEEES7_RKS5_RKS6_RKT_",
            "__ZN8firebase9firestore6nanopb17PrintMessageFieldINS0_20_google_api_HttpRuleEEENSt3__112basic_stringIcNS4_11char_traitsIcEENS4_9allocatorIcEEEEN4absl12lts_2024011611string_viewERKT_ib",
            "__ZNSt3__16__treeINS_12__value_typeINS_12basic_stringIcNS_11char_traitsIcEENS_9allocatorIcEEEEN8nlohmann10basic_jsonINS_3mapENS_6vectorES7_bxydS5_NS8_14adl_serializerENSB_IhNS5_IhEEEEEEEENS_19__map_value_compareIS7_SG_NS_4lessIvEELb1EEENS5_ISG_EEE25__emplace_unique_key_argsIS7_JS7_SF_EEENS_4pairINS_15__tree_iteratorISG_PNS_11__tree_nodeISG_PvEElEEbEERKT_DpOT0_",
            "__ZN8firebase9firestore4util4impl12HashInternalINSt3__16vectorINS0_4core18DocumentViewChangeENS4_9allocatorIS7_EEEEJbbbbEEEmmRKT_DpRKT0_",
            "__ZNSt3__112__hash_tableINS_17__hash_value_typeIN8firebase9firestore5model11DocumentKeyENS3_6bundle23BundledDocumentMetadataEEENS_22__unordered_map_hasherIS5_S8_NS4_15DocumentKeyHashENS_8equal_toIS5_EELb1EEENS_21__unordered_map_equalIS5_S8_SC_SA_Lb1EEENS_9allocatorIS8_EEE8__rehashILb1EEEvm",
            "__ZN4absl12lts_202401169StrFormatIJjEEENSt3__112basic_stringIcNS2_11char_traitsIcEENS2_9allocatorIcEEEERKNS0_19str_format_internal18FormatSpecTemplateIJXspclsr19str_format_internalE14ArgumentToConvIT_EEEEEEDpRKSB_",
            "__ZN8firebase9firestore6nanopb9MakeArrayINS0_26_google_firestore_v1_WriteEEEPT_j",
            "__ZN8firebase9firestore4util17ThrowIllegalStateIJEEEvPKcDpRKT_",
            "__ZNSt3__112__hash_tableINS_17__hash_value_typeIiNS_10shared_ptrINS_8functionIFvRKN8firebase9firestore4util12TestingHooks27ExistenceFilterMismatchInfoEEEEEEEENS_22__unordered_map_hasherIiSE_NS_4hashIiEENS_8equal_toIiEELb1EEENS_21__unordered_map_equalIiSE_SJ_SH_Lb1EEENS_9allocatorISE_EEE25__emplace_unique_key_argsIiJNS_4pairIKiSD_EEEEENSR_INS_15__hash_iteratorIPNS_11__hash_nodeISE_PvEEEEbEERKT_DpOT0_",
            "__ZNK8firebase9firestore9immutable4impl8LlrbNodeINS0_5model11DocumentKeyENS0_4util5EmptyEE6insertINS6_10ComparatorIS5_EEEES8_RKS5_RKS7_RKT_",
            "__ZN8firebase9firestore6nanopb7MessageINS0_21_firestore_NamedQueryEE8TryParseEPNS1_6ReaderE",
            "__ZNSt3__112__hash_tableINS_17__hash_value_typeIiNS_8functionIFvN8firebase9firestore4util6StatusEEEEEENS_22__unordered_map_hasherIiS9_NS_4hashIiEENS_8equal_toIiEELb1EEENS_21__unordered_map_equalIiS9_SE_SC_Lb1EEENS_9allocatorIS9_EEE8__rehashILb1EEEvm",
            "__ZNSt3__112__hash_tableINS_17__hash_value_typeIiN8firebase9firestore5local10TargetDataEEENS_22__unordered_map_hasherIiS6_NS_4hashIiEENS_8equal_toIiEELb1EEENS_21__unordered_map_equalIiS6_SB_S9_Lb1EEENS_9allocatorIS6_EEE21__construct_node_hashIRKNS_21piecewise_construct_tEJNS_5tupleIJRKiEEENSM_IJEEEEEENS_10unique_ptrINS_11__hash_nodeIS6_PvEENS_22__hash_node_destructorINSF_ISU_EEEEEEmOT_DpOT0_",
            "__ZNSt3__16__treeIN8firebase9firestore5model12ResourcePathENS_4lessIS4_EENS_9allocatorIS4_EEE16__construct_nodeIJRKS4_EEENS_10unique_ptrINS_11__tree_nodeIS4_PvEENS_22__tree_node_destructorINS7_ISG_EEEEEEDpOT_",
            "__ZNSt3__112__hash_tableINS_17__hash_value_typeIN8firebase9firestore5model11DocumentKeyENS4_7OverlayEEENS_22__unordered_map_hasherIS5_S7_NS4_15DocumentKeyHashENS_8equal_toIS5_EELb1EEENS_21__unordered_map_equalIS5_S7_SB_S9_Lb1EEENS_9allocatorIS7_EEE21__construct_node_hashIRKNS_4pairIKS5_S6_EEJEEENS_10unique_ptrINS_11__hash_nodeIS7_PvEENS_22__hash_node_destructorINSF_ISR_EEEEEEmOT_DpOT0_",
            "__ZN8firebase9firestore4util10make_rangeINS1_14iterator_firstINS0_9immutable4impl17SortedMapIteratorINSt3__14pairINS0_5local20DocumentKeyReferenceENS1_5EmptyEEEPKSC_NS5_16LlrbNodeIteratorINS5_8LlrbNodeISA_SB_EEEEEEEEEENS1_5rangeIT_EESM_SM_",
            "__ZN8firebase9firestore4util12StringFormatIJNS0_5local12QueryPurposeES4_EEENSt3__112basic_stringIcNS5_11char_traitsIcEENS5_9allocatorIcEEEEPKcDpRKT_",
            "__ZN8firebase9firestore6nanopb7MessageINS0_34_google_firestore_v1_WriteResponseEE8TryParseEPNS1_6ReaderE",
            "__ZNSt3__16__treeINS_12__value_typeINS_12basic_stringIcNS_11char_traitsIcEENS_9allocatorIcEEEEN8nlohmann10basic_jsonINS_3mapENS_6vectorES7_bxydS5_NS8_14adl_serializerENSB_IhNS5_IhEEEEEEEENS_19__map_value_compareIS7_SG_NS_4lessIvEELb1EEENS5_ISG_EEE13__lower_boundIA7_cEENS_15__tree_iteratorISG_PNS_11__tree_nodeISG_PvEElEERKT_ST_PNS_15__tree_end_nodeIPNS_16__tree_node_baseISR_EEEE",
            "__ZNSt3__112__hash_tableINS_17__hash_value_typeINS_12basic_stringIcNS_11char_traitsIcEENS_9allocatorIcEEEENS_3setIN8firebase9firestore5model12ResourcePathENS_4lessISC_EENS5_ISC_EEEEEENS_22__unordered_map_hasherIS7_SH_NS_4hashIS7_EENS_8equal_toIS7_EELb1EEENS_21__unordered_map_equalIS7_SH_SM_SK_Lb1EEENS5_ISH_EEE25__emplace_unique_key_argsIS7_JRKNS_21piecewise_construct_tENS_5tupleIJRKS7_EEENSW_IJEEEEEENS_4pairINS_15__hash_iteratorIPNS_11__hash_nodeISH_PvEEEEbEERKT_DpOT0_",
            "__ZNSt3__112__hash_tableINS_17__hash_value_typeIN8firebase9firestore11credentials4UserENS_10unique_ptrINS3_5local19MemoryMutationQueueENS_14default_deleteIS8_EEEEEENS_22__unordered_map_hasherIS5_SC_NS4_8HashUserENS_8equal_toIS5_EELb1EEENS_21__unordered_map_equalIS5_SC_SG_SE_Lb1EEENS_9allocatorISC_EEE8__rehashILb1EEEvm",
            "__ZN8firebase9firestore4util12StringFormatIJNSt3__112basic_stringIcNS3_11char_traitsIcEENS3_9allocatorIcEEEEEEES9_PKcDpRKT_",
            "__ZN4absl12lts_2024011616numbers_internal16safe_strtoi_baseIjEEbNS0_11string_viewEPT_i",
            "__ZN8firebase9firestore4util12StringFormatIJNSt3__112basic_stringIcNS3_11char_traitsIcEENS3_9allocatorIcEEEEmEEES9_PKcDpRKT_",
            "__ZN8firebase9firestore4util11AppendBytesILb0EEEvPNSt3__112basic_stringIcNS3_11char_traitsIcEENS3_9allocatorIcEEEEPKcm",
            "__ZN8firebase9firestore9immutable4impl8LlrbNodeINS0_5model8DocumentENS0_4util5EmptyEE11MoveRedLeftEv",
            "__ZN8firebase9firestore4util12StringFormatIJNSt3__112basic_stringIcNS3_11char_traitsIcEENS3_9allocatorIcEEEES9_S9_EEES9_PKcDpRKT_",
            "__ZNSt3__16vectorIN8firebase9firestore5model14AggregateFieldENS_9allocatorIS4_EEE18__construct_at_endIPKS4_SA_EEvT_T0_m",
            "__ZN8firebase9firestore6nanopb17PrintMessageFieldINS0_46_google_firestore_v1_ListenRequest_LabelsEntryEEENSt3__112basic_stringIcNS4_11char_traitsIcEENS4_9allocatorIcEEEEN4absl12lts_2024011611string_viewERKT_ib",
            "__ZNSt3__112__hash_tableINS_17__hash_value_typeIN8firebase9firestore5model11DocumentKeyEN4absl12lts_202401168optionalINS4_9FieldMaskEEEEENS_22__unordered_map_hasherIS5_SB_NS4_15DocumentKeyHashENS_8equal_toIS5_EELb1EEENS_21__unordered_map_equalIS5_SB_SF_SD_Lb1EEENS_9allocatorISB_EEE21__construct_node_hashIRKNS_4pairIKS5_SA_EEJEEENS_10unique_ptrINS_11__hash_nodeISB_PvEENS_22__hash_node_destructorINSJ_ISV_EEEEEEmOT_DpOT0_",
            "__ZN8firebase9firestore4core18AsyncEventListenerINS0_4util5EmptyEE6CreateENSt3__110shared_ptrINS3_8ExecutorEEEONS6_10unique_ptrINS1_13EventListenerIS4_EENS6_14default_deleteISC_EEEE",
            "__ZN8nlohmann6detail9from_jsonINS_10basic_jsonINSt3__13mapENS3_6vectorENS3_12basic_stringIcNS3_11char_traitsIcEENS3_9allocatorIcEEEEbxydS9_NS_14adl_serializerENS5_IhNS9_IhEEEEEEEEvRKT_RNSG_17number_unsigned_tE",
            "__ZN8firebase9firestore4util4impl11CompareImplINS0_5model11DocumentKeyEvEENS1_16ComparisonResultERKT_S9_NS2_13CompareChoiceILi1EEE",
            "__ZN4absl12lts_2024011610SimpleAtoiIiEEbNS0_11string_viewEPT_",
            "__ZN8firebase9firestore4util12StringFormatIJiEEENSt3__112basic_stringIcNS3_11char_traitsIcEENS3_9allocatorIcEEEEPKcDpRKT_",
            "__ZNSt3__112__hash_tableINS_17__hash_value_typeIiNS_10shared_ptrINS_8functionIFvRKN8firebase9firestore4util12TestingHooks27ExistenceFilterMismatchInfoEEEEEEEENS_22__unordered_map_hasherIiSE_NS_4hashIiEENS_8equal_toIiEELb1EEENS_21__unordered_map_equalIiSE_SJ_SH_Lb1EEENS_9allocatorISE_EEE11__do_rehashILb1EEEvm",
            "__ZNSt3__112__hash_tableINS_17__hash_value_typeIiN8firebase9firestore6remote11TargetStateEEENS_22__unordered_map_hasherIiS6_NS_4hashIiEENS_8equal_toIiEELb1EEENS_21__unordered_map_equalIiS6_SB_S9_Lb1EEENS_9allocatorIS6_EEE8__rehashILb1EEEvm",
            "__ZNKR8firebase9firestore4util8StatusOrINS0_3api16DocumentSnapshotEE6statusEv",
            "__ZN8firebase9firestore4util4impl16RankedInvokeHashINS0_3api16SnapshotMetadataEEEDTcldtfp_4HashEERKT_NS2_10HashChoiceILi0EEE",
            "__ZN8firebase9firestore9immutable4impl8LlrbNodeINS0_5local20DocumentKeyReferenceENS0_4util5EmptyEE5FixUpEv",
            "__ZN8nlohmann6detail7to_jsonINS_10basic_jsonINSt3__13mapENS3_6vectorENS3_12basic_stringIcNS3_11char_traitsIcEENS3_9allocatorIcEEEEbxydS9_NS_14adl_serializerENS5_IhNS9_IhEEEEEESB_Li0EEEvRT_RKT0_",
            "__ZN4absl12lts_2024011616strings_internal13JoinAlgorithmINSt3__111__wrap_iterIPKN8firebase9firestore5model8MutationEEERZNS6_4util4impl12ToStringImplINS3_6vectorIS8_NS3_9allocatorIS8_EEEEvEENS3_12basic_stringIcNS3_11char_traitsIcEENSG_IcEEEERKT_NSD_14ToStringChoiceILi5EEEEUlPSN_RS9_E_EESN_SO_SO_NS0_11string_viewEOT0_",
            "__ZNSt3__114__split_bufferIN8firebase9firestore4core6FilterERNS_9allocatorIS4_EEE28__construct_at_end_with_sizeINS_11__wrap_iterIPKS4_EEEEvT_m",
            "__ZN8firebase9firestore4core13EventListenerINS1_12ViewSnapshotEE6CreateENSt3__18functionIFvNS0_4util8StatusOrIS3_EEEEE",
            "__ZN4absl12lts_2024011628container_algorithm_internal5c_endIKN8firebase9firestore9immutable9SortedSetINS4_5model8DocumentENS7_18DocumentComparatorEEEEEDTcl5beginclsr3stdE7declvalIRT_EEEESD_",
            "__ZN8firebase9firestore9immutable4impl8LlrbNodeINS0_5model11DocumentKeyENS4_15MutableDocumentEE9RemoveMinEv",
            "__ZN4absl12lts_2024011613hash_internal13HashStateBaseINS1_15MixingHashStateEE7combineINS0_11string_viewEJEEES3_S3_RKT_DpRKT0_",
            "__ZN8firebase9firestore4util4HashIJNSt3__112basic_stringIcNS3_11char_traitsIcEENS3_9allocatorIcEEEEbbxNS3_10unique_ptrINS0_3api18LocalCacheSettingsENS3_14default_deleteISC_EEEEEEEmDpRKT_",
            "__ZN8firebase9firestore4util20ThrowInvalidArgumentIJNS0_4core14UserDataSourceEEEEvPKcDpRKT_",
            "__ZN4absl12lts_2024011613hash_internal13AbslHashValueINS1_15MixingHashStateEEET_S4_NS0_11string_viewE",
            "__ZNSt3__112__hash_tableINS_17__hash_value_typeIN8firebase9firestore5model11DocumentKeyEPNS4_15MutableDocumentEEENS_22__unordered_map_hasherIS5_S8_NS4_15DocumentKeyHashENS_8equal_toIS5_EELb1EEENS_21__unordered_map_equalIS5_S8_SC_SA_Lb1EEENS_9allocatorIS8_EEE8__rehashILb1EEEvm",
            "__ZNSt3__16__treeIN8firebase9firestore5model9FieldPathENS_4lessIS4_EENS_9allocatorIS4_EEE30__emplace_hint_unique_key_argsIS4_JRKS4_EEENS_4pairINS_15__tree_iteratorIS4_PNS_11__tree_nodeIS4_PvEElEEbEENS_21__tree_const_iteratorIS4_SI_lEERKT_DpOT0_",
            "__ZN8firebase9firestore6nanopb17PrintMessageFieldINS0_41_google_firestore_v1_Document_FieldsEntryEEENSt3__112basic_stringIcNS4_11char_traitsIcEENS4_9allocatorIcEEEEN4absl12lts_2024011611string_viewERKT_ib",
            "__ZNSt3__114__split_bufferIPPKN8firebase9firestore9immutable4impl8LlrbNodeINS2_5model11DocumentKeyENS2_4core18DocumentViewChangeEEERNS_9allocatorISD_EEE18__construct_at_endINS_13move_iteratorIPSD_EEEENS_9enable_ifIXsr31__has_forward_iterator_categoryIT_EE5valueEvE4typeESN_SN_",
            "__ZN8firebase9firestore4util12StringFormatIJNSt3__112basic_stringIcNS3_11char_traitsIcEENS3_9allocatorIcEEEEPKcEEES9_SB_DpRKT_",
            "__ZN8firebase9firestore4util17internal_statusor12PlacementNewINS1_4PathEJS4_EEEvPvDpOT0_",
            "__ZN8firebase9firestore4util17internal_statusor12PlacementNewINS1_6StatusEJS4_EEEvPvDpOT0_",
            "__ZN8firebase9firestore4util4impl16RankedInvokeHashINS0_5model9FieldPathEEEDTcldtfp_4HashEERKT_NS2_10HashChoiceILi0EEE",
            "__ZN8firebase9firestore9immutable4impl8LlrbNodeINS0_5model11DocumentKeyENS0_4core18DocumentViewChangeEE12MoveRedRightEv",
            "__ZN4absl12lts_202401169StrFormatIJdEEENSt3__112basic_stringIcNS2_11char_traitsIcEENS2_9allocatorIcEEEERKNS0_19str_format_internal18FormatSpecTemplateIJXspclsr19str_format_internalE14ArgumentToConvIT_EEEEEEDpRKSB_",
            "__ZNSt3__16__treeINS_12__value_typeINS_12basic_stringIcNS_11char_traitsIcEENS_9allocatorIcEEEEN8nlohmann10basic_jsonINS_3mapENS_6vectorES7_bxydS5_NS8_14adl_serializerENSB_IhNS5_IhEEEEEEEENS_19__map_value_compareIS7_SG_NS_4lessIvEELb1EEENS5_ISG_EEE13__lower_boundIA12_cEENS_15__tree_iteratorISG_PNS_11__tree_nodeISG_PvEElEERKT_ST_PNS_15__tree_end_nodeIPNS_16__tree_node_baseISR_EEEE",
            "__ZN8firebase9firestore4util4impl12HashInternalINS0_5model8Mutation4TypeEJNS4_11DocumentKeyENS4_12PreconditionENSt3__16vectorINS4_14FieldTransformENS9_9allocatorISB_EEEEEEEmmRKT_DpRKT0_",
            "__ZN8firebase9firestore4util8ToStringINSt3__16vectorINS3_12basic_stringIcNS3_11char_traitsIcEENS3_9allocatorIcEEEENS8_ISA_EEEEEESA_RKT_",
            "__ZN8firebase9firestore4util12StringFormatIJNS0_5model9TypeOrderEEEENSt3__112basic_stringIcNS5_11char_traitsIcEENS5_9allocatorIcEEEEPKcDpRKT_",
            "__ZNSt3__16vectorIN8firebase9firestore4core6FilterENS_9allocatorIS4_EEE18__construct_at_endINS_13move_iteratorINS_11__wrap_iterIPKS4_EEEESE_EEvT_T0_m",
            "__ZNSt3__15dequeIPKN8firebase9firestore9immutable4impl8LlrbNodeINS2_5model11DocumentKeyENS2_4core18DocumentViewChangeEEENS_9allocatorISC_EEE8__appendINS_16__deque_iteratorISC_PKSC_RSI_PKSJ_lLl512EEEEEvT_SO_PNS_9enable_ifIXsr31__has_forward_iterator_categoryISO_EE5valueEvE4typeE",
            "__ZN4absl12lts_2024011618container_internal18DeallocateStandardILm8EEEvRNS1_12CommonFieldsERKNS1_15PolicyFunctionsE",
            "__ZNSt3__114__split_bufferIPN8firebase9firestore4util17RandomAccessQueueINS2_5model11DocumentKeyEJNS5_15DocumentKeyHashEEE10QueueEntryERNS_9allocatorISA_EEE18__construct_at_endINS_13move_iteratorIPSA_EEEENS_9enable_ifIXsr31__has_forward_iterator_categoryIT_EE5valueEvE4typeESK_SK_",
            "__ZNSt3__16__treeINS_12__value_typeINS_12basic_stringIcNS_11char_traitsIcEENS_9allocatorIcEEEEN8firebase9firestore6nanopb7MessageINS9_26_google_firestore_v1_ValueEEEEENS_19__map_value_compareIS7_SE_NS_4lessIS7_EELb1EEENS5_ISE_EEE12__find_equalIS7_EERPNS_16__tree_node_baseIPvEERPNS_15__tree_end_nodeISP_EERKT_",
            "__ZN8firebase9firestore4util4HashIJNS0_3api18LocalCacheSettings4KindENS3_30MemoryGargabeCollectorSettingsEEEEmDpRKT_",
            "__ZNSt3__16__treeIN8firebase9firestore4core11FieldFilterENS2_5model18TargetIndexMatcher21FieldFilterComparatorENS_9allocatorIS4_EEE25__emplace_unique_key_argsIS4_JRKS4_EEENS_4pairINS_15__tree_iteratorIS4_PNS_11__tree_nodeIS4_PvEElEEbEERKT_DpOT0_",
            "__ZN4absl12lts_2024011628container_algorithm_internal7c_beginIKNSt3__16vectorIN8firebase9firestore4core11FieldFilter8OperatorENS3_9allocatorIS9_EEEEEEDTcl5beginclsr3stdE7declvalIRT_EEEESF_",
            "__ZN8firebase9firestore4util4impl12HashInternalIbJbEEEmmRKT_DpRKT0_",
            "__ZN4absl12lts_2024011616strings_internal9JoinRangeINSt3__16vectorIN8firebase9firestore5model14FieldTransformENS3_9allocatorIS8_EEEERZNS6_4util4impl12ToStringImplISB_vEENS3_12basic_stringIcNS3_11char_traitsIcEENS9_IcEEEERKT_NSD_14ToStringChoiceILi5EEEEUlPSJ_RKS8_E_EESJ_SM_NS0_11string_viewEOT0_",
            "__ZN8firebase9firestore4util4impl12HashInternalINSt3__110unique_ptrINS0_3api18LocalCacheSettingsENS4_14default_deleteIS7_EEEEJEEEmmRKT_DpRKT0_",
            "__ZNKSt3__115basic_stringbufIcNS_11char_traitsIcEENS_9allocatorIcEEE3strEv",
            "__ZN8firebase9firestore6nanopb17MakeSharedMessageINS0_31_google_firestore_v1_ArrayValueEEENS1_13SharedMessageIT_EERKS5_",
            "__ZN4absl12lts_2024011616strings_internal9JoinRangeIN8firebase9firestore9immutable9SortedMapINS4_5model11DocumentKeyENS4_4core18DocumentViewChangeENS4_4util10ComparatorIS8_EEEERZNSB_4impl12ToStringImplISE_vEENSt3__112basic_stringIcNSH_11char_traitsIcEENSH_9allocatorIcEEEERKT_NSF_14ToStringChoiceILi4EEEEUlPSN_RKNSH_4pairIS8_SA_EEE_EESN_SQ_NS0_11string_viewEOT0_",
            "__ZNSt3__114__split_bufferIPPKN8firebase9firestore9immutable4impl8LlrbNodeINS2_5model11DocumentKeyENS6_8DocumentEEERNS_9allocatorISC_EEE18__construct_at_endINS_13move_iteratorIPSC_EEEENS_9enable_ifIXsr31__has_forward_iterator_categoryIT_EE5valueEvE4typeESM_SM_",
            "__ZNSt3__112__hash_tableINS_17__hash_value_typeIiNS_8functionIFvN8firebase9firestore4util6StatusEEEEEENS_22__unordered_map_hasherIiS9_NS_4hashIiEENS_8equal_toIiEELb1EEENS_21__unordered_map_equalIiS9_SE_SC_Lb1EEENS_9allocatorIS9_EEE11__do_rehashILb1EEEvm",
            "__ZN8firebase9firestore4util12StringFormatIJPKcNSt3__112basic_stringIcNS5_11char_traitsIcEENS5_9allocatorIcEEEEEEESB_S4_DpRKT_",
            "__ZN4absl12lts_2024011616strings_internal9JoinRangeINSt3__111__wrap_iterIPNS3_12basic_stringIcNS3_11char_traitsIcEENS3_9allocatorIcEEEEEEEESA_T_SD_NS0_11string_viewE",
            "__ZN8firebase9firestore4util4impl12HashInternalINS0_5model11DocumentKeyEJEEEmmRKT_DpRKT0_",
            "__ZNSt3__112__hash_tableINS_17__hash_value_typeIN8firebase9firestore5model11DocumentKeyENS4_17OverlayedDocumentEEENS_22__unordered_map_hasherIS5_S7_NS4_15DocumentKeyHashENS_8equal_toIS5_EELb1EEENS_21__unordered_map_equalIS5_S7_SB_S9_Lb1EEENS_9allocatorIS7_EEE8__rehashILb1EEEvm",
            "__ZNSt3__16__treeIN8firebase9firestore5model9FieldPathENS_4lessIS4_EENS_9allocatorIS4_EEE12__find_equalIS4_EERPNS_16__tree_node_baseIPvEENS_21__tree_const_iteratorIS4_PNS_11__tree_nodeIS4_SC_EElEERPNS_15__tree_end_nodeISE_EESF_RKT_",
            "__ZN8firebase9firestore4util12StringFormatIJNSt3__112basic_stringIcNS3_11char_traitsIcEENS3_9allocatorIcEEEEmmEEES9_PKcDpRKT_",
            "__ZN8firebase9firestore4util4impl10InvokeHashINS0_4core12ViewSnapshotEEEmRKT_",
            "__ZNSt3__114__split_bufferIN8firebase9firestore5local19LevelDbIndexManager10IndexRangeERNS_9allocatorIS5_EEE28__construct_at_end_with_sizeINS_11__wrap_iterIPS5_EEEEvT_m",
            "__ZN8firebase9firestore4util12StringFormatIJmmEEENSt3__112basic_stringIcNS3_11char_traitsIcEENS3_9allocatorIcEEEEPKcDpRKT_",
            "__ZNSt3__112__hash_tableINS_17__hash_value_typeINS_12basic_stringIcNS_11char_traitsIcEENS_9allocatorIcEEEENS_10unique_ptrIN8firebase9firestore5local20LevelDbMutationQueueENS_14default_deleteISC_EEEEEENS_22__unordered_map_hasherIS7_SG_NS_4hashIS7_EENS_8equal_toIS7_EELb1EEENS_21__unordered_map_equalIS7_SG_SL_SJ_Lb1EEENS5_ISG_EEE11__do_rehashILb1EEEvm",
            "__ZN8firebase9firestore4util4impl16RankedInvokeHashINS0_3api14DocumentChange4TypeEvEEmT_NS2_10HashChoiceILi5EEE",
            "__ZN4absl12lts_202401167StrJoinIN8firebase9firestore9immutable9SortedSetINS3_5model8DocumentENS6_18DocumentComparatorEEEZNS3_4util4impl12ToStringImplIS9_vEENSt3__112basic_stringIcNSD_11char_traitsIcEENSD_9allocatorIcEEEERKT_NSB_14ToStringChoiceILi5EEEEUlPSJ_RKS7_E_EESJ_SM_NS0_11string_viewEOT0_",
            "__ZN8firebase9firestore4util8ToStringINSt3__112basic_stringIcNS3_11char_traitsIcEENS3_9allocatorIcEEEEEES9_RKT_",
            "__ZN8nlohmann6detail13input_adapterINSt3__111__wrap_iterIPKcEEEENS0_30iterator_input_adapter_factoryIT_vE12adapter_typeES8_S8_",
            "__ZNSt3__112__hash_tableINS_17__hash_value_typeIN8firebase9firestore11credentials4UserENS_13unordered_mapIiNS_8functionIFvNS3_4util6StatusEEEENS_4hashIiEENS_8equal_toIiEENS_9allocatorINS_4pairIKiSB_EEEEEEEENS_22__unordered_map_hasherIS5_SM_NS4_8HashUserENSE_IS5_EELb1EEENS_21__unordered_map_equalIS5_SM_SP_SO_Lb1EEENSG_ISM_EEE8__rehashILb1EEEvm",
            "__ZNSt3__112__hash_tableINS_17__hash_value_typeIN8firebase9firestore5model11DocumentKeyENS4_15SnapshotVersionEEENS_22__unordered_map_hasherIS5_S7_NS4_15DocumentKeyHashENS_8equal_toIS5_EELb1EEENS_21__unordered_map_equalIS5_S7_SB_S9_Lb1EEENS_9allocatorIS7_EEE21__construct_node_hashIRKNS_21piecewise_construct_tEJNS_5tupleIJRKS5_EEENSM_IJEEEEEENS_10unique_ptrINS_11__hash_nodeIS7_PvEENS_22__hash_node_destructorINSF_ISU_EEEEEEmOT_DpOT0_",
            "__ZNSt3__112__hash_tableINS_17__hash_value_typeIiNS_6vectorINS_8functionIFvN8firebase9firestore4util6StatusEEEENS_9allocatorIS9_EEEEEENS_22__unordered_map_hasherIiSD_NS_4hashIiEENS_8equal_toIiEELb1EEENS_21__unordered_map_equalIiSD_SI_SG_Lb1EEENSA_ISD_EEE11__do_rehashILb1EEEvm",
            "__ZNSt3__16__treeINS_12basic_stringIcNS_11char_traitsIcEENS_9allocatorIcEEEENS_4lessIS6_EENS4_IS6_EEE12__find_equalIS6_EERPNS_16__tree_node_baseIPvEERPNS_15__tree_end_nodeISF_EERKT_",
            "__ZNSt3__16vectorIN8firebase9firestore5local19LevelDbIndexManager10IndexRangeENS_9allocatorIS5_EEE18__construct_at_endINS_11__wrap_iterIPS5_EESC_EEvT_T0_m",
            "__ZN8firebase9firestore4util4impl10InvokeHashINS0_5model14AggregateFieldEEEmRKT_",
            "__ZNSt3__112__hash_tableINS_10shared_ptrIN8firebase9firestore4core13EventListenerINS3_4util5EmptyEEEEENS_4hashIS9_EENS_8equal_toIS9_EENS_9allocatorIS9_EEE4findIS9_EENS_15__hash_iteratorIPNS_11__hash_nodeIS9_PvEEEERKT_",
            "__ZN8firebase9firestore9immutable4impl8LlrbNodeINS0_5model8DocumentENS0_4util5EmptyEE12MoveRedRightEv",
            "__ZNSt3__112__hash_tableINS_17__hash_value_typeIiNS_10shared_ptrINS_8functionIFvRKN8firebase9firestore4util12TestingHooks27ExistenceFilterMismatchInfoEEEEEEEENS_22__unordered_map_hasherIiSE_NS_4hashIiEENS_8equal_toIiEELb1EEENS_21__unordered_map_equalIiSE_SJ_SH_Lb1EEENS_9allocatorISE_EEE21__construct_node_hashINS_4pairIKiSD_EEJEEENS_10unique_ptrINS_11__hash_nodeISE_PvEENS_22__hash_node_destructorINSN_ISX_EEEEEEmOT_DpOT0_",
            "__ZN8firebase9firestore4util12StringFormatIJiNSt3__112basic_stringIcNS3_11char_traitsIcEENS3_9allocatorIcEEEEEEES9_PKcDpRKT_",
            "__ZN4absl12lts_2024011618container_internal8PairArgsINSt3__112basic_stringIcNS3_11char_traitsIcEENS3_9allocatorIcEEEES9_EENS3_4pairINS3_5tupleIJOT_EEENSB_IJOT0_EEEEEONSA_ISC_SF_EE",
            "__ZNSt3__16__treeIiNS_4lessIiEENS_9allocatorIiEEE16__construct_nodeIJRKiEEENS_10unique_ptrINS_11__tree_nodeIiPvEENS_22__tree_node_destructorINS3_ISC_EEEEEEDpOT_",
            "__ZNSt3__15dequeIPKN8firebase9firestore9immutable4impl8LlrbNodeINS2_5model11DocumentKeyENS2_4util5EmptyEEENS_9allocatorISC_EEE8__appendINS_16__deque_iteratorISC_PKSC_RSI_PKSJ_lLl512EEEEEvT_SO_PNS_9enable_ifIXsr31__has_forward_iterator_categoryISO_EE5valueEvE4typeE",
            "__ZN8firebase9firestore4util4impl10InvokeHashINS0_5model15SnapshotVersionEEEmRKT_",
            "__ZN4absl12lts_2024011613hash_internal10hash_bytesINS1_15MixingHashStateEmEET_S4_RKT0_",
            "__ZN8firebase9firestore4util7CompareIbNS1_10ComparatorIbEEEENS1_16ComparisonResultERKT_S8_RKT0_",
            "__ZNSt3__112__hash_tableINS_17__hash_value_typeINS_12basic_stringIcNS_11char_traitsIcEENS_9allocatorIcEEEENS_10unique_ptrIN8firebase9firestore5local27LevelDbDocumentOverlayCacheENS_14default_deleteISC_EEEEEENS_22__unordered_map_hasherIS7_SG_NS_4hashIS7_EENS_8equal_toIS7_EELb1EEENS_21__unordered_map_equalIS7_SG_SL_SJ_Lb1EEENS5_ISG_EEE11__do_rehashILb1EEEvm",
            "__ZN8firebase9firestore4util4impl10InvokeHashINS0_5model14FieldTransformEEEmRKT_",
            "__ZNSt3__16__treeIN8firebase9firestore5model9FieldPathENS_4lessIS4_EENS_9allocatorIS4_EEE25__emplace_unique_key_argsIS4_JS4_EEENS_4pairINS_15__tree_iteratorIS4_PNS_11__tree_nodeIS4_PvEElEEbEERKT_DpOT0_",
            "__ZN4absl12lts_202401167StrJoinINSt3__16vectorIN8firebase9firestore5model8MutationENS2_9allocatorIS7_EEEEZNS5_4util4impl12ToStringImplISA_vEENS2_12basic_stringIcNS2_11char_traitsIcEENS8_IcEEEERKT_NSC_14ToStringChoiceILi5EEEEUlPSI_RKS7_E_EESI_SL_NS0_11string_viewEOT0_",
            "__ZN8firebase9firestore4util4impl10InvokeHashINS0_3api30MemoryGargabeCollectorSettings12MemoryGcKindEEEmRKT_",
            "__ZNSt3__112__hash_tableINS_17__hash_value_typeIN8firebase9firestore5model11DocumentKeyEN4absl12lts_202401168optionalINS4_9FieldMaskEEEEENS_22__unordered_map_hasherIS5_SB_NS4_15DocumentKeyHashENS_8equal_toIS5_EELb1EEENS_21__unordered_map_equalIS5_SB_SF_SD_Lb1EEENS_9allocatorISB_EEE11__do_rehashILb1EEEvm",
            "__ZN8firebase9firestore6nanopb9MakeArrayINS0_26_google_firestore_v1_ValueEEEPT_j",
            "__ZN8firebase9firestore9immutable4impl8LlrbNodeINS0_5model11DocumentKeyENS4_15MutableDocumentEE10RotateLeftEv",
            "__ZNSt3__16__treeINS_12__value_typeIiN8firebase9firestore4core10SyncEngine15LimboResolutionEEENS_19__map_value_compareIiS7_NS_4lessIiEELb1EEENS_9allocatorIS7_EEE13__lower_boundIiEENS_15__tree_iteratorIS7_PNS_11__tree_nodeIS7_PvEElEERKT_SK_PNS_15__tree_end_nodeIPNS_16__tree_node_baseISI_EEEE",
            "__ZN8firebase9firestore4util4HashIJPNS0_3api9FirestoreENS0_4core5QueryENS6_12ViewSnapshotENS3_16SnapshotMetadataEEEEmDpRKT_",
            "__ZN8firebase9firestore6nanopb17PrintMessageFieldINS0_29_google_firestore_v1_MapValueEEENSt3__112basic_stringIcNS4_11char_traitsIcEENS4_9allocatorIcEEEEN4absl12lts_2024011611string_viewERKT_ib",
            "__ZN8firebase9firestore9immutable4impl13MakeKeysRangeINS2_17SortedMapIteratorINSt3__14pairINS0_5local20DocumentKeyReferenceENS0_4util5EmptyEEEPKSB_NS2_16LlrbNodeIteratorINS2_8LlrbNodeIS8_SA_EEEEEEEENS9_5rangeINS9_14iterator_firstIT_EEEESL_SL_",
            "__ZN8firebase9firestore4util8ToStringINS0_9immutable9SortedMapINS0_5model11DocumentKeyENS0_4core18DocumentViewChangeENS1_10ComparatorIS6_EEEEEENSt3__112basic_stringIcNSC_11char_traitsIcEENSC_9allocatorIcEEEERKT_",
            "__ZNSt3__112__hash_tableINS_17__hash_value_typeIN8firebase9firestore5model11DocumentKeyEN4absl12lts_202401168optionalINS4_9FieldMaskEEEEENS_22__unordered_map_hasherIS5_SB_NS4_15DocumentKeyHashENS_8equal_toIS5_EELb1EEENS_21__unordered_map_equalIS5_SB_SF_SD_Lb1EEENS_9allocatorISB_EEE25__emplace_unique_key_argsIS5_JNS_4pairIKS5_SA_EEEEENSN_INS_15__hash_iteratorIPNS_11__hash_nodeISB_PvEEEEbEERKT_DpOT0_",
            "__ZNSt3__112__hash_tableINS_17__hash_value_typeINS_12basic_stringIcNS_11char_traitsIcEENS_9allocatorIcEEEENS_10unique_ptrIN8firebase9firestore5local20LevelDbMutationQueueENS_14default_deleteISC_EEEEEENS_22__unordered_map_hasherIS7_SG_NS_4hashIS7_EENS_8equal_toIS7_EELb1EEENS_21__unordered_map_equalIS7_SG_SL_SJ_Lb1EEENS5_ISG_EEE4findIS7_EENS_15__hash_iteratorIPNS_11__hash_nodeISG_PvEEEERKT_",
            "__ZN8firebase9firestore9immutable4impl8LlrbNodeINS0_5model11DocumentKeyENS4_15MutableDocumentEE9FlipColorEv",
            "__ZN8firebase9firestore6nanopb17PrintMessageFieldINS0_63_google_firestore_v1_StructuredAggregationQuery_Aggregation_AvgEEENSt3__112basic_stringIcNS4_11char_traitsIcEENS4_9allocatorIcEEEEN4absl12lts_2024011611string_viewERKT_ib",
            "__ZNSt3__114__split_bufferIPPKN8firebase9firestore9immutable4impl8LlrbNodeINS2_5model11DocumentKeyENS2_4util5EmptyEEERNS_9allocatorISD_EEE28__construct_at_end_with_sizeINS_13move_iteratorIPSD_EEEEvT_m",
            "__ZNSt3__112__hash_tableINS_17__hash_value_typeIiN8firebase9firestore6remote12TargetChangeEEENS_22__unordered_map_hasherIiS6_NS_4hashIiEENS_8equal_toIiEELb1EEENS_21__unordered_map_equalIiS6_SB_S9_Lb1EEENS_9allocatorIS6_EEE25__emplace_unique_key_argsIiJRKNS_21piecewise_construct_tENS_5tupleIJRKiEEENSM_IJEEEEEENS_4pairINS_15__hash_iteratorIPNS_11__hash_nodeIS6_PvEEEEbEERKT_DpOT0_",
            "__ZN8firebase9firestore4util4impl16RankedInvokeHashINSt3__16vectorINS4_12basic_stringIcNS4_11char_traitsIcEENS4_9allocatorIcEEEENS9_ISB_EEEEEEDTcl10InvokeHashdeclsr3stdE5beginfp_EEERKT_NS2_10HashChoiceILi3EEE",
            "__ZN8firebase9firestore4util12StringFormatIJPNS0_6remote10GrpcStreamENS3_14GrpcCompletion4TypeEEEENSt3__112basic_stringIcNS8_11char_traitsIcEENS8_9allocatorIcEEEEPKcDpRKT_",
            "__ZNKR8firebase9firestore4util8StatusOrINS_9TimestampEE6statusEv",
            "__ZNSt3__112__hash_tableINS_17__hash_value_typeINS_12basic_stringIcNS_11char_traitsIcEENS_9allocatorIcEEEENS_10unique_ptrIN8firebase9firestore5local19LevelDbIndexManagerENS_14default_deleteISC_EEEEEENS_22__unordered_map_hasherIS7_SG_NS_4hashIS7_EENS_8equal_toIS7_EELb1EEENS_21__unordered_map_equalIS7_SG_SL_SJ_Lb1EEENS5_ISG_EEE14__erase_uniqueIS7_EEmRKT_",
            "__ZNK8firebase9firestore9immutable4impl8LlrbNodeINS0_5model11DocumentKeyENS0_4core18DocumentViewChangeEE5eraseINS0_4util10ComparatorIS5_EEEES8_RKS5_RKT_",
            "__ZN8firebase9firestore4util4impl12HashInternalINS0_5model14AggregateAliasEJNSt3__112basic_stringIcNS6_11char_traitsIcEENS6_9allocatorIcEEEEEEEmmRKT_DpRKT0_",
            "__ZN8firebase9firestore4util4impl16RankedInvokeHashIiEENSt3__19enable_ifIXsr12has_std_hashIT_EE5valueEmE4typeERKS6_NS2_10HashChoiceILi2EEE",
            "__ZNSt3__112__hash_tableINS_17__hash_value_typeIN8firebase9firestore5model11DocumentKeyENS4_7OverlayEEENS_22__unordered_map_hasherIS5_S7_NS4_15DocumentKeyHashENS_8equal_toIS5_EELb1EEENS_21__unordered_map_equalIS5_S7_SB_S9_Lb1EEENS_9allocatorIS7_EEE21__construct_node_hashIRKNS_21piecewise_construct_tEJNS_5tupleIJRKS5_EEENSM_IJEEEEEENS_10unique_ptrINS_11__hash_nodeIS7_PvEENS_22__hash_node_destructorINSF_ISU_EEEEEEmOT_DpOT0_",
            "__ZNO8firebase9firestore4util8StatusOrINS0_5model9FieldPathEE10ValueOrDieEv",
            "__ZN8firebase9firestore6nanopb17PrintMessageFieldINS0_48_google_firestore_v1_TransactionOptions_ReadOnlyEEENSt3__112basic_stringIcNS4_11char_traitsIcEENS4_9allocatorIcEEEEN4absl12lts_2024011611string_viewERKT_ib",
            "__ZN8firebase9firestore4util12StringFormatIJPKcU8__strongP11objc_objectEEENSt3__112basic_stringIcNS8_11char_traitsIcEENS8_9allocatorIcEEEES4_DpRKT_",
            "__ZNSt3__112__hash_tableINS_17__hash_value_typeIN8firebase9firestore4core5QueryENS_10shared_ptrINS4_10SyncEngine9QueryViewEEEEENS_22__unordered_map_hasherIS5_SA_NS_4hashIS5_EENS_8equal_toIS5_EELb1EEENS_21__unordered_map_equalIS5_SA_SF_SD_Lb1EEENS_9allocatorISA_EEE14__erase_uniqueIS5_EEmRKT_",
            "__ZN8firebase9firestore6nanopb17PrintMessageFieldINS0_35_google_firestore_v1_DocumentRemoveEEENSt3__112basic_stringIcNS4_11char_traitsIcEENS4_9allocatorIcEEEEN4absl12lts_2024011611string_viewERKT_ib",
            "__ZNSt3__112__hash_tableINS_17__hash_value_typeIiNS_6vectorINS_8functionIFvN8firebase9firestore4util6StatusEEEENS_9allocatorIS9_EEEEEENS_22__unordered_map_hasherIiSD_NS_4hashIiEENS_8equal_toIiEELb1EEENS_21__unordered_map_equalIiSD_SI_SG_Lb1EEENSA_ISD_EEE25__emplace_unique_key_argsIiJRKNS_21piecewise_construct_tENS_5tupleIJRKiEEENSS_IJEEEEEENS_4pairINS_15__hash_iteratorIPNS_11__hash_nodeISD_PvEEEEbEERKT_DpOT0_",
            "__ZN8firebase9firestore9immutable4impl8LlrbNodeINS0_5model11DocumentKeyENS4_15MutableDocumentEE11RotateRightEv",
            "__ZNSt3__112__hash_tableINS_17__hash_value_typeINS_12basic_stringIcNS_11char_traitsIcEENS_9allocatorIcEEEENS_10unique_ptrIN8firebase9firestore5local27LevelDbDocumentOverlayCacheENS_14default_deleteISC_EEEEEENS_22__unordered_map_hasherIS7_SG_NS_4hashIS7_EENS_8equal_toIS7_EELb1EEENS_21__unordered_map_equalIS7_SG_SL_SJ_Lb1EEENS5_ISG_EEE25__emplace_unique_key_argsIS7_JRKNS_21piecewise_construct_tENS_5tupleIJRKS7_EEENSV_IJEEEEEENS_4pairINS_15__hash_iteratorIPNS_11__hash_nodeISG_PvEEEEbEERKT_DpOT0_",
            "__ZN8nlohmann6detail7to_jsonINS_10basic_jsonINSt3__13mapENS3_6vectorENS3_12basic_stringIcNS3_11char_traitsIcEENS3_9allocatorIcEEEEbxydS9_NS_14adl_serializerENS5_IhNS9_IhEEEEEEA4_cLi0EEEvRT_RKT0_",
            "__ZNSt3__16__treeIN8firebase9firestore5model9FieldPathENS_4lessIS4_EENS_9allocatorIS4_EEE16__construct_nodeIJS4_EEENS_10unique_ptrINS_11__tree_nodeIS4_PvEENS_22__tree_node_destructorINS7_ISE_EEEEEEDpOT_",
            "__ZNSt3__16vectorIN8firebase9firestore4core18DocumentViewChangeENS_9allocatorIS4_EEE18__construct_at_endIPS4_S9_EEvT_T0_m",
            "__ZNSt3__112__hash_tableINS_17__hash_value_typeIN8firebase9firestore4core5QueryENS_10shared_ptrINS4_10SyncEngine9QueryViewEEEEENS_22__unordered_map_hasherIS5_SA_NS_4hashIS5_EENS_8equal_toIS5_EELb1EEENS_21__unordered_map_equalIS5_SA_SF_SD_Lb1EEENS_9allocatorISA_EEE25__emplace_unique_key_argsIS5_JRKNS_21piecewise_construct_tENS_5tupleIJRKS5_EEENSQ_IJEEEEEENS_4pairINS_15__hash_iteratorIPNS_11__hash_nodeISA_PvEEEEbEERKT_DpOT0_",
            "__ZN8firebase9firestore6nanopb17PrintMessageFieldINS0_65_google_firestore_v1_StructuredAggregationQuery_Aggregation_CountEEENSt3__112basic_stringIcNS4_11char_traitsIcEENS4_9allocatorIcEEEEN4absl12lts_2024011611string_viewERKT_ib",
            "__ZNSt3__112__hash_tableINS_17__hash_value_typeIN8firebase9firestore5model11DocumentKeyENS4_7OverlayEEENS_22__unordered_map_hasherIS5_S7_NS4_15DocumentKeyHashENS_8equal_toIS5_EELb1EEENS_21__unordered_map_equalIS5_S7_SB_S9_Lb1EEENS_9allocatorIS7_EEE25__emplace_unique_key_argsIS5_JRKNS_21piecewise_construct_tENS_5tupleIJRKS5_EEENSM_IJEEEEEENS_4pairINS_15__hash_iteratorIPNS_11__hash_nodeIS7_PvEEEEbEERKT_DpOT0_",
            "__ZNSt3__112__hash_tableINS_17__hash_value_typeIN8firebase9firestore5model11DocumentKeyENS_3setIiNS_4lessIiEENS_9allocatorIiEEEEEENS_22__unordered_map_hasherIS5_SC_NS4_15DocumentKeyHashENS_8equal_toIS5_EELb1EEENS_21__unordered_map_equalIS5_SC_SG_SE_Lb1EEENS9_ISC_EEE25__emplace_unique_key_argsIS5_JRKNS_21piecewise_construct_tENS_5tupleIJRKS5_EEENSQ_IJEEEEEENS_4pairINS_15__hash_iteratorIPNS_11__hash_nodeISC_PvEEEEbEERKT_DpOT0_",
            "__ZN8firebase9firestore4util4impl12HashInternalINS0_5model15SnapshotVersionEJbNS4_12Precondition4TypeEEEEmmRKT_DpRKT0_",
            "__ZN4absl12lts_2024011616strings_internal13JoinAlgorithmIN8firebase9firestore4util14iterator_firstINS4_9immutable4impl17SortedMapIteratorINSt3__14pairINS4_5model8DocumentENS5_5EmptyEEEPKSF_NS8_16LlrbNodeIteratorINS8_8LlrbNodeISD_SE_EEEEEEEERZNS5_4impl12ToStringImplINS7_9SortedSetISD_NSC_18DocumentComparatorEEEvEENSA_12basic_stringIcNSA_11char_traitsIcEENSA_9allocatorIcEEEERKT_NSO_14ToStringChoiceILi5EEEEUlPSY_RKSD_E_EESY_SZ_SZ_NS0_11string_viewEOT0_",
            "__ZN8firebase9firestore4util19make_iterator_firstINS0_9immutable4impl17SortedMapIteratorINSt3__14pairINS0_5local20DocumentKeyReferenceENS1_5EmptyEEEPKSB_NS4_16LlrbNodeIteratorINS4_8LlrbNodeIS9_SA_EEEEEEEENS1_14iterator_firstIT_EESK_",
            "__ZN4absl12lts_2024011618container_internal13DecomposePairINS1_12raw_hash_setINS1_17FlatHashMapPolicyINSt3__112basic_stringIcNS5_11char_traitsIcEENS5_9allocatorIcEEEESB_EENS1_10StringHashENS1_8StringEqENS9_INS5_4pairIKSB_SB_EEEEE19EmplaceDecomposableEJNSF_ISB_SB_EEEEEDTclsr15memory_internalE17DecomposePairImplclsr3stdE7forwardIT_Efp_Ecl8PairArgsspclsr3stdE7forwardIT0_Efp0_EEEEOSM_DpOSN_",
            "__ZNSt3__16__treeINS_12basic_stringIcNS_11char_traitsIcEENS_9allocatorIcEEEENS_4lessIS6_EENS4_IS6_EEE25__emplace_unique_key_argsIS6_JRKS6_EEENS_4pairINS_15__tree_iteratorIS6_PNS_11__tree_nodeIS6_PvEElEEbEERKT_DpOT0_",
            "__ZN8firebase9firestore9immutable4impl8LlrbNodeINS0_5model11DocumentKeyENS0_4util5EmptyEE12MoveRedRightEv",
            "__ZN8firebase9firestore4util4impl12HashInternalINS0_5model11DocumentKeyEJNSt3__112basic_stringIcNS6_11char_traitsIcEENS6_9allocatorIcEEEESC_EEEmmRKT_DpRKT0_",
            "__ZN8firebase9firestore4util4impl12HashInternalINS0_5model12ResourcePathEJEEEmmRKT_DpRKT0_",
            "__ZNSt3__112__hash_tableINS_10shared_ptrIN8firebase9firestore4core13EventListenerINS3_4util5EmptyEEEEENS_4hashIS9_EENS_8equal_toIS9_EENS_9allocatorIS9_EEE25__emplace_unique_key_argsIS9_JRKS9_EEENS_4pairINS_15__hash_iteratorIPNS_11__hash_nodeIS9_PvEEEEbEERKT_DpOT0_",
            "__ZN8firebase9firestore4util4impl16RankedInvokeHashIiEEDTcl10InvokeHashdefp_EERKN4absl12lts_202401168optionalIT_EENS2_10HashChoiceILi4EEE",
            "__ZN8firebase9firestore4util4impl12HashInternalINS0_3api5QueryEJNSt3__16vectorINS0_5model14AggregateFieldENS6_9allocatorIS9_EEEEEEEmmRKT_DpRKT0_",
            "__ZNSt3__112__hash_tableINS_17__hash_value_typeIiNS_6vectorIN8firebase9firestore4core5QueryENS_9allocatorIS6_EEEEEENS_22__unordered_map_hasherIiSA_NS_4hashIiEENS_8equal_toIiEELb1EEENS_21__unordered_map_equalIiSA_SF_SD_Lb1EEENS7_ISA_EEE8__rehashILb1EEEvm",
            "__ZNSt3__112__hash_tableINS_17__hash_value_typeIN8firebase9firestore5model11DocumentKeyENS4_17OverlayedDocumentEEENS_22__unordered_map_hasherIS5_S7_NS4_15DocumentKeyHashENS_8equal_toIS5_EELb1EEENS_21__unordered_map_equalIS5_S7_SB_S9_Lb1EEENS_9allocatorIS7_EEE11__do_rehashILb1EEEvm",
            "__ZN8firebase9firestore4util4impl12HashInternalIPNS0_3api9FirestoreEJNS0_5model11DocumentKeyEN4absl12lts_202401168optionalINS7_8DocumentEEENS4_16SnapshotMetadataEEEEmmRKT_DpRKT0_",
            "__ZN8firebase9firestore4util4impl12ToStringImplINS0_4core18DocumentViewChangeEvEENSt3__112basic_stringIcNS6_11char_traitsIcEENS6_9allocatorIcEEEERKT_NS2_14ToStringChoiceILi1EEE",
            "__ZN8firebase9firestore4util4impl16RankedInvokeHashINS0_4core18DocumentViewChange4TypeEvEEmT_NS2_10HashChoiceILi5EEE",
            "__ZN8firebase9firestore4util4HashIJbbEEEmDpRKT_",
            "__ZN8firebase9firestore4util4impl10InvokeHashINS0_4core6TargetEEEmRKT_",
            "__ZNKSt3__16__treeINS_12__value_typeINS_12basic_stringIcNS_11char_traitsIcEENS_9allocatorIcEEEEN8firebase9firestore6nanopb7MessageINS9_26_google_firestore_v1_ValueEEEEENS_19__map_value_compareIS7_SE_NS_4lessIS7_EELb1EEENS5_ISE_EEE4findIS7_EENS_21__tree_const_iteratorISE_PNS_11__tree_nodeISE_PvEElEERKT_",
            "__ZNSt3__112__hash_tableINS_17__hash_value_typeIN8firebase9firestore5model11DocumentKeyENS4_15SnapshotVersionEEENS_22__unordered_map_hasherIS5_S7_NS4_15DocumentKeyHashENS_8equal_toIS5_EELb1EEENS_21__unordered_map_equalIS5_S7_SB_S9_Lb1EEENS_9allocatorIS7_EEE11__do_rehashILb1EEEvm",
            "__ZN8firebase9firestore4util12StringFormatIJPKcEEENSt3__112basic_stringIcNS5_11char_traitsIcEENS5_9allocatorIcEEEES4_DpRKT_",
            "__ZN8firebase9firestore4util8ToStringINS0_6nanopb7MessageINS0_31_google_firestore_v1_ArrayValueEEEEENSt3__112basic_stringIcNS7_11char_traitsIcEENS7_9allocatorIcEEEERKT_",
            "__ZN4absl12lts_2024011618container_internal13DecomposePairINS1_12raw_hash_setINS1_17FlatHashMapPolicyINSt3__112basic_stringIcNS5_11char_traitsIcEENS5_9allocatorIcEEEESB_EENS1_10StringHashENS1_8StringEqENS9_INS5_4pairIKSB_SB_EEEEE11HashElementEJRKSH_EEEDTclsr15memory_internalE17DecomposePairImplclsr3stdE7forwardIT_Efp_Ecl8PairArgsspclsr3stdE7forwardIT0_Efp0_EEEEOSN_DpOSO_",
            "__ZNSt3__112__hash_tableINS_17__hash_value_typeIN8firebase9firestore4core5QueryENS_10shared_ptrINS4_10SyncEngine9QueryViewEEEEENS_22__unordered_map_hasherIS5_SA_NS_4hashIS5_EENS_8equal_toIS5_EELb1EEENS_21__unordered_map_equalIS5_SA_SF_SD_Lb1EEENS_9allocatorISA_EEE21__construct_node_hashIRKNS_21piecewise_construct_tEJNS_5tupleIJRKS5_EEENSQ_IJEEEEEENS_10unique_ptrINS_11__hash_nodeISA_PvEENS_22__hash_node_destructorINSJ_ISY_EEEEEEmOT_DpOT0_",
            "__ZN4absl12lts_202401169StrFormatIJddEEENSt3__112basic_stringIcNS2_11char_traitsIcEENS2_9allocatorIcEEEERKNS0_19str_format_internal18FormatSpecTemplateIJXspclsr19str_format_internalE14ArgumentToConvIT_EEEEEEDpRKSB_",
            "__ZNSt3__15dequeIPKN8firebase9firestore9immutable4impl8LlrbNodeINS2_5local20DocumentKeyReferenceENS2_4util5EmptyEEENS_9allocatorISC_EEE18__append_with_sizeB8ue170006INS_16__deque_iteratorISC_PKSC_RSI_PKSJ_lLl512EEEEEvT_m",
            "__ZN8firebase9firestore4util4impl12HashInternalIN4absl12lts_202401168optionalINS0_5model9FieldMaskEEEJNS7_11ObjectValueEEEEmmRKT_DpRKT0_",
            "__ZN8firebase9firestore6nanopb19PrintPrimitiveFieldIjEENSt3__112basic_stringIcNS3_11char_traitsIcEENS3_9allocatorIcEEEEN4absl12lts_2024011611string_viewET_ib",
            "__ZNSt3__16__treeINS_12__value_typeINS_12basic_stringIcNS_11char_traitsIcEENS_9allocatorIcEEEEN8nlohmann10basic_jsonINS_3mapENS_6vectorES7_bxydS5_NS8_14adl_serializerENSB_IhNS5_IhEEEEEEEENS_19__map_value_compareIS7_SG_NS_4lessIvEELb1EEENS5_ISG_EEE12__find_equalIS7_EERPNS_16__tree_node_baseIPvEERPNS_15__tree_end_nodeISR_EERKT_",
            "__ZNSt3__112__hash_tableINS_17__hash_value_typeIN8firebase9firestore5model11DocumentKeyENS3_4core18DocumentViewChange4TypeEEENS_22__unordered_map_hasherIS5_S9_NS4_15DocumentKeyHashENS_8equal_toIS5_EELb1EEENS_21__unordered_map_equalIS5_S9_SD_SB_Lb1EEENS_9allocatorIS9_EEE25__emplace_unique_key_argsIS5_JRKNS_21piecewise_construct_tENS_5tupleIJRKS5_EEENSO_IJEEEEEENS_4pairINS_15__hash_iteratorIPNS_11__hash_nodeIS9_PvEEEEbEERKT_DpOT0_",
            "__ZNKR8firebase9firestore4util8StatusOrINS0_6remote11BloomFilterEE6statusEv",
            "__ZNSt3__112__hash_tableINS_12basic_stringIcNS_11char_traitsIcEENS_9allocatorIcEEEENS_4hashIS6_EENS_8equal_toIS6_EENS4_IS6_EEE21__construct_node_hashIS6_JEEENS_10unique_ptrINS_11__hash_nodeIS6_PvEENS_22__hash_node_destructorINS4_ISH_EEEEEEmOT_DpOT0_",
            "__ZN8firebase9firestore4util4impl16RankedInvokeHashINSt3__112basic_stringIcNS4_11char_traitsIcEENS4_9allocatorIcEEEEEENS4_9enable_ifIXsr12has_std_hashIT_EE5valueEmE4typeERKSC_NS2_10HashChoiceILi2EEE",
            "__ZNSt3__16__treeINS_12__value_typeINS_12basic_stringIcNS_11char_traitsIcEENS_9allocatorIcEEEEN8nlohmann10basic_jsonINS_3mapENS_6vectorES7_bxydS5_NS8_14adl_serializerENSB_IhNS5_IhEEEEEEEENS_19__map_value_compareIS7_SG_NS_4lessIvEELb1EEENS5_ISG_EEE13__lower_boundIPKcEENS_15__tree_iteratorISG_PNS_11__tree_nodeISG_PvEElEERKT_SU_PNS_15__tree_end_nodeIPNS_16__tree_node_baseISS_EEEE",
            "__ZNSt3__16__treeINS_12__value_typeINS_12basic_stringIcNS_11char_traitsIcEENS_9allocatorIcEEEES7_EENS_19__map_value_compareIS7_S8_NS_4lessIS7_EELb1EEENS5_IS8_EEE16__construct_nodeIJRKNS_21piecewise_construct_tENS_5tupleIJOS7_EEENSJ_IJEEEEEENS_10unique_ptrINS_11__tree_nodeIS8_PvEENS_22__tree_node_destructorINS5_ISQ_EEEEEEDpOT_",
            "__ZNSt3__16__treeINS_12__value_typeINS_12basic_stringIcNS_11char_traitsIcEENS_9allocatorIcEEEEN8nlohmann10basic_jsonINS_3mapENS_6vectorES7_bxydS5_NS8_14adl_serializerENSB_IhNS5_IhEEEEEEEENS_19__map_value_compareIS7_SG_NS_4lessIvEELb1EEENS5_ISG_EEE16__construct_nodeIJS7_SF_EEENS_10unique_ptrINS_11__tree_nodeISG_PvEENS_22__tree_node_destructorINS5_ISR_EEEEEEDpOT_",
            "__ZN4absl12lts_2024011628container_algorithm_internal7c_beginINSt3__16vectorINS3_10shared_ptrIN8firebase9firestore4core13QueryListenerEEENS3_9allocatorISA_EEEEEEDTcl5beginclsr3stdE7declvalIRT_EEEESF_",
            "__ZN8firebase9firestore9immutable4impl8LlrbNodeINS0_5model8DocumentENS0_4util5EmptyEE11RotateRightEv",
            "__ZNSt3__112__hash_tableINS_17__hash_value_typeIN8firebase9firestore5model11DocumentKeyENS4_15MutableDocumentEEENS_22__unordered_map_hasherIS5_S7_NS4_15DocumentKeyHashENS_8equal_toIS5_EELb1EEENS_21__unordered_map_equalIS5_S7_SB_S9_Lb1EEENS_9allocatorIS7_EEE8__rehashILb1EEEvm",
            "__ZN8firebase9firestore4util4impl16RankedInvokeHashINS0_5model8Mutation4TypeEvEEmT_NS2_10HashChoiceILi5EEE",
            "__ZN8firebase9firestore4util4impl16RankedInvokeHashINS0_5model11DocumentKeyEEEDTcldtfp_4HashEERKT_NS2_10HashChoiceILi0EEE",
            "__ZN8firebase9firestore4util12StringFormatIJNS0_4core19LimboDocumentChange4TypeEEEENSt3__112basic_stringIcNS6_11char_traitsIcEENS6_9allocatorIcEEEEPKcDpRKT_",
            "__ZN8firebase9firestore4util8ToStringINS0_5model8MutationEEENSt3__112basic_stringIcNS5_11char_traitsIcEENS5_9allocatorIcEEEERKT_",
            "__ZNSt3__112__hash_tableIN8firebase9firestore5model11DocumentKeyENS3_15DocumentKeyHashENS_8equal_toIS4_EENS_9allocatorIS4_EEE4findIS4_EENS_15__hash_iteratorIPNS_11__hash_nodeIS4_PvEEEERKT_",
            "__ZN8firebase9firestore6nanopb19PrintPrimitiveFieldIxEENSt3__112basic_stringIcNS3_11char_traitsIcEENS3_9allocatorIcEEEEN4absl12lts_2024011611string_viewET_ib",
            "__ZNSt3__16__treeINS_12__value_typeINS_12basic_stringIcNS_11char_traitsIcEENS_9allocatorIcEEEEN8nlohmann10basic_jsonINS_3mapENS_6vectorES7_bxydS5_NS8_14adl_serializerENSB_IhNS5_IhEEEEEEEENS_19__map_value_compareIS7_SG_NS_4lessIvEELb1EEENS5_ISG_EEE13__lower_boundIA11_cEENS_15__tree_iteratorISG_PNS_11__tree_nodeISG_PvEElEERKT_ST_PNS_15__tree_end_nodeIPNS_16__tree_node_baseISR_EEEE",
            "__ZN8firebase9firestore9immutable4impl8LlrbNodeINS0_5model11DocumentKeyENS4_7OverlayEE11RotateRightEv",
            "__ZNSt3__112__hash_tableINS_17__hash_value_typeINS_12basic_stringIcNS_11char_traitsIcEENS_9allocatorIcEEEENS_3setIN8firebase9firestore5model12ResourcePathENS_4lessISC_EENS5_ISC_EEEEEENS_22__unordered_map_hasherIS7_SH_NS_4hashIS7_EENS_8equal_toIS7_EELb1EEENS_21__unordered_map_equalIS7_SH_SM_SK_Lb1EEENS5_ISH_EEE21__construct_node_hashIRKNS_21piecewise_construct_tEJNS_5tupleIJRKS7_EEENSW_IJEEEEEENS_10unique_ptrINS_11__hash_nodeISH_PvEENS_22__hash_node_destructorINS5_IS14_EEEEEEmOT_DpOT0_",
            "__ZN8firebase9firestore6nanopb13MakeStdStringINS0_26_google_firestore_v1_WriteEEENSt3__112basic_stringIcNS4_11char_traitsIcEENS4_9allocatorIcEEEERKNS1_7MessageIT_EE",
            "__ZN4absl12lts_202401167StrJoinINSt3__16vectorIN8firebase9firestore4core18DocumentViewChangeENS2_9allocatorIS7_EEEEZNS5_4util4impl12ToStringImplISA_vEENS2_12basic_stringIcNS2_11char_traitsIcEENS8_IcEEEERKT_NSC_14ToStringChoiceILi5EEEEUlPSI_RKS7_E_EESI_SL_NS0_11string_viewEOT0_",
            "__ZN8firebase9firestore4util4impl12ToStringImplINSt3__16vectorINS0_5model14MutationResultENS4_9allocatorIS7_EEEEvEENS4_12basic_stringIcNS4_11char_traitsIcEENS8_IcEEEERKT_NS2_14ToStringChoiceILi5EEE",
            "__ZNSt3__112__hash_tableINS_17__hash_value_typeIN8firebase9firestore4core6TargetENS3_5local10TargetDataEEENS_22__unordered_map_hasherIS5_S8_NS_4hashIS5_EENS_8equal_toIS5_EELb1EEENS_21__unordered_map_equalIS5_S8_SD_SB_Lb1EEENS_9allocatorIS8_EEE21__construct_node_hashIRKNS_21piecewise_construct_tEJNS_5tupleIJRKS5_EEENSO_IJEEEEEENS_10unique_ptrINS_11__hash_nodeIS8_PvEENS_22__hash_node_destructorINSH_ISW_EEEEEEmOT_DpOT0_",
            "__ZNSt3__112__hash_tableINS_17__hash_value_typeIiNS_8functionIFvN8firebase9firestore4util6StatusEEEEEENS_22__unordered_map_hasherIiS9_NS_4hashIiEENS_8equal_toIiEELb1EEENS_21__unordered_map_equalIiS9_SE_SC_Lb1EEENS_9allocatorIS9_EEE4findIiEENS_15__hash_iteratorIPNS_11__hash_nodeIS9_PvEEEERKT_",
            "__ZNK8firebase9firestore9immutable4impl8LlrbNodeINS0_5model11DocumentKeyENS0_4core18DocumentViewChangeEE6insertINS0_4util10ComparatorIS5_EEEES8_RKS5_RKS7_RKT_",
            "__ZN8firebase9firestore4util19make_iterator_firstINS0_9immutable4impl17SortedMapIteratorINSt3__14pairINS0_5model11DocumentKeyENS8_15MutableDocumentEEEPKSB_NS4_16LlrbNodeIteratorINS4_8LlrbNodeIS9_SA_EEEEEEEENS1_14iterator_firstIT_EESK_",
            "__ZNKR8firebase9firestore4util8StatusOrINSt3__16vectorINS0_5model8DocumentENS3_9allocatorIS6_EEEEE10ValueOrDieEv",
            "__ZNSt3__16__treeINS_12__value_typeINS_12basic_stringIcNS_11char_traitsIcEENS_9allocatorIcEEEEN8nlohmann10basic_jsonINS_3mapENS_6vectorES7_bxydS5_NS8_14adl_serializerENSB_IhNS5_IhEEEEEEEENS_19__map_value_compareIS7_SG_NS_4lessIvEELb1EEENS5_ISG_EEE13__lower_boundIA16_cEENS_15__tree_iteratorISG_PNS_11__tree_nodeISG_PvEElEERKT_ST_PNS_15__tree_end_nodeIPNS_16__tree_node_baseISR_EEEE",
            "__ZN8firebase9firestore6nanopb19PrintPrimitiveFieldIbEENSt3__112basic_stringIcNS3_11char_traitsIcEENS3_9allocatorIcEEEEN4absl12lts_2024011611string_viewET_ib",
            "__ZNSt3__112__hash_tableINS_17__hash_value_typeINS_12basic_stringIcNS_11char_traitsIcEENS_9allocatorIcEEEEN8firebase9firestore9immutable9SortedSetINS9_5model11DocumentKeyENS9_4util10ComparatorISD_EEEEEENS_22__unordered_map_hasherIS7_SI_NS_4hashIS7_EENS_8equal_toIS7_EELb1EEENS_21__unordered_map_equalIS7_SI_SN_SL_Lb1EEENS5_ISI_EEE21__construct_node_hashIRKNS_21piecewise_construct_tEJNS_5tupleIJRKS7_EEENSX_IJEEEEEENS_10unique_ptrINS_11__hash_nodeISI_PvEENS_22__hash_node_destructorINS5_IS15_EEEEEEmOT_DpOT0_",
            "__ZN8firebase9firestore6nanopb11MakeMessageINS0_26_google_firestore_v1_ValueEEENS1_7MessageIT_EERKS5_",
            "__ZN8firebase9firestore4util4impl12HashInternalIxJNSt3__110unique_ptrINS0_3api18LocalCacheSettingsENS4_14default_deleteIS7_EEEEEEEmmRKT_DpRKT0_",
            "__ZN8firebase9firestore4util4impl10InvokeHashINS0_5model12PreconditionEEEmRKT_",
            "__ZN8nlohmann6detail20get_arithmetic_valueINS_10basic_jsonINSt3__13mapENS3_6vectorENS3_12basic_stringIcNS3_11char_traitsIcEENS3_9allocatorIcEEEEbxydS9_NS_14adl_serializerENS5_IhNS9_IhEEEEEEyLi0EEEvRKT_RT0_",
            "__ZNSt3__112__hash_tableINS_17__hash_value_typeINS_12basic_stringIcNS_11char_traitsIcEENS_9allocatorIcEEEENS_3setIN8firebase9firestore5model12ResourcePathENS_4lessISC_EENS5_ISC_EEEEEENS_22__unordered_map_hasherIS7_SH_NS_4hashIS7_EENS_8equal_toIS7_EELb1EEENS_21__unordered_map_equalIS7_SH_SM_SK_Lb1EEENS5_ISH_EEE8__rehashILb1EEEvm",
            "__ZN4absl12lts_2024011616strings_internal13JoinAlgorithmINSt3__111__wrap_iterIPKNS3_12basic_stringIcNS3_11char_traitsIcEENS3_9allocatorIcEEEEEERZN8firebase9firestore4util4impl12ToStringImplINS3_6vectorISA_NS8_ISA_EEEEvEESA_RKT_NSH_14ToStringChoiceILi5EEEEUlPSA_RSB_E_EESA_SM_SM_NS0_11string_viewEOT0_",
            "__ZNSt3__112__hash_tableINS_17__hash_value_typeIN8firebase9firestore5model11DocumentKeyENS4_17OverlayedDocumentEEENS_22__unordered_map_hasherIS5_S7_NS4_15DocumentKeyHashENS_8equal_toIS5_EELb1EEENS_21__unordered_map_equalIS5_S7_SB_S9_Lb1EEENS_9allocatorIS7_EEE4findIS5_EENS_15__hash_iteratorIPNS_11__hash_nodeIS7_PvEEEERKT_",
            "__ZNK8firebase9firestore9immutable4impl8LlrbNodeINS0_5local20DocumentKeyReferenceENS0_4util5EmptyEE5eraseINS5_4ByIdEEES8_RKS5_RKT_",
            "__ZNSt3__16vectorIN8firebase9firestore4core6FilterENS_9allocatorIS4_EEE18__insert_with_sizeB8ue170006INS_13move_iteratorINS_11__wrap_iterIPKS4_EEEESE_EENSA_IPS4_EESD_T_T0_l",
            "__ZNSt3__112__hash_tableINS_17__hash_value_typeINS_12basic_stringIcNS_11char_traitsIcEENS_9allocatorIcEEEEN8firebase9firestore6bundle10NamedQueryEEENS_22__unordered_map_hasherIS7_SC_NS_4hashIS7_EENS_8equal_toIS7_EELb1EEENS_21__unordered_map_equalIS7_SC_SH_SF_Lb1EEENS5_ISC_EEE11__do_rehashILb1EEEvm",
            "__ZN8firebase9firestore9immutable4impl8LlrbNodeINS0_5model11DocumentKeyENS4_8DocumentEE12FixRootColorEv",
            "__ZNSt3__16vectorIN8firebase9firestore4core6FilterENS_9allocatorIS4_EEE18__construct_at_endIPS4_S9_EEvT_T0_m",
            "__ZNSt3__112__hash_tableIPN8firebase9firestore4util4TaskENS_4hashIS5_EENS_8equal_toIS5_EENS_9allocatorIS5_EEE14__erase_uniqueIS5_EEmRKT_",
            "__ZN8firebase9firestore6nanopb7MessageINS0_26_google_firestore_v1_WriteEE8TryParseEPNS1_6ReaderE",
            "__ZN8firebase9firestore4util4impl16RankedInvokeHashINS0_5model12PreconditionEEEDTcldtfp_4HashEERKT_NS2_10HashChoiceILi0EEE",
            "__ZN8firebase9firestore4util4impl10InvokeHashIN4absl12lts_202401168optionalINS0_5model8DocumentEEEEEmRKT_",
            "__ZN8firebase9firestore4util4HashIJiNS0_5model8MutationEEEEmDpRKT_",
            "__ZNSt3__112__hash_tableINS_17__hash_value_typeIN8firebase9firestore5model11DocumentKeyENS4_15MutableDocumentEEENS_22__unordered_map_hasherIS5_S7_NS4_15DocumentKeyHashENS_8equal_toIS5_EELb1EEENS_21__unordered_map_equalIS5_S7_SB_S9_Lb1EEENS_9allocatorIS7_EEE25__emplace_unique_key_argsIS5_JRKNS_4pairIKS5_S6_EEEEENSJ_INS_15__hash_iteratorIPNS_11__hash_nodeIS7_PvEEEEbEERKT_DpOT0_",
            "__ZNKR8firebase9firestore4util8StatusOrINS0_3api13QuerySnapshotEE6statusEv",
            "__ZNSt3__112__hash_tableINS_17__hash_value_typeIiN8firebase9firestore6remote12TargetChangeEEENS_22__unordered_map_hasherIiS6_NS_4hashIiEENS_8equal_toIiEELb1EEENS_21__unordered_map_equalIiS6_SB_S9_Lb1EEENS_9allocatorIS6_EEE8__rehashILb1EEEvm",
            "__ZN8firebase9firestore4util4impl12HashInternalINSt3__13setINS0_5model9FieldPathENS4_4lessIS7_EENS4_9allocatorIS7_EEEEJEEEmmRKT_DpRKT0_",
            "__ZN8firebase9firestore6nanopb13MakeStdStringINS0_31_firestore_client_MaybeDocumentEEENSt3__112basic_stringIcNS4_11char_traitsIcEENS4_9allocatorIcEEEERKNS1_7MessageIT_EE",
            "__ZN8firebase9firestore4util4impl12HashInternalINS0_5model12PreconditionEJNSt3__16vectorINS4_14FieldTransformENS6_9allocatorIS8_EEEEEEEmmRKT_DpRKT0_",
            "__ZNK8firebase9firestore9immutable4impl8LlrbNodeINS0_5model11DocumentKeyENS4_15MutableDocumentEE10InnerEraseINS0_4util10ComparatorIS5_EEEES7_RKS5_RKT_",
            "__ZN8nlohmann6detail9dtoa_impl16reinterpret_bitsIydEET_T0_",
            "__ZN8firebase9firestore9immutable4impl8LlrbNodeINS0_5model11DocumentKeyENS4_8DocumentEE9FlipColorEv",
            "__ZNSt3__16__treeIN8firebase9firestore5model9FieldPathENS_4lessIS4_EENS_9allocatorIS4_EEE4findIS4_EENS_15__tree_iteratorIS4_PNS_11__tree_nodeIS4_PvEElEERKT_",
            "__ZNK8firebase9firestore9immutable4impl8LlrbNodeINS0_5model11DocumentKeyENS4_8DocumentEE10InnerEraseINS0_4util10ComparatorIS5_EEEES7_RKS5_RKT_",
            "__ZNSt3__16__treeINS_12__value_typeIN8firebase9firestore5model9FieldPathEN4absl12lts_202401168optionalINS3_6nanopb7MessageINS3_26_google_firestore_v1_ValueEEEEEEENS_19__map_value_compareIS5_SE_NS_4lessIS5_EELb1EEENS_9allocatorISE_EEE16__construct_nodeIJRKNS_21piecewise_construct_tENS_5tupleIJRKS5_EEENSQ_IJEEEEEENS_10unique_ptrINS_11__tree_nodeISE_PvEENS_22__tree_node_destructorINSJ_ISY_EEEEEEDpOT_",
            "__ZN8firebase9firestore4util12StringFormatIJU8__strongP11objc_objectEEENSt3__112basic_stringIcNS6_11char_traitsIcEENS6_9allocatorIcEEEEPKcDpRKT_",
            "__ZNSt3__112__hash_tableINS_17__hash_value_typeINS_12basic_stringIcNS_11char_traitsIcEENS_9allocatorIcEEEENS_11__wrap_iterIPN8firebase9firestore26_google_firestore_v1_ValueEEEEENS_22__unordered_map_hasherIS7_SE_NS_4hashIS7_EENS_8equal_toIS7_EELb1EEENS_21__unordered_map_equalIS7_SE_SJ_SH_Lb1EEENS5_ISE_EEE25__emplace_unique_key_argsIS7_JRKNS_21piecewise_construct_tENS_5tupleIJRKS7_EEENST_IJEEEEEENS_4pairINS_15__hash_iteratorIPNS_11__hash_nodeISE_PvEEEEbEERKT_DpOT0_",
            "__ZN8firebase9firestore6nanopb9MakeArrayINS0_43_google_firestore_admin_v1_Index_IndexFieldEEEPT_j",
            "__ZNKSt3__16__treeINS_12__value_typeINS_12basic_stringIcNS_11char_traitsIcEENS_9allocatorIcEEEEN8firebase9firestore6nanopb7MessageINS9_26_google_firestore_v1_ValueEEEEENS_19__map_value_compareIS7_SE_NS_4lessIS7_EELb1EEENS5_ISE_EEE13__lower_boundIS7_EENS_21__tree_const_iteratorISE_PNS_11__tree_nodeISE_PvEElEERKT_SQ_PNS_15__tree_end_nodeIPNS_16__tree_node_baseISO_EEEE",
            "__ZN8firebase9firestore4util12StringFormatIJN4grpc10StatusCodeEEEENSt3__112basic_stringIcNS5_11char_traitsIcEENS5_9allocatorIcEEEEPKcDpRKT_",
            "__ZNSt3__111unique_lockINS_5mutexEE6unlockEv",
            "__ZNSt3__114__split_bufferIPPKN8firebase9firestore9immutable4impl8LlrbNodeINS2_5model11DocumentKeyENS6_15MutableDocumentEEERNS_9allocatorISC_EEE28__construct_at_end_with_sizeINS_13move_iteratorIPSC_EEEEvT_m",
            "__ZN4absl12lts_2024011618container_internal10DeallocateILm8ENSt3__19allocatorINS3_4pairIKNS3_12basic_stringIcNS3_11char_traitsIcEENS4_IcEEEESA_EEEEEEvPT0_Pvm",
            "__ZN8firebase9firestore4util4impl12ToStringImplIbEENSt3__112basic_stringIcNS4_11char_traitsIcEENS4_9allocatorIcEEEERKT_NS2_14ToStringChoiceILi6EEE",
            "__ZN8firebase9firestore4util8ToStringIbEENSt3__112basic_stringIcNS3_11char_traitsIcEENS3_9allocatorIcEEEERKT_",
            "__ZNKSt3__112__hash_tableINS_17__hash_value_typeINS_12basic_stringIcNS_11char_traitsIcEENS_9allocatorIcEEEEN8firebase9firestore6bundle10NamedQueryEEENS_22__unordered_map_hasherIS7_SC_NS_4hashIS7_EENS_8equal_toIS7_EELb1EEENS_21__unordered_map_equalIS7_SC_SH_SF_Lb1EEENS5_ISC_EEE4findIS7_EENS_21__hash_const_iteratorIPNS_11__hash_nodeISC_PvEEEERKT_",
            "__ZNSt3__112__hash_tableINS_17__hash_value_typeINS_12basic_stringIcNS_11char_traitsIcEENS_9allocatorIcEEEENS_10unique_ptrIN8firebase9firestore5local20LevelDbMutationQueueENS_14default_deleteISC_EEEEEENS_22__unordered_map_hasherIS7_SG_NS_4hashIS7_EENS_8equal_toIS7_EELb1EEENS_21__unordered_map_equalIS7_SG_SL_SJ_Lb1EEENS5_ISG_EEE14__erase_uniqueIS7_EEmRKT_",
            "__ZN8firebase9firestore4util17internal_statusor12PlacementNewINS0_3api16DocumentSnapshotEJS5_EEEvPvDpOT0_",
            "__ZNSt3__112__hash_tableIN8firebase9firestore5model11DocumentKeyENS3_15DocumentKeyHashENS_8equal_toIS4_EENS_9allocatorIS4_EEE21__construct_node_hashIS4_JEEENS_10unique_ptrINS_11__hash_nodeIS4_PvEENS_22__hash_node_destructorINS8_ISF_EEEEEEmOT_DpOT0_",
            "__ZNSt3__16vectorIN8firebase9firestore4core6TargetENS_9allocatorIS4_EEE18__construct_at_endIPS4_S9_EEvT_T0_m",
            "__ZN8firebase9firestore4util7CompareINS0_5model11DocumentKeyENS1_10ComparatorIS4_EEEENS1_16ComparisonResultERKT_SA_RKT0_",
            "__ZNSt3__16vectorIN8firebase9firestore4core6FilterENS_9allocatorIS4_EEE18__insert_with_sizeB8ue170006INS_11__wrap_iterIPKS4_EESC_EENS9_IPS4_EESC_T_T0_l",
            "__ZNSt3__121__thread_specific_ptrINS_15__thread_structEE11set_pointerEPS1_",
            "__ZNSt3__16__treeINS_12__value_typeINS_12basic_stringIcNS_11char_traitsIcEENS_9allocatorIcEEEEN8nlohmann10basic_jsonINS_3mapENS_6vectorES7_bxydS5_NS8_14adl_serializerENSB_IhNS5_IhEEEEEEEENS_19__map_value_compareIS7_SG_NS_4lessIvEELb1EEENS5_ISG_EEE4findIPKcEENS_15__tree_iteratorISG_PNS_11__tree_nodeISG_PvEElEERKT_",
            "__ZNSt3__112__hash_tableINS_17__hash_value_typeINS_12basic_stringIcNS_11char_traitsIcEENS_9allocatorIcEEEENS_10unique_ptrIN8firebase9firestore5local27LevelDbDocumentOverlayCacheENS_14default_deleteISC_EEEEEENS_22__unordered_map_hasherIS7_SG_NS_4hashIS7_EENS_8equal_toIS7_EELb1EEENS_21__unordered_map_equalIS7_SG_SL_SJ_Lb1EEENS5_ISG_EEE21__construct_node_hashINS_4pairIKS7_SF_EEJEEENS8_INS_11__hash_nodeISG_PvEENS_22__hash_node_destructorINS5_ISX_EEEEEEmOT_DpOT0_",
            "__ZNSt3__16__treeINS_12__value_typeINS_12basic_stringIcNS_11char_traitsIcEENS_9allocatorIcEEEEN8nlohmann10basic_jsonINS_3mapENS_6vectorES7_bxydS5_NS8_14adl_serializerENSB_IhNS5_IhEEEEEEEENS_19__map_value_compareIS7_SG_NS_4lessIvEELb1EEENS5_ISG_EEE13__lower_boundIA14_cEENS_15__tree_iteratorISG_PNS_11__tree_nodeISG_PvEElEERKT_ST_PNS_15__tree_end_nodeIPNS_16__tree_node_baseISR_EEEE",
            "__ZN8firebase9firestore4util4impl12HashInternalINSt3__16vectorINS0_5model14AggregateFieldENS4_9allocatorIS7_EEEEJEEEmmRKT_DpRKT0_",
            "__ZNSt3__112__hash_tableINS_17__hash_value_typeIiN8firebase9firestore6remote12TargetChangeEEENS_22__unordered_map_hasherIiS6_NS_4hashIiEENS_8equal_toIiEELb1EEENS_21__unordered_map_equalIiS6_SB_S9_Lb1EEENS_9allocatorIS6_EEE11__do_rehashILb1EEEvm",
            "__ZN8firebase9firestore4util4impl16RankedInvokeHashINSt3__13setINS0_5model9FieldPathENS4_4lessIS7_EENS4_9allocatorIS7_EEEEEEDTcl10InvokeHashdeclsr3stdE5beginfp_EEERKT_NS2_10HashChoiceILi3EEE",
            "__ZN8firebase9firestore4util4impl12HashInternalINS0_3api14DocumentChange4TypeEJNS4_16DocumentSnapshotEmmEEEmmRKT_DpRKT0_",
            "__ZN8firebase9firestore4util6EqualsINSt3__110shared_ptrIKNS3_12basic_stringIcNS3_11char_traitsIcEENS3_9allocatorIcEEEEEEEEbRKT_SF_",
            "__ZNSt3__112__hash_tableINS_17__hash_value_typeINS_12basic_stringIcNS_11char_traitsIcEENS_9allocatorIcEEEEN8firebase9firestore6bundle14BundleMetadataEEENS_22__unordered_map_hasherIS7_SC_NS_4hashIS7_EENS_8equal_toIS7_EELb1EEENS_21__unordered_map_equalIS7_SC_SH_SF_Lb1EEENS5_ISC_EEE21__construct_node_hashIRKNS_21piecewise_construct_tEJNS_5tupleIJRKS7_EEENSR_IJEEEEEENS_10unique_ptrINS_11__hash_nodeISC_PvEENS_22__hash_node_destructorINS5_ISZ_EEEEEEmOT_DpOT0_",
            "__ZNSt3__16__treeIiNS_4lessIiEENS_9allocatorIiEEE25__emplace_unique_key_argsIiJRKiEEENS_4pairINS_15__tree_iteratorIiPNS_11__tree_nodeIiPvEElEEbEERKT_DpOT0_",
            "__ZN8firebase9firestore9immutable4impl8LlrbNodeINS0_5model11DocumentKeyENS4_7OverlayEE11MoveRedLeftEv",
            "__ZN8firebase9firestore4util4impl10InvokeHashINS0_5model11DocumentKeyEEEmRKT_",
            "__ZN8firebase9firestore6nanopb9MakeArrayIP16pb_bytes_array_sEEPT_j",
            "__ZN4absl12lts_2024011616strings_internal13JoinAlgorithmINSt3__111__wrap_iterIPNS3_12basic_stringIcNS3_11char_traitsIcEENS3_9allocatorIcEEEEEEvEESA_T_SD_NS0_11string_viewENS1_11NoFormatterE",
            "__ZNSt3__114__split_bufferIPPKN8firebase9firestore9immutable4impl8LlrbNodeINS2_5model11DocumentKeyENS6_8DocumentEEERNS_9allocatorISC_EEE28__construct_at_end_with_sizeINS_13move_iteratorIPSC_EEEEvT_m",
            "__ZNSt3__16__treeINS_12__value_typeINS_12basic_stringIcNS_11char_traitsIcEENS_9allocatorIcEEEEN8nlohmann10basic_jsonINS_3mapENS_6vectorES7_bxydS5_NS8_14adl_serializerENSB_IhNS5_IhEEEEEEEENS_19__map_value_compareIS7_SG_NS_4lessIvEELb1EEENS5_ISG_EEE16__construct_nodeIJRKNS_4pairIKS7_SF_EEEEENS_10unique_ptrINS_11__tree_nodeISG_PvEENS_22__tree_node_destructorINS5_ISW_EEEEEEDpOT_",
            "__ZN8firebase9firestore4util17internal_statusor12PlacementNewINS1_5EmptyEJS4_EEEvPvDpOT0_",
            "__ZNSt3__16__treeIN8firebase9firestore5index10IndexEntryENS_4lessIS4_EENS_9allocatorIS4_EEE12__find_equalIS4_EERPNS_16__tree_node_baseIPvEENS_21__tree_const_iteratorIS4_PNS_11__tree_nodeIS4_SC_EElEERPNS_15__tree_end_nodeISE_EESF_RKT_",
            "__ZNSt3__112__hash_tableIPN8firebase9firestore4util4TaskENS_4hashIS5_EENS_8equal_toIS5_EENS_9allocatorIS5_EEE25__emplace_unique_key_argsIS5_JRKS5_EEENS_4pairINS_15__hash_iteratorIPNS_11__hash_nodeIS5_PvEEEEbEERKT_DpOT0_",
            "__ZNSt3__113basic_filebufIcNS_11char_traitsIcEEE4openEPKcj",
            "__ZNSt3__16vectorIN8firebase9firestore4core7OrderByENS_9allocatorIS4_EEE18__assign_with_sizeB8ue170006IPS4_S9_EEvT_T0_l",
            "__ZN8firebase9firestore4util4impl16RankedInvokeHashINS0_9immutable9SortedSetINS0_5model8DocumentENS6_18DocumentComparatorEEEEEDTcl10InvokeHashdeclsr3stdE5beginfp_EEERKT_NS2_10HashChoiceILi3EEE",
            "__ZNSt3__112__hash_tableINS_17__hash_value_typeIiNS_6vectorIN8firebase9firestore4core5QueryENS_9allocatorIS6_EEEEEENS_22__unordered_map_hasherIiSA_NS_4hashIiEENS_8equal_toIiEELb1EEENS_21__unordered_map_equalIiSA_SF_SD_Lb1EEENS7_ISA_EEE21__construct_node_hashIRKNS_21piecewise_construct_tEJNS_5tupleIJRKiEEENSP_IJEEEEEENS_10unique_ptrINS_11__hash_nodeISA_PvEENS_22__hash_node_destructorINS7_ISX_EEEEEEmOT_DpOT0_",
            "__ZN8nlohmann6detail9from_jsonINS_10basic_jsonINSt3__13mapENS3_6vectorENS3_12basic_stringIcNS3_11char_traitsIcEENS3_9allocatorIcEEEEbxydS9_NS_14adl_serializerENS5_IhNS9_IhEEEEEEjLi0EEEvRKT_RT0_",
            "__ZN8firebase9firestore4util8DiffSetsINS0_5model10FieldIndexENS4_12SemanticLessEEEvNSt3__13setIT_T0_NS6_9allocatorIS8_EEEESC_NS6_8functionIFNS1_16ComparisonResultERKS8_SG_EEENSD_IFvSG_EEESK_",
            "__ZN8firebase9firestore6nanopb17PrintMessageFieldINS0_22_google_protobuf_ValueEEENSt3__112basic_stringIcNS4_11char_traitsIcEENS4_9allocatorIcEEEEN4absl12lts_2024011611string_viewERKT_ib",
            "__ZN8firebase9firestore6nanopb14PrintEnumFieldINS0_57_google_firestore_v1_StructuredQuery_UnaryFilter_OperatorEEENSt3__112basic_stringIcNS4_11char_traitsIcEENS4_9allocatorIcEEEEN4absl12lts_2024011611string_viewET_ib",
            "__ZNSt3__16__treeINS_12__value_typeIiN8firebase9firestore4core10SyncEngine15LimboResolutionEEENS_19__map_value_compareIiS7_NS_4lessIiEELb1EEENS_9allocatorIS7_EEE12__find_equalIiEERPNS_16__tree_node_baseIPvEERPNS_15__tree_end_nodeISJ_EERKT_",
            "__ZN8firebase9firestore4util4impl16RankedInvokeHashINS0_5model14AggregateFieldEEEDTcldtfp_4HashEERKT_NS2_10HashChoiceILi0EEE",
            "__ZNSt3__114__split_bufferIPPKN8firebase9firestore9immutable4impl8LlrbNodeINS2_5model11DocumentKeyENS6_15MutableDocumentEEERNS_9allocatorISC_EEE18__construct_at_endINS_13move_iteratorIPSC_EEEENS_9enable_ifIXsr31__has_forward_iterator_categoryIT_EE5valueEvE4typeESM_SM_",
            "__ZNSt3__114__split_bufferIPN8firebase9firestore4util17RandomAccessQueueINS2_5model11DocumentKeyEJNS5_15DocumentKeyHashEEE10QueueEntryERNS_9allocatorISA_EEE28__construct_at_end_with_sizeINS_13move_iteratorIPSA_EEEEvT_m",
            "__ZN8firebase9firestore6nanopb17PrintMessageFieldINS0_21_firestore_NamedQueryEEENSt3__112basic_stringIcNS4_11char_traitsIcEENS4_9allocatorIcEEEEN4absl12lts_2024011611string_viewERKT_ib",
            "__ZN8firebase9firestore4util12StringFormatIJ23NSPredicateOperatorTypeEEENSt3__112basic_stringIcNS4_11char_traitsIcEENS4_9allocatorIcEEEEPKcDpRKT_",
            "__ZN8firebase9firestore9immutable4impl8LlrbNodeINS0_5model8DocumentENS0_4util5EmptyEE10RotateLeftEv",
            "__ZN8nlohmann6detail7to_jsonINS_10basic_jsonINSt3__13mapENS3_6vectorENS3_12basic_stringIcNS3_11char_traitsIcEENS3_9allocatorIcEEEEbxydS9_NS_14adl_serializerENS5_IhNS9_IhEEEEEEbLi0EEEvRT_T0_",
            "__ZN4absl12lts_2024011616numbers_internal16safe_strtoi_baseIyEEbNS0_11string_viewEPT_i",
            "__ZN4absl12lts_2024011618container_internal15memory_internal17DecomposePairImplINS1_12raw_hash_setINS1_17FlatHashMapPolicyINSt3__112basic_stringIcNS6_11char_traitsIcEENS6_9allocatorIcEEEESC_EENS1_10StringHashENS1_8StringEqENSA_INS6_4pairIKSC_SC_EEEEE19EmplaceDecomposableEOSC_NS6_5tupleIJSM_EEEEEDTclclsr3stdE7declvalIT_EEclsr3stdE7declvalIRKT0_EEL_ZNS6_L19piecewise_constructEEclsr3stdE7declvalINSN_IJSQ_EEEEEclsr3stdE7declvalIT1_EEEEOSP_NSG_IST_SU_EE",
            "__ZNSt3__112__hash_tableINS_12basic_stringIcNS_11char_traitsIcEENS_9allocatorIcEEEENS_4hashIS6_EENS_8equal_toIS6_EENS4_IS6_EEE11__do_rehashILb1EEEvm",
            "__ZN8firebase9firestore4util4impl16RankedInvokeHashINS0_4core6TargetEEEDTcldtfp_4HashEERKT_NS2_10HashChoiceILi0EEE",
            "__ZN8firebase9firestore4util4impl12HashInternalINS0_4core18DocumentViewChange4TypeEJEEEmmRKT_DpRKT0_",
            "__ZN8firebase9firestore6nanopb17PrintMessageFieldINS0_36_google_firestore_v1_ExistenceFilterEEENSt3__112basic_stringIcNS4_11char_traitsIcEENS4_9allocatorIcEEEEN4absl12lts_2024011611string_viewERKT_ib",
            "__ZN8firebase9firestore4util4impl10InvokeHashINS1_5rangeIPKhEEEEmRKT_",
            "__ZN8firebase9firestore6nanopb17PrintMessageFieldINS0_35_google_firestore_v1_DocumentChangeEEENSt3__112basic_stringIcNS4_11char_traitsIcEENS4_9allocatorIcEEEEN4absl12lts_2024011611string_viewERKT_ib",
            "__ZN8firebase9firestore4util4impl11CompareImplImvEENS1_16ComparisonResultERKT_S7_NS2_13CompareChoiceILi2EEE",
            "__ZNSt3__112__hash_tableINS_17__hash_value_typeIN8firebase9firestore5model11DocumentKeyENS3_4core18DocumentViewChange4TypeEEENS_22__unordered_map_hasherIS5_S9_NS4_15DocumentKeyHashENS_8equal_toIS5_EELb1EEENS_21__unordered_map_equalIS5_S9_SD_SB_Lb1EEENS_9allocatorIS9_EEE4findIS5_EENS_15__hash_iteratorIPNS_11__hash_nodeIS9_PvEEEERKT_",
            "__ZN8firebase9firestore6remote14MakeByteBufferINS0_47_google_firestore_v1_RunAggregationQueryRequestEEEN4grpc10ByteBufferERKNS0_6nanopb7MessageIT_EE",
            "__ZN8firebase9firestore9immutable4impl8LlrbNodeINS0_5model11DocumentKeyENS4_8DocumentEE10RotateLeftEv",
            "__ZN8firebase9firestore4util4impl12HashInternalINS0_3api30MemoryGargabeCollectorSettings12MemoryGcKindEJEEEmmRKT_DpRKT0_",
            "__ZN8firebase9firestore6nanopb17PrintMessageFieldINS0_26_google_firestore_v1_ValueEEENSt3__112basic_stringIcNS4_11char_traitsIcEENS4_9allocatorIcEEEEN4absl12lts_2024011611string_viewERKT_ib",
            "__ZN8firebase9firestore6nanopb14PrintEnumFieldINS0_61_google_firestore_v1_StructuredQuery_CompositeFilter_OperatorEEENSt3__112basic_stringIcNS4_11char_traitsIcEENS4_9allocatorIcEEEEN4absl12lts_2024011611string_viewET_ib",
            "__ZN8firebase9firestore4util4impl16RankedInvokeHashINS0_5model11ObjectValueEEEDTcldtfp_4HashEERKT_NS2_10HashChoiceILi0EEE",
            "__ZN8firebase9firestore6nanopb17PrintMessageFieldINS0_33_google_firestore_v1_DocumentMaskEEENSt3__112basic_stringIcNS4_11char_traitsIcEENS4_9allocatorIcEEEEN4absl12lts_2024011611string_viewERKT_ib",
            "__ZNSt3__112__hash_tableINS_17__hash_value_typeIN8firebase9firestore11credentials4UserENS_10unique_ptrINS3_5local26MemoryDocumentOverlayCacheENS_14default_deleteIS8_EEEEEENS_22__unordered_map_hasherIS5_SC_NS4_8HashUserENS_8equal_toIS5_EELb1EEENS_21__unordered_map_equalIS5_SC_SG_SE_Lb1EEENS_9allocatorISC_EEE4findIS5_EENS_15__hash_iteratorIPNS_11__hash_nodeISC_PvEEEERKT_",
            "__ZNSt3__16__treeINS_12__value_typeIN8firebase9firestore5model11DocumentKeyENS4_8DocumentEEENS_19__map_value_compareIS5_S7_NS_4lessIS5_EELb1EEENS_9allocatorIS7_EEE25__emplace_unique_key_argsIS5_JRKNS_21piecewise_construct_tENS_5tupleIJRKS5_EEENSJ_IJEEEEEENS_4pairINS_15__tree_iteratorIS7_PNS_11__tree_nodeIS7_PvEElEEbEERKT_DpOT0_",
            "__ZNSt3__112__hash_tableINS_17__hash_value_typeIiN8firebase9firestore5local10TargetDataEEENS_22__unordered_map_hasherIiS6_NS_4hashIiEENS_8equal_toIiEELb1EEENS_21__unordered_map_equalIiS6_SB_S9_Lb1EEENS_9allocatorIS6_EEE25__emplace_unique_key_argsIiJRKNS_21piecewise_construct_tENS_5tupleIJRKiEEENSM_IJEEEEEENS_4pairINS_15__hash_iteratorIPNS_11__hash_nodeIS6_PvEEEEbEERKT_DpOT0_",
            "__ZN4absl12lts_2024011616strings_internal9JoinRangeINSt3__16vectorIN8firebase9firestore5model8MutationENS3_9allocatorIS8_EEEERZNS6_4util4impl12ToStringImplISB_vEENS3_12basic_stringIcNS3_11char_traitsIcEENS9_IcEEEERKT_NSD_14ToStringChoiceILi5EEEEUlPSJ_RKS8_E_EESJ_SM_NS0_11string_viewEOT0_",
            "__ZN8firebase9firestore4util4impl10InvokeHashIN4absl12lts_202401168optionalIiEEEEmRKT_",
            "__ZN8firebase9firestore4util4impl10InvokeHashINS0_5model8DocumentEEEmRKT_",
            "__ZNSt3__112__hash_tableINS_17__hash_value_typeIN8firebase9firestore5model11DocumentKeyEPNS3_4util17RandomAccessQueueIS5_JNS4_15DocumentKeyHashEEE10QueueEntryEEENS_22__unordered_map_hasherIS5_SC_S8_NS_8equal_toIS5_EELb1EEENS_21__unordered_map_equalIS5_SC_SF_S8_Lb1EEENS_9allocatorISC_EEE25__emplace_unique_key_argsIS5_JRKS5_DnEEENS_4pairINS_15__hash_iteratorIPNS_11__hash_nodeISC_PvEEEEbEERKT_DpOT0_",
            "__ZN8firebase9firestore4util20ThrowInvalidArgumentIJNSt3__112basic_stringIcNS3_11char_traitsIcEENS3_9allocatorIcEEEES9_EEEvPKcDpRKT_",
            "__ZNK8firebase9firestore9immutable4impl8LlrbNodeINS0_5model8DocumentENS0_4util5EmptyEE10InnerEraseINS4_18DocumentComparatorEEES8_RKS5_RKT_",
            "__ZNSt3__112__hash_tableINS_17__hash_value_typeIiNS_6vectorIN8firebase9firestore4core5QueryENS_9allocatorIS6_EEEEEENS_22__unordered_map_hasherIiSA_NS_4hashIiEENS_8equal_toIiEELb1EEENS_21__unordered_map_equalIiSA_SF_SD_Lb1EEENS7_ISA_EEE25__emplace_unique_key_argsIiJRKNS_21piecewise_construct_tENS_5tupleIJRKiEEENSP_IJEEEEEENS_4pairINS_15__hash_iteratorIPNS_11__hash_nodeISA_PvEEEEbEERKT_DpOT0_",
            "__ZN8firebase9firestore6nanopb14PrintEnumFieldINS0_46_google_firestore_v1_StructuredQuery_DirectionEEENSt3__112basic_stringIcNS4_11char_traitsIcEENS4_9allocatorIcEEEEN4absl12lts_2024011611string_viewET_ib",
            "__ZNSt3__16__treeINS_12__value_typeIN8firebase9firestore5model11DocumentKeyEiEENS_19__map_value_compareIS5_S6_NS_4lessIS5_EELb1EEENS_9allocatorIS6_EEE12__find_equalIS5_EERPNS_16__tree_node_baseIPvEERPNS_15__tree_end_nodeISI_EERKT_",
            "__ZN8firebase9firestore6nanopb17PrintMessageFieldINS0_47_google_firestore_v1_StructuredAggregationQueryEEENSt3__112basic_stringIcNS4_11char_traitsIcEENS4_9allocatorIcEEEEN4absl12lts_2024011611string_viewERKT_ib",
            "__ZNSt3__112__hash_tableINS_17__hash_value_typeIN8firebase9firestore4core6TargetENS_6vectorIS5_NS_9allocatorIS5_EEEEEENS_22__unordered_map_hasherIS5_SA_NS_4hashIS5_EENS_8equal_toIS5_EELb1EEENS_21__unordered_map_equalIS5_SA_SF_SD_Lb1EEENS7_ISA_EEE11__do_rehashILb1EEEvm",
            "__ZNSt3__112__hash_tableINS_17__hash_value_typeINS_12basic_stringIcNS_11char_traitsIcEENS_9allocatorIcEEEENS_10unique_ptrIN8firebase9firestore5local20LevelDbMutationQueueENS_14default_deleteISC_EEEEEENS_22__unordered_map_hasherIS7_SG_NS_4hashIS7_EENS_8equal_toIS7_EELb1EEENS_21__unordered_map_equalIS7_SG_SL_SJ_Lb1EEENS5_ISG_EEE21__construct_node_hashINS_4pairIKS7_SF_EEJEEENS8_INS_11__hash_nodeISG_PvEENS_22__hash_node_destructorINS5_ISX_EEEEEEmOT_DpOT0_",
            "__ZNKR8firebase9firestore4util8StatusOrINS1_4PathEE6statusEv",
            "__ZN8firebase9firestore6nanopb17PrintMessageFieldINS0_19_google_type_LatLngEEENSt3__112basic_stringIcNS4_11char_traitsIcEENS4_9allocatorIcEEEEN4absl12lts_2024011611string_viewERKT_ib",
            "__ZNSt3__114__split_bufferIPPKN8firebase9firestore9immutable4impl8LlrbNodeINS2_5model11DocumentKeyENS6_7OverlayEEERNS_9allocatorISC_EEE18__construct_at_endINS_13move_iteratorIPSC_EEEENS_9enable_ifIXsr31__has_forward_iterator_categoryIT_EE5valueEvE4typeESM_SM_",
            "__ZNSt3__112__hash_tableINS_17__hash_value_typeIN8firebase9firestore5model11DocumentKeyENS4_15MutableDocumentEEENS_22__unordered_map_hasherIS5_S7_NS4_15DocumentKeyHashENS_8equal_toIS5_EELb1EEENS_21__unordered_map_equalIS5_S7_SB_S9_Lb1EEENS_9allocatorIS7_EEE11__do_rehashILb1EEEvm",
            "__ZNSt3__16__treeINS_12__value_typeIiN8firebase9firestore4core10SyncEngine15LimboResolutionEEENS_19__map_value_compareIiS7_NS_4lessIiEELb1EEENS_9allocatorIS7_EEE4findIiEENS_15__tree_iteratorIS7_PNS_11__tree_nodeIS7_PvEElEERKT_",
            "__ZNSt3__112__hash_tableINS_17__hash_value_typeINS_12basic_stringIcNS_11char_traitsIcEENS_9allocatorIcEEEEN8firebase9firestore9immutable9SortedSetINS9_5model11DocumentKeyENS9_4util10ComparatorISD_EEEEEENS_22__unordered_map_hasherIS7_SI_NS_4hashIS7_EENS_8equal_toIS7_EELb1EEENS_21__unordered_map_equalIS7_SI_SN_SL_Lb1EEENS5_ISI_EEE11__do_rehashILb1EEEvm",
            "__ZNR8firebase9firestore4util8StatusOrINSt3__112basic_stringIcNS3_11char_traitsIcEENS3_9allocatorIcEEEEE10ValueOrDieEv",
            "__ZNSt3__15dequeIPKN8firebase9firestore9immutable4impl8LlrbNodeINS2_5model11DocumentKeyENS2_4core18DocumentViewChangeEEENS_9allocatorISC_EEE18__append_with_sizeB8ue170006INS_16__deque_iteratorISC_PKSC_RSI_PKSJ_lLl512EEEEEvT_m",
            "__ZN8firebase9firestore6nanopb14PrintEnumFieldINS0_33_firestore_BundledQuery_LimitTypeEEENSt3__112basic_stringIcNS4_11char_traitsIcEENS4_9allocatorIcEEEEN4absl12lts_2024011611string_viewET_ib",
            "__ZN8firebase9firestore4util4impl12HashInternalImJEEEmmRKT_DpRKT0_",
            "__ZN8firebase9firestore4util20ThrowInvalidArgumentIJU8__strongP8NSStringNSt3__112basic_stringIcNS6_11char_traitsIcEENS6_9allocatorIcEEEEEEEvPKcDpRKT_",
            "__ZN4absl12lts_2024011610SimpleAtoiIxEEbNS0_11string_viewEPT_",
            "__ZN8firebase9firestore6nanopb11ResizeArrayINS0_26_google_firestore_v1_ValueEEEPT_Pvm",
            "__ZN8firebase9firestore6nanopb9MakeArrayINS0_42_google_firestore_v1_StructuredQuery_OrderEEEPT_j",
            "__ZNSt3__16vectorIN8firebase9firestore5model11DocumentKeyENS_9allocatorIS4_EEE18__construct_at_endIPKS4_SA_EEvT_T0_m",
            "__ZNSt3__114__split_bufferIPPKN8firebase9firestore9immutable4impl8LlrbNodeINS2_5model11DocumentKeyENS2_4core18DocumentViewChangeEEERNS_9allocatorISD_EEE28__construct_at_end_with_sizeINS_13move_iteratorIPSD_EEEEvT_m",
            "__ZNSt3__16vectorIN8firebase9firestore4core6FilterENS_9allocatorIS4_EEE6assignIPS4_Li0EEEvT_SA_",
            "__ZN8firebase9firestore9immutable4impl8LlrbNodeINS0_5model11DocumentKeyENS4_15MutableDocumentEE12FixRootColorEv",
            "__ZNSt3__16__treeINS_12__value_typeINS_12basic_stringIcNS_11char_traitsIcEENS_9allocatorIcEEEEN8nlohmann10basic_jsonINS_3mapENS_6vectorES7_bxydS5_NS8_14adl_serializerENSB_IhNS5_IhEEEEEEEENS_19__map_value_compareIS7_SG_NS_4lessIvEELb1EEENS5_ISG_EEE25__emplace_unique_key_argsIS7_JRKNS_21piecewise_construct_tENS_5tupleIJRKS7_EEENSR_IJEEEEEENS_4pairINS_15__tree_iteratorISG_PNS_11__tree_nodeISG_PvEElEEbEERKT_DpOT0_",
            "__ZN8firebase9firestore6nanopb17PrintMessageFieldINS0_48_google_firestore_v1_StructuredQuery_UnaryFilterEEENSt3__112basic_stringIcNS4_11char_traitsIcEENS4_9allocatorIcEEEEN4absl12lts_2024011611string_viewERKT_ib",
            "__ZN8firebase9firestore9immutable4impl8LlrbNodeINS0_5model11DocumentKeyENS0_4util5EmptyEE10RotateLeftEv",
            "__ZN8firebase9firestore4util4impl12HashInternalIN4absl12lts_202401168optionalINS0_5model8DocumentEEEJNS0_3api16SnapshotMetadataEEEEmmRKT_DpRKT0_",
            "__ZNSt3__112__hash_tableINS_17__hash_value_typeINS_12basic_stringIcNS_11char_traitsIcEENS_9allocatorIcEEEEN8firebase9firestore6bundle10NamedQueryEEENS_22__unordered_map_hasherIS7_SC_NS_4hashIS7_EENS_8equal_toIS7_EELb1EEENS_21__unordered_map_equalIS7_SC_SH_SF_Lb1EEENS5_ISC_EEE25__emplace_unique_key_argsIS7_JRKNS_21piecewise_construct_tENS_5tupleIJRKS7_EEENSR_IJEEEEEENS_4pairINS_15__hash_iteratorIPNS_11__hash_nodeISC_PvEEEEbEERKT_DpOT0_",
            "__ZN4absl12lts_2024011616strings_internal9JoinRangeINSt3__16vectorIN8firebase9firestore5model14MutationResultENS3_9allocatorIS8_EEEERZNS6_4util4impl12ToStringImplISB_vEENS3_12basic_stringIcNS3_11char_traitsIcEENS9_IcEEEERKT_NSD_14ToStringChoiceILi5EEEEUlPSJ_RKS8_E_EESJ_SM_NS0_11string_viewEOT0_",
            "__ZN8firebase9firestore9immutable4impl8LlrbNodeINS0_5model11DocumentKeyENS4_7OverlayEE9FlipColorEv",
            "__ZN8firebase9firestore6nanopb14PrintEnumFieldINS0_26_google_protobuf_NullValueEEENSt3__112basic_stringIcNS4_11char_traitsIcEENS4_9allocatorIcEEEEN4absl12lts_2024011611string_viewET_ib",
            "__ZNKR8firebase9firestore4util8StatusOrINSt3__16vectorINS0_5model8DocumentENS3_9allocatorIS6_EEEEE6statusEv",
            "__ZN8firebase9firestore6nanopb7MessageINS0_48_google_firestore_v1_RunAggregationQueryResponseEE8TryParseEPNS1_6ReaderE",
            "__ZN8firebase9firestore4util4impl16RankedInvokeHashINS0_4core18DocumentViewChangeEEEDTcldtfp_4HashEERKT_NS2_10HashChoiceILi0EEE",
            "__ZN8firebase9firestore9immutable4impl8LlrbNodeINS0_5model11DocumentKeyENS0_4util5EmptyEE11MoveRedLeftEv",
            "__ZN4absl12lts_202401166c_findINSt3__16vectorINS2_10shared_ptrIN8firebase9firestore4core13QueryListenerEEENS2_9allocatorIS9_EEEERKS9_EEDTcl5beginclsr3stdE7declvalIRT_EEEESG_OT0_",
            "__ZNK8firebase9firestore9immutable4impl8LlrbNodeINS0_5model11DocumentKeyENS4_15MutableDocumentEE6insertINS0_4util10ComparatorIS5_EEEES7_RKS5_RKS6_RKT_",
            "__ZN8firebase9firestore4util12StringFormatIJPNS1_4TaskEiEEENSt3__112basic_stringIcNS5_11char_traitsIcEENS5_9allocatorIcEEEEPKcDpRKT_",
            "__ZNSt3__112__hash_tableINS_17__hash_value_typeIN8firebase9firestore5model11DocumentKeyENS_3setIiNS_4lessIiEENS_9allocatorIiEEEEEENS_22__unordered_map_hasherIS5_SC_NS4_15DocumentKeyHashENS_8equal_toIS5_EELb1EEENS_21__unordered_map_equalIS5_SC_SG_SE_Lb1EEENS9_ISC_EEE8__rehashILb1EEEvm",
            "__ZN8firebase9firestore4util7CompareIxNS1_10ComparatorIxEEEENS1_16ComparisonResultERKT_S8_RKT0_",
            "__ZN8firebase9firestore6nanopb15FreeFieldsArrayINS0_41_google_firestore_v1_MapValue_FieldsEntryEEEvPT_",
            "__ZNSt3__16__treeINS_12__value_typeINS_12basic_stringIcNS_11char_traitsIcEENS_9allocatorIcEEEEN8nlohmann10basic_jsonINS_3mapENS_6vectorES7_bxydS5_NS8_14adl_serializerENSB_IhNS5_IhEEEEEEEENS_19__map_value_compareIS7_SG_NS_4lessIvEELb1EEENS5_ISG_EEE4findIA6_cEENS_15__tree_iteratorISG_PNS_11__tree_nodeISG_PvEElEERKT_",
            "__ZNSt3__112__hash_tableINS_17__hash_value_typeIiN8firebase9firestore5model10FieldIndexEEENS_22__unordered_map_hasherIiS6_NS_4hashIiEENS_8equal_toIiEELb1EEENS_21__unordered_map_equalIiS6_SB_S9_Lb1EEENS_9allocatorIS6_EEE25__emplace_unique_key_argsIiJRKNS_21piecewise_construct_tENS_5tupleIJRKiEEENSM_IJEEEEEENS_4pairINS_15__hash_iteratorIPNS_11__hash_nodeIS6_PvEEEEbEERKT_DpOT0_",
            "__ZNSt3__112__hash_tableINS_12basic_stringIcNS_11char_traitsIcEENS_9allocatorIcEEEENS_4hashIS6_EENS_8equal_toIS6_EENS4_IS6_EEE25__emplace_unique_key_argsIS6_JRKS6_EEENS_4pairINS_15__hash_iteratorIPNS_11__hash_nodeIS6_PvEEEEbEERKT_DpOT0_",
            "__ZNSt3__16__treeIN8firebase9firestore5index10IndexEntryENS_4lessIS4_EENS_9allocatorIS4_EEE16__construct_nodeIJRKS4_EEENS_10unique_ptrINS_11__tree_nodeIS4_PvEENS_22__tree_node_destructorINS7_ISG_EEEEEEDpOT_",
            "__ZN4absl12lts_202401167StrJoinIN8firebase9firestore9immutable9SortedMapINS3_5model11DocumentKeyENS3_4core18DocumentViewChangeENS3_4util10ComparatorIS7_EEEEZNSA_4impl12ToStringImplISD_vEENSt3__112basic_stringIcNSG_11char_traitsIcEENSG_9allocatorIcEEEERKT_NSE_14ToStringChoiceILi4EEEEUlPSM_RKNSG_4pairIS7_S9_EEE_EESM_SP_NS0_11string_viewEOT0_",
            "__ZN8firebase9firestore4util4impl12HashInternalIxJNS0_5local12QueryPurposeENS0_5model15SnapshotVersionENS0_6nanopb10ByteStringEN4absl12lts_202401168optionalIiEEEEEmmRKT_DpRKT0_",
            "__ZN8firebase9firestore4util7CompareImNS1_10ComparatorImEEEENS1_16ComparisonResultERKT_S8_RKT0_",
            "__ZNSt3__112__hash_tableINS_17__hash_value_typeIN8firebase9firestore5model11DocumentKeyENS3_4core18DocumentViewChange4TypeEEENS_22__unordered_map_hasherIS5_S9_NS4_15DocumentKeyHashENS_8equal_toIS5_EELb1EEENS_21__unordered_map_equalIS5_S9_SD_SB_Lb1EEENS_9allocatorIS9_EEE11__do_rehashILb1EEEvm",
            "__ZNSt3__112__hash_tableINS_17__hash_value_typeIjPN8firebase9firestore4util4TaskEEENS_22__unordered_map_hasherIjS7_NS_4hashIjEENS_8equal_toIjEELb1EEENS_21__unordered_map_equalIjS7_SC_SA_Lb1EEENS_9allocatorIS7_EEE11__do_rehashILb1EEEvm",
            "__ZNSt3__112__hash_tableINS_17__hash_value_typeIN8firebase9firestore5model11DocumentKeyENS4_7OverlayEEENS_22__unordered_map_hasherIS5_S7_NS4_15DocumentKeyHashENS_8equal_toIS5_EELb1EEENS_21__unordered_map_equalIS5_S7_SB_S9_Lb1EEENS_9allocatorIS7_EEE8__rehashILb1EEEvm",
            "__ZNKR8firebase9firestore4util8StatusOrINS0_5model11ObjectValueEE10ValueOrDieEv",
            "__ZNSt3__111unique_lockINS_5mutexEE4lockEv",
            "__ZNSt3__112__hash_tableINS_17__hash_value_typeIN8firebase9firestore11credentials4UserENS_10unique_ptrINS3_5local19MemoryMutationQueueENS_14default_deleteIS8_EEEEEENS_22__unordered_map_hasherIS5_SC_NS4_8HashUserENS_8equal_toIS5_EELb1EEENS_21__unordered_map_equalIS5_SC_SG_SE_Lb1EEENS_9allocatorISC_EEE21__construct_node_hashIRKS5_JSB_EEENS6_INS_11__hash_nodeISC_PvEENS_22__hash_node_destructorINSK_ISS_EEEEEEmOT_DpOT0_",
            "__ZNSt3__16__treeINS_12__value_typeINS_12basic_stringIcNS_11char_traitsIcEENS_9allocatorIcEEEEN8nlohmann10basic_jsonINS_3mapENS_6vectorES7_bxydS5_NS8_14adl_serializerENSB_IhNS5_IhEEEEEEEENS_19__map_value_compareIS7_SG_NS_4lessIvEELb1EEENS5_ISG_EEE4findIA5_cEENS_15__tree_iteratorISG_PNS_11__tree_nodeISG_PvEElEERKT_",
            "__ZNR8firebase9firestore4util8StatusOrINS1_4PathEE10ValueOrDieEv",
            "__ZN4absl12lts_2024011618container_internal13DecomposePairINS1_12raw_hash_setINS1_17FlatHashMapPolicyINSt3__112basic_stringIcNS5_11char_traitsIcEENS5_9allocatorIcEEEESB_EENS1_10StringHashENS1_8StringEqENS9_INS5_4pairIKSB_SB_EEEEE12EqualElementISB_EEJRSH_EEEDTclsr15memory_internalE17DecomposePairImplclsr3stdE7forwardIT_Efp_Ecl8PairArgsspclsr3stdE7forwardIT0_Efp0_EEEEOSN_DpOSO_",
            "__ZNSt3__112__hash_tableINS_17__hash_value_typeIN8firebase9firestore4core6TargetEiEENS_22__unordered_map_hasherIS5_S6_NS_4hashIS5_EENS_8equal_toIS5_EELb1EEENS_21__unordered_map_equalIS5_S6_SB_S9_Lb1EEENS_9allocatorIS6_EEE14__erase_uniqueIS5_EEmRKT_",
            "__ZNSt3__16__treeINS_12__value_typeIiN8firebase9firestore9immutable9SortedSetINS3_5model11DocumentKeyENS3_4util10ComparatorIS7_EEEEEENS_19__map_value_compareIiSC_NS_4lessIiEELb1EEENS_9allocatorISC_EEE25__emplace_unique_key_argsIiJRKNS_21piecewise_construct_tENS_5tupleIJRKiEEENSO_IJEEEEEENS_4pairINS_15__tree_iteratorISC_PNS_11__tree_nodeISC_PvEElEEbEERKT_DpOT0_",
            "__ZNSt3__112__hash_tableINS_17__hash_value_typeIjPN8firebase9firestore4util4TaskEEENS_22__unordered_map_hasherIjS7_NS_4hashIjEENS_8equal_toIjEELb1EEENS_21__unordered_map_equalIjS7_SC_SA_Lb1EEENS_9allocatorIS7_EEE25__emplace_unique_key_argsIjJRKNS_21piecewise_construct_tENS_5tupleIJRKjEEENSN_IJEEEEEENS_4pairINS_15__hash_iteratorIPNS_11__hash_nodeIS7_PvEEEEbEERKT_DpOT0_",
            "__ZNSt3__112basic_stringIcNS_11char_traitsIcEENS_9allocatorIcEEE20__init_with_sentinelB8ue170006IPKhS8_EEvT_T0_",
            "__ZNKR8firebase9firestore4util8StatusOrINS0_4core12ViewSnapshotEE6statusEv",
            "__ZN8firebase9firestore4util12StringFormatIJiiEEENSt3__112basic_stringIcNS3_11char_traitsIcEENS3_9allocatorIcEEEEPKcDpRKT_",
            "__ZNSt3__16__treeINS_12__value_typeINS_12basic_stringIcNS_11char_traitsIcEENS_9allocatorIcEEEEN8nlohmann10basic_jsonINS_3mapENS_6vectorES7_bxydS5_NS8_14adl_serializerENSB_IhNS5_IhEEEEEEEENS_19__map_value_compareIS7_SG_NS_4lessIvEELb1EEENS5_ISG_EEE30__emplace_hint_unique_key_argsIS7_JRKNS_4pairIKS7_SF_EEEEENSO_INS_15__tree_iteratorISG_PNS_11__tree_nodeISG_PvEElEEbEENS_21__tree_const_iteratorISG_SX_lEERKT_DpOT0_",
            "__ZNO8firebase9firestore4util8StatusOrINSt3__110unique_ptrIN7leveldb2DBENS3_14default_deleteIS6_EEEEE10ValueOrDieEv",
            "__ZN4absl12lts_2024011610SimpleAtoiIyEEbNS0_11string_viewEPT_",
            "__ZN8firebase9firestore4util4impl12HashInternalINSt3__112basic_stringIcNS4_11char_traitsIcEENS4_9allocatorIcEEEEJbEEEmmRKT_DpRKT0_",
            "__ZN8firebase9firestore6nanopb14MakeByteStringINS0_24_firestore_client_TargetEEENS1_10ByteStringERKNS1_7MessageIT_EE",
            "__ZNSt3__112__hash_tableINS_17__hash_value_typeINS_12basic_stringIcNS_11char_traitsIcEENS_9allocatorIcEEEEN8firebase9firestore6bundle10NamedQueryEEENS_22__unordered_map_hasherIS7_SC_NS_4hashIS7_EENS_8equal_toIS7_EELb1EEENS_21__unordered_map_equalIS7_SC_SH_SF_Lb1EEENS5_ISC_EEE8__rehashILb1EEEvm",
            "__ZN8firebase9firestore6nanopb17PrintMessageFieldINS0_27_google_firestore_v1_CursorEEENSt3__112basic_stringIcNS4_11char_traitsIcEENS4_9allocatorIcEEEEN4absl12lts_2024011611string_viewERKT_ib",
            "__ZNKSt3__112__hash_tableINS_17__hash_value_typeIiN8firebase9firestore5local12QueryPurposeEEENS_22__unordered_map_hasherIiS6_NS_4hashIiEENS_8equal_toIiEELb1EEENS_21__unordered_map_equalIiS6_SB_S9_Lb1EEENS_9allocatorIS6_EEE4findIiEENS_21__hash_const_iteratorIPNS_11__hash_nodeIS6_PvEEEERKT_",
            "__ZNSt3__15dequeIPKN8firebase9firestore9immutable4impl8LlrbNodeINS2_5model11DocumentKeyENS6_15MutableDocumentEEENS_9allocatorISB_EEE18__append_with_sizeB8ue170006INS_16__deque_iteratorISB_PKSB_RSH_PKSI_lLl512EEEEEvT_m",
            "__ZN8firebase9firestore6nanopb7MessageINS0_31_firestore_client_MutationQueueEE8TryParseEPNS1_6ReaderE",
            "__ZNR8firebase9firestore4util8StatusOrINS0_9immutable9SortedMapINS0_5model11DocumentKeyENS5_8DocumentENS1_10ComparatorIS6_EEEEE10ValueOrDieEv",
            "__ZN8nlohmann6detail20get_arithmetic_valueINS_10basic_jsonINSt3__13mapENS3_6vectorENS3_12basic_stringIcNS3_11char_traitsIcEENS3_9allocatorIcEEEEbxydS9_NS_14adl_serializerENS5_IhNS9_IhEEEEEEdLi0EEEvRKT_RT0_",
            "__ZNK8firebase9firestore9immutable4impl8LlrbNodeINS0_5model11DocumentKeyENS4_15MutableDocumentEE11InnerInsertINS0_4util10ComparatorIS5_EEEES7_RKS5_RKS6_RKT_",
            "__ZNSt3__112__hash_tableINS_17__hash_value_typeINS_12basic_stringIcNS_11char_traitsIcEENS_9allocatorIcEEEENS_10unique_ptrIN8firebase9firestore5local19LevelDbIndexManagerENS_14default_deleteISC_EEEEEENS_22__unordered_map_hasherIS7_SG_NS_4hashIS7_EENS_8equal_toIS7_EELb1EEENS_21__unordered_map_equalIS7_SG_SL_SJ_Lb1EEENS5_ISG_EEE25__emplace_unique_key_argsIS7_JRKNS_21piecewise_construct_tENS_5tupleIJRKS7_EEENSV_IJEEEEEENS_4pairINS_15__hash_iteratorIPNS_11__hash_nodeISG_PvEEEEbEERKT_DpOT0_",
            "__ZNSt3__112__hash_tableIN8firebase9firestore5model11DocumentKeyENS3_15DocumentKeyHashENS_8equal_toIS4_EENS_9allocatorIS4_EEE25__emplace_unique_key_argsIS4_JRKS4_EEENS_4pairINS_15__hash_iteratorIPNS_11__hash_nodeIS4_PvEEEEbEERKT_DpOT0_",
            "__ZN4absl12lts_202401168StrSplitIcNS0_9SkipEmptyEEENS0_16strings_internal8SplitterINS3_15SelectDelimiterIT_E4typeET0_NS0_11string_viewEEENS3_23ConvertibleToStringViewES6_S9_",
            "__ZNSt3__112__hash_tableINS_17__hash_value_typeIN8firebase9firestore5model11DocumentKeyEN4absl12lts_202401168optionalINS4_9FieldMaskEEEEENS_22__unordered_map_hasherIS5_SB_NS4_15DocumentKeyHashENS_8equal_toIS5_EELb1EEENS_21__unordered_map_equalIS5_SB_SF_SD_Lb1EEENS_9allocatorISB_EEE21__construct_node_hashINS_4pairIKS5_SA_EEJEEENS_10unique_ptrINS_11__hash_nodeISB_PvEENS_22__hash_node_destructorINSJ_IST_EEEEEEmOT_DpOT0_",
            "__ZN8firebase9firestore4util4impl10InvokeHashINSt3__112basic_stringIcNS4_11char_traitsIcEENS4_9allocatorIcEEEEEEmRKT_",
            "__ZNSt3__112__hash_tableINS_17__hash_value_typeIjPN8firebase9firestore4util4TaskEEENS_22__unordered_map_hasherIjS7_NS_4hashIjEENS_8equal_toIjEELb1EEENS_21__unordered_map_equalIjS7_SC_SA_Lb1EEENS_9allocatorIS7_EEE8__rehashILb1EEEvm",
            "__ZN8firebase9firestore4util12StringFormatIJjiiEEENSt3__112basic_stringIcNS3_11char_traitsIcEENS3_9allocatorIcEEEEPKcDpRKT_",
            "__ZN4absl12lts_2024011618container_internal13DecomposePairINS1_12raw_hash_setINS1_17FlatHashMapPolicyINSt3__112basic_stringIcNS5_11char_traitsIcEENS5_9allocatorIcEEEEN8firebase9firestore5model14AggregateFieldEEENS1_10StringHashENS1_8StringEqENS9_INS5_4pairIKSB_SF_EEEEE11HashElementEJRSL_EEEDTclsr15memory_internalE17DecomposePairImplclsr3stdE7forwardIT_Efp_Ecl8PairArgsspclsr3stdE7forwardIT0_Efp0_EEEEOSQ_DpOSR_",
            "__ZNSt3__16__treeIN8firebase9firestore5model9FieldPathENS_4lessIS4_EENS_9allocatorIS4_EEE14__assign_multiINS_21__tree_const_iteratorIS4_PNS_11__tree_nodeIS4_PvEElEEEEvT_SH_",
            "__ZNSt3__16__treeINS_12__value_typeIN8firebase9firestore5model11DocumentKeyEiEENS_19__map_value_compareIS5_S6_NS_4lessIS5_EELb1EEENS_9allocatorIS6_EEE13__lower_boundIS5_EENS_15__tree_iteratorIS6_PNS_11__tree_nodeIS6_PvEElEERKT_SJ_PNS_15__tree_end_nodeIPNS_16__tree_node_baseISH_EEEE",
            "__ZNSt3__112__hash_tableINS_17__hash_value_typeINS_12basic_stringIcNS_11char_traitsIcEENS_9allocatorIcEEEENS_13unordered_mapIiN8firebase9firestore5model10FieldIndexENS_4hashIiEENS_8equal_toIiEENS5_INS_4pairIKiSC_EEEEEEEENS_22__unordered_map_hasherIS7_SM_NSD_IS7_EENSF_IS7_EELb1EEENS_21__unordered_map_equalIS7_SM_SP_SO_Lb1EEENS5_ISM_EEE8__rehashILb1EEEvm",
            "__ZNSt3__112__hash_tableINS_17__hash_value_typeIiNS_6vectorIN8firebase9firestore4core5QueryENS_9allocatorIS6_EEEEEENS_22__unordered_map_hasherIiSA_NS_4hashIiEENS_8equal_toIiEELb1EEENS_21__unordered_map_equalIiSA_SF_SD_Lb1EEENS7_ISA_EEE14__erase_uniqueIiEEmRKT_",
            "__ZN8firebase9firestore6nanopb9MakeArrayINS0_55_google_firestore_v1_StructuredQuery_CollectionSelectorEEEPT_j",
            "__ZNSt3__16__treeIN8firebase9firestore5model11DocumentKeyENS_4lessIS4_EENS_9allocatorIS4_EEE12__find_equalIS4_EERPNS_16__tree_node_baseIPvEERPNS_15__tree_end_nodeISE_EERKT_",
            "__ZNSt3__16__treeINS_12__value_typeINS_12basic_stringIcNS_11char_traitsIcEENS_9allocatorIcEEEEN8nlohmann10basic_jsonINS_3mapENS_6vectorES7_bxydS5_NS8_14adl_serializerENSB_IhNS5_IhEEEEEEEENS_19__map_value_compareIS7_SG_NS_4lessIvEELb1EEENS5_ISG_EEE4findIA10_cEENS_15__tree_iteratorISG_PNS_11__tree_nodeISG_PvEElEERKT_",
            "__ZN8firebase9firestore4util12StringFormatIJPNS0_6remote11RemoteStoreENSt3__112basic_stringIcNS6_11char_traitsIcEENS6_9allocatorIcEEEENS0_5ErrorESC_EEESC_PKcDpRKT_",
            "__ZN8firebase9firestore4util4HashIJNS0_3api30MemoryGargabeCollectorSettings12MemoryGcKindEEEEmDpRKT_",
            "__ZNSt3__112__hash_tableINS_17__hash_value_typeIiN8firebase9firestore5local10TargetDataEEENS_22__unordered_map_hasherIiS6_NS_4hashIiEENS_8equal_toIiEELb1EEENS_21__unordered_map_equalIiS6_SB_S9_Lb1EEENS_9allocatorIS6_EEE8__rehashILb1EEEvm",
            "__ZNSt3__16__treeIN8firebase9firestore4core11FieldFilterENS2_5model18TargetIndexMatcher21FieldFilterComparatorENS_9allocatorIS4_EEE16__construct_nodeIJRKS4_EEENS_10unique_ptrINS_11__tree_nodeIS4_PvEENS_22__tree_node_destructorINS8_ISH_EEEEEEDpOT_",
            "__ZNK8firebase9firestore9immutable4impl8LlrbNodeINS0_5local20DocumentKeyReferenceENS0_4util5EmptyEE10InnerEraseINS5_4ByIdEEES8_RKS5_RKT_",
            "__ZN8firebase9firestore4util7CompareINS_9TimestampENS1_10ComparatorIS3_EEEENS1_16ComparisonResultERKT_S9_RKT0_",
            "__ZN8firebase9firestore4util4impl10InvokeHashINS0_3api16DocumentSnapshotEEEmRKT_",
            "__ZN8firebase9firestore6nanopb8internal8ToStringIiEENSt3__112basic_stringIcNS4_11char_traitsIcEENS4_9allocatorIcEEEERKT_",
            "__ZN8firebase9firestore4util4impl12ToStringImplINS0_5model8DocumentEvEENSt3__112basic_stringIcNS6_11char_traitsIcEENS6_9allocatorIcEEEERKT_NS2_14ToStringChoiceILi1EEE",
            "__ZN8firebase9firestore4util4impl16RankedInvokeHashImEENSt3__19enable_ifIXsr12has_std_hashIT_EE5valueEmE4typeERKS6_NS2_10HashChoiceILi2EEE",
            "__ZNSt3__112__hash_tableINS_17__hash_value_typeINS_12basic_stringIcNS_11char_traitsIcEENS_9allocatorIcEEEENS_10unique_ptrIN8firebase9firestore5local19LevelDbIndexManagerENS_14default_deleteISC_EEEEEENS_22__unordered_map_hasherIS7_SG_NS_4hashIS7_EENS_8equal_toIS7_EELb1EEENS_21__unordered_map_equalIS7_SG_SL_SJ_Lb1EEENS5_ISG_EEE25__emplace_unique_key_argsIS7_JNS_4pairIKS7_SF_EEEEENSS_INS_15__hash_iteratorIPNS_11__hash_nodeISG_PvEEEEbEERKT_DpOT0_",
            "__ZN8firebase9firestore4util4HashIJPNS0_3api9FirestoreENS0_5model11DocumentKeyEN4absl12lts_202401168optionalINS6_8DocumentEEENS3_16SnapshotMetadataEEEEmDpRKT_",
            "__ZNSt3__112__hash_tableINS_17__hash_value_typeINS_12basic_stringIcNS_11char_traitsIcEENS_9allocatorIcEEEENS_10unique_ptrIN8firebase9firestore5local30LevelDbOverlayMigrationManagerENS_14default_deleteISC_EEEEEENS_22__unordered_map_hasherIS7_SG_NS_4hashIS7_EENS_8equal_toIS7_EELb1EEENS_21__unordered_map_equalIS7_SG_SL_SJ_Lb1EEENS5_ISG_EEE21__construct_node_hashIRKNS_21piecewise_construct_tEJNS_5tupleIJRKS7_EEENSV_IJEEEEEENS8_INS_11__hash_nodeISG_PvEENS_22__hash_node_destructorINS5_IS12_EEEEEEmOT_DpOT0_",
            "__ZN4absl12lts_2024011616strings_internal13JoinAlgorithmINSt3__111__wrap_iterIPKN8firebase9firestore5model14FieldTransformEEERZNS6_4util4impl12ToStringImplINS3_6vectorIS8_NS3_9allocatorIS8_EEEEvEENS3_12basic_stringIcNS3_11char_traitsIcEENSG_IcEEEERKT_NSD_14ToStringChoiceILi5EEEEUlPSN_RS9_E_EESN_SO_SO_NS0_11string_viewEOT0_",
            "__ZNSt3__16vectorIN8firebase9firestore4core6FilterENS_9allocatorIS4_EEE18__assign_with_sizeB8ue170006IPS4_S9_EEvT_T0_l",
            "__ZN8firebase9firestore4util4impl12HashInternalIbJEEEmmRKT_DpRKT0_",
            "__ZN8firebase9firestore4util12StringFormatIJN4absl12lts_2024011611string_viewEEEENSt3__112basic_stringIcNS6_11char_traitsIcEENS6_9allocatorIcEEEEPKcDpRKT_",
            "__ZNKSt3__112__hash_tableINS_17__hash_value_typeINS_12basic_stringIcNS_11char_traitsIcEENS_9allocatorIcEEEENS_13unordered_mapIiN8firebase9firestore5model10FieldIndexENS_4hashIiEENS_8equal_toIiEENS5_INS_4pairIKiSC_EEEEEEEENS_22__unordered_map_hasherIS7_SM_NSD_IS7_EENSF_IS7_EELb1EEENS_21__unordered_map_equalIS7_SM_SP_SO_Lb1EEENS5_ISM_EEE4findIS7_EENS_21__hash_const_iteratorIPNS_11__hash_nodeISM_PvEEEERKT_",
            "__ZNSt3__112__hash_tableINS_17__hash_value_typeIjPN8firebase9firestore4util4TaskEEENS_22__unordered_map_hasherIjS7_NS_4hashIjEENS_8equal_toIjEELb1EEENS_21__unordered_map_equalIjS7_SC_SA_Lb1EEENS_9allocatorIS7_EEE14__erase_uniqueIjEEmRKT_",
            "__ZN8firebase9firestore4util4impl10InvokeHashINSt3__16vectorINS4_12basic_stringIcNS4_11char_traitsIcEENS4_9allocatorIcEEEENS9_ISB_EEEEEEmRKT_",
            "__ZNSt3__16__treeINS_12__value_typeIiN8firebase9firestore4core10SyncEngine15LimboResolutionEEENS_19__map_value_compareIiS7_NS_4lessIiEELb1EEENS_9allocatorIS7_EEE16__construct_nodeIJRiS6_EEENS_10unique_ptrINS_11__tree_nodeIS7_PvEENS_22__tree_node_destructorINSC_ISK_EEEEEEDpOT_",
            "__ZN8firebase9firestore4util12StringFormatIJxEEENSt3__112basic_stringIcNS3_11char_traitsIcEENS3_9allocatorIcEEEEPKcDpRKT_",
            "__ZN8firebase9firestore6nanopb19PrintPrimitiveFieldIfEENSt3__112basic_stringIcNS3_11char_traitsIcEENS3_9allocatorIcEEEEN4absl12lts_2024011611string_viewET_ib",
            "__ZN8firebase9firestore4util4HashIJNSt3__16vectorINS3_12basic_stringIcNS3_11char_traitsIcEENS3_9allocatorIcEEEENS8_ISA_EEEEEEEmDpRKT_",
            "__ZNSt3__112__hash_tableINS_17__hash_value_typeINS_12basic_stringIcNS_11char_traitsIcEENS_9allocatorIcEEEENS_10unique_ptrIN8firebase9firestore5local20LevelDbMutationQueueENS_14default_deleteISC_EEEEEENS_22__unordered_map_hasherIS7_SG_NS_4hashIS7_EENS_8equal_toIS7_EELb1EEENS_21__unordered_map_equalIS7_SG_SL_SJ_Lb1EEENS5_ISG_EEE25__emplace_unique_key_argsIS7_JRKNS_21piecewise_construct_tENS_5tupleIJRKS7_EEENSV_IJEEEEEENS_4pairINS_15__hash_iteratorIPNS_11__hash_nodeISG_PvEEEEbEERKT_DpOT0_",
            "__ZN8firebase9firestore4util4impl12HashInternalImJNS0_5model11ObjectValueEEEEmmRKT_DpRKT0_",
            "__ZN8firebase9firestore4util4impl10InvokeHashINS0_5model14AggregateField6OpKindEEEmRKT_",
            "__ZNSt3__112__hash_tableINS_17__hash_value_typeIiN8firebase9firestore5local10TargetDataEEENS_22__unordered_map_hasherIiS6_NS_4hashIiEENS_8equal_toIiEELb1EEENS_21__unordered_map_equalIiS6_SB_S9_Lb1EEENS_9allocatorIS6_EEE21__construct_node_hashIRiJS5_EEENS_10unique_ptrINS_11__hash_nodeIS6_PvEENS_22__hash_node_destructorINSF_ISN_EEEEEEmOT_DpOT0_",
            "__ZNSt3__112__hash_tableINS_17__hash_value_typeIN8firebase9firestore5model11DocumentKeyENS3_4core18DocumentViewChange4TypeEEENS_22__unordered_map_hasherIS5_S9_NS4_15DocumentKeyHashENS_8equal_toIS5_EELb1EEENS_21__unordered_map_equalIS5_S9_SD_SB_Lb1EEENS_9allocatorIS9_EEE14__erase_uniqueIS5_EEmRKT_",
            "__ZNSt3__112__hash_tableINS_17__hash_value_typeIN8firebase9firestore5model11DocumentKeyENS3_6bundle23BundledDocumentMetadataEEENS_22__unordered_map_hasherIS5_S8_NS4_15DocumentKeyHashENS_8equal_toIS5_EELb1EEENS_21__unordered_map_equalIS5_S8_SC_SA_Lb1EEENS_9allocatorIS8_EEE25__emplace_unique_key_argsIS5_JRKS5_RKS7_EEENS_4pairINS_15__hash_iteratorIPNS_11__hash_nodeIS8_PvEEEEbEERKT_DpOT0_",
            "__ZN8firebase9firestore4util4impl10InvokeHashIiEEmRKT_",
            "__ZN8firebase9firestore4util4impl16RankedInvokeHashINS0_5local12QueryPurposeEvEEmT_NS2_10HashChoiceILi5EEE",
            "__ZN8firebase9firestore4util4impl12HashInternalIbJxNSt3__110unique_ptrINS0_3api18LocalCacheSettingsENS4_14default_deleteIS7_EEEEEEEmmRKT_DpRKT0_",
            "__ZNSt3__112__hash_tableINS_17__hash_value_typeINS_12basic_stringIcNS_11char_traitsIcEENS_9allocatorIcEEEENS_10unique_ptrIN8firebase9firestore5local30LevelDbOverlayMigrationManagerENS_14default_deleteISC_EEEEEENS_22__unordered_map_hasherIS7_SG_NS_4hashIS7_EENS_8equal_toIS7_EELb1EEENS_21__unordered_map_equalIS7_SG_SL_SJ_Lb1EEENS5_ISG_EEE8__rehashILb1EEEvm",
            "__ZN8firebase9firestore4util7CompareIN4absl12lts_2024011611string_viewENS1_10ComparatorIS5_EEEENS1_16ComparisonResultERKT_SB_RKT0_",
            "__ZN8firebase9firestore4util17internal_statusor12PlacementNewINS1_5EmptyEJRKS4_EEEvPvDpOT0_",
            "__ZNSt3__16__treeINS_12__value_typeINS_12basic_stringIcNS_11char_traitsIcEENS_9allocatorIcEEEEN8nlohmann10basic_jsonINS_3mapENS_6vectorES7_bxydS5_NS8_14adl_serializerENSB_IhNS5_IhEEEEEEEENS_19__map_value_compareIS7_SG_NS_4lessIvEELb1EEENS5_ISG_EEE4findIA15_cEENS_15__tree_iteratorISG_PNS_11__tree_nodeISG_PvEElEERKT_",
            "__ZN8firebase9firestore4util4impl12HashInternalINS0_3api18LocalCacheSettings4KindEJNS4_30MemoryGargabeCollectorSettingsEEEEmmRKT_DpRKT0_",
            "__ZNSt3__16__treeINS_12__value_typeINS_12basic_stringIcNS_11char_traitsIcEENS_9allocatorIcEEEES7_EENS_19__map_value_compareIS7_S8_NS_4lessIS7_EELb1EEENS5_IS8_EEE25__emplace_unique_key_argsIS7_JRKNS_21piecewise_construct_tENS_5tupleIJOS7_EEENSJ_IJEEEEEENS_4pairINS_15__tree_iteratorIS8_PNS_11__tree_nodeIS8_PvEElEEbEERKT_DpOT0_",
            "__ZN8firebase9firestore4util4impl10InvokeHashINS0_5model12ResourcePathEEEmRKT_",
            "__ZNSt3__112__hash_tableINS_17__hash_value_typeIN8firebase9firestore5model11DocumentKeyENS4_7OverlayEEENS_22__unordered_map_hasherIS5_S7_NS4_15DocumentKeyHashENS_8equal_toIS5_EELb1EEENS_21__unordered_map_equalIS5_S7_SB_S9_Lb1EEENS_9allocatorIS7_EEE11__do_rehashILb1EEEvm",
            "__ZN8firebase9firestore4util4impl16RankedInvokeHashINS0_6nanopb10ByteStringEEEDTcldtfp_4HashEERKT_NS2_10HashChoiceILi0EEE",
            "__ZN8firebase9firestore4util4impl12ToStringImplINS0_5model14MutationResultEvEENSt3__112basic_stringIcNS6_11char_traitsIcEENS6_9allocatorIcEEEERKT_NS2_14ToStringChoiceILi1EEE",
            "__ZNSt3__112__hash_tableINS_17__hash_value_typeIN8firebase9firestore5model11DocumentKeyENS3_4core18DocumentViewChange4TypeEEENS_22__unordered_map_hasherIS5_S9_NS4_15DocumentKeyHashENS_8equal_toIS5_EELb1EEENS_21__unordered_map_equalIS5_S9_SD_SB_Lb1EEENS_9allocatorIS9_EEE8__rehashILb1EEEvm",
            "__ZN8firebase9firestore4util4impl12HashInternalIPNS0_3api9FirestoreEJNS0_4core5QueryEEEEmmRKT_DpRKT0_",
            "__ZNSt3__16vectorIN8firebase9firestore5model8MutationENS_9allocatorIS4_EEE18__construct_at_endIPS4_S9_EEvT_T0_m",
            "__ZN8firebase9firestore4util4impl16RankedInvokeHashIhEENSt3__19enable_ifIXsr12has_std_hashIT_EE5valueEmE4typeERKS6_NS2_10HashChoiceILi2EEE",
            "__ZN4absl12lts_2024011616numbers_internal16safe_strtoi_baseIiEEbNS0_11string_viewEPT_i",
            "__ZN8firebase9firestore4util4impl10InvokeHashINS0_5model11ObjectValueEEEmRKT_",
            "__ZNSt3__112__hash_tableINS_17__hash_value_typeIiNS_6vectorINS_8functionIFvN8firebase9firestore4util6StatusEEEENS_9allocatorIS9_EEEEEENS_22__unordered_map_hasherIiSD_NS_4hashIiEENS_8equal_toIiEELb1EEENS_21__unordered_map_equalIiSD_SI_SG_Lb1EEENSA_ISD_EEE8__rehashILb1EEEvm",
            "__ZNSt3__112__hash_tableINS_17__hash_value_typeIN8firebase9firestore4core5QueryENS4_12EventManager18QueryListenersInfoEEENS_22__unordered_map_hasherIS5_S8_NS_4hashIS5_EENS_8equal_toIS5_EELb1EEENS_21__unordered_map_equalIS5_S8_SD_SB_Lb1EEENS_9allocatorIS8_EEE4findIS5_EENS_15__hash_iteratorIPNS_11__hash_nodeIS8_PvEEEERKT_",
            "__ZN8firebase9firestore4util4impl16RankedInvokeHashINS0_5model14FieldTransformEEEDTcldtfp_4HashEERKT_NS2_10HashChoiceILi0EEE",
            "__ZNSt3__112__hash_tableINS_17__hash_value_typeIN8firebase9firestore5model11DocumentKeyENS4_15MutableDocumentEEENS_22__unordered_map_hasherIS5_S7_NS4_15DocumentKeyHashENS_8equal_toIS5_EELb1EEENS_21__unordered_map_equalIS5_S7_SB_S9_Lb1EEENS_9allocatorIS7_EEE21__construct_node_hashIRKS5_JRKS6_EEENS_10unique_ptrINS_11__hash_nodeIS7_PvEENS_22__hash_node_destructorINSF_ISQ_EEEEEEmOT_DpOT0_",
            "__ZNSt3__16vectorINS_12basic_stringIcNS_11char_traitsIcEENS_9allocatorIcEEEENS4_IS6_EEE18__construct_at_endINS_11__wrap_iterIPKS6_EESD_EEvT_T0_m",
            "__ZN8firebase9firestore4util20ThrowInvalidArgumentIJN4absl12lts_2024011611string_viewEEEEvPKcDpRKT_",
            "__ZNSt3__112__hash_tableINS_17__hash_value_typeIN8firebase9firestore5model11DocumentKeyEPNS3_4util17RandomAccessQueueIS5_JNS4_15DocumentKeyHashEEE10QueueEntryEEENS_22__unordered_map_hasherIS5_SC_S8_NS_8equal_toIS5_EELb1EEENS_21__unordered_map_equalIS5_SC_SF_S8_Lb1EEENS_9allocatorISC_EEE4findIS5_EENS_15__hash_iteratorIPNS_11__hash_nodeISC_PvEEEERKT_",
            "__ZN8firebase9firestore6nanopb17PrintMessageFieldINS0_23_google_protobuf_StructEEENSt3__112basic_stringIcNS4_11char_traitsIcEENS4_9allocatorIcEEEEN4absl12lts_2024011611string_viewERKT_ib",
            "__ZN8firebase9firestore4util12StringFormatIJNS0_6remote6Stream5StateEEEENSt3__112basic_stringIcNS6_11char_traitsIcEENS6_9allocatorIcEEEEPKcDpRKT_",
            "__ZN8firebase9firestore4util7CompareIjNS1_10ComparatorIjEEEENS1_16ComparisonResultERKT_S8_RKT0_",
            "__ZN8firebase9firestore6nanopb14MakeByteStringINS0_31_firestore_client_MaybeDocumentEEENS1_10ByteStringERKNS1_7MessageIT_EE",
            "__ZNK8firebase9firestore9immutable4impl8LlrbNodeINS0_5local20DocumentKeyReferenceENS0_4util5EmptyEE6insertINS5_5ByKeyEEES8_RKS5_RKS7_RKT_",
            "__ZNSt3__16vectorIN8firebase9firestore4core6FilterENS_9allocatorIS4_EEE18__construct_at_endINS_11__wrap_iterIPKS4_EESC_EEvT_T0_m",
            "__ZN8firebase9firestore4util4HashIJNS0_5model9FieldPathENS3_18TransformOperationEEEEmDpRKT_",
            "__ZN8firebase9firestore4util4impl12HashInternalIbJNS0_5model12Precondition4TypeEEEEmmRKT_DpRKT0_",
            "__ZN8firebase9firestore4util4HashIJNS0_3api14DocumentChange4TypeENS3_16DocumentSnapshotEmmEEEmDpRKT_",
            "__ZNSt3__112__hash_tableINS_17__hash_value_typeIiNS_6vectorINS_8functionIFvN8firebase9firestore4util6StatusEEEENS_9allocatorIS9_EEEEEENS_22__unordered_map_hasherIiSD_NS_4hashIiEENS_8equal_toIiEELb1EEENS_21__unordered_map_equalIiSD_SI_SG_Lb1EEENSA_ISD_EEE21__construct_node_hashIRKNS_21piecewise_construct_tEJNS_5tupleIJRKiEEENSS_IJEEEEEENS_10unique_ptrINS_11__hash_nodeISD_PvEENS_22__hash_node_destructorINSA_IS10_EEEEEEmOT_DpOT0_",
            "__ZNSt3__112__hash_tableINS_17__hash_value_typeIiN8firebase9firestore5model10IndexStateEEENS_22__unordered_map_hasherIiS6_NS_4hashIiEENS_8equal_toIiEELb1EEENS_21__unordered_map_equalIiS6_SB_S9_Lb1EEENS_9allocatorIS6_EEE8__rehashILb1EEEvm",
            "__ZNKR8firebase9firestore4util8StatusOrIN4grpc10ByteBufferEE6statusEv",
            "__ZN8firebase9firestore4util4impl12HashInternalIbJbbEEEmmRKT_DpRKT0_",
            "__ZN8firebase9firestore6nanopb17PrintMessageFieldINS0_43_google_firestore_admin_v1_Index_IndexFieldEEENSt3__112basic_stringIcNS4_11char_traitsIcEENS4_9allocatorIcEEEEN4absl12lts_2024011611string_viewERKT_ib",
            "__ZN8firebase9firestore9immutable4impl8LlrbNodeINS0_5model11DocumentKeyENS4_15MutableDocumentEE12MoveRedRightEv",
            "__ZNSt3__112__hash_tableINS_17__hash_value_typeIiN8firebase9firestore5model10IndexStateEEENS_22__unordered_map_hasherIiS6_NS_4hashIiEENS_8equal_toIiEELb1EEENS_21__unordered_map_equalIiS6_SB_S9_Lb1EEENS_9allocatorIS6_EEE25__emplace_unique_key_argsIiJNS_4pairIKiS5_EEEEENSJ_INS_15__hash_iteratorIPNS_11__hash_nodeIS6_PvEEEEbEERKT_DpOT0_",
            "__ZNSt3__16__treeIN8firebase9firestore5model10FieldIndexENS4_12SemanticLessENS_9allocatorIS4_EEE16__construct_nodeIJS4_EEENS_10unique_ptrINS_11__tree_nodeIS4_PvEENS_22__tree_node_destructorINS6_ISD_EEEEEEDpOT_",
            "__ZN8firebase9firestore4util4impl16RankedInvokeHashINS0_5model14AggregateField6OpKindEvEEmT_NS2_10HashChoiceILi5EEE",
            "__ZN4absl12lts_2024011618container_internal15memory_internal17DecomposePairImplINS1_12raw_hash_setINS1_17FlatHashMapPolicyINSt3__112basic_stringIcNS6_11char_traitsIcEENS6_9allocatorIcEEEESC_EENS1_10StringHashENS1_8StringEqENSA_INS6_4pairIKSC_SC_EEEEE11HashElementERSH_NS6_5tupleIJSM_EEEEEDTclclsr3stdE7declvalIT_EEclsr3stdE7declvalIRKT0_EEL_ZNS6_L19piecewise_constructEEclsr3stdE7declvalINSN_IJSQ_EEEEEclsr3stdE7declvalIT1_EEEEOSP_NSG_IST_SU_EE",
            "__ZN8firebase9firestore4util12StringFormatIJNS0_5ErrorEEEENSt3__112basic_stringIcNS4_11char_traitsIcEENS4_9allocatorIcEEEEPKcDpRKT_",
            "__ZN8firebase9firestore4util4impl10InvokeHashINSt3__16vectorINS0_5model14FieldTransformENS4_9allocatorIS7_EEEEEEmRKT_",
            "__ZN8firebase9firestore4util4impl12HashInternalINS0_5model9FieldPathEJNS4_18TransformOperationEEEEmmRKT_DpRKT0_",
            "__ZN8firebase9firestore6remote14MakeByteBufferINS0_33_google_firestore_v1_WriteRequestEEEN4grpc10ByteBufferERKNS0_6nanopb7MessageIT_EE",
            "__ZN8firebase9firestore6nanopb13MakeStdStringINS0_28_firestore_client_WriteBatchEEENSt3__112basic_stringIcNS4_11char_traitsIcEENS4_9allocatorIcEEEERKNS1_7MessageIT_EE",
            "__ZN8firebase9firestore4util20ThrowInvalidArgumentIJ23NSPredicateOperatorTypeEEEvPKcDpRKT_",
            "__ZN8nlohmann6detail7to_jsonINS_10basic_jsonINSt3__13mapENS3_6vectorENS3_12basic_stringIcNS3_11char_traitsIcEENS3_9allocatorIcEEEEbxydS9_NS_14adl_serializerENS5_IhNS9_IhEEEEEExLi0EEEvRT_T0_",
            "__ZNSt3__112__hash_tableINS_12basic_stringIcNS_11char_traitsIcEENS_9allocatorIcEEEENS_4hashIS6_EENS_8equal_toIS6_EENS4_IS6_EEE4findIS6_EENS_15__hash_iteratorIPNS_11__hash_nodeIS6_PvEEEERKT_",
            "__ZNSt3__112__hash_tableINS_17__hash_value_typeINS_12basic_stringIcNS_11char_traitsIcEENS_9allocatorIcEEEENS_10unique_ptrIN8firebase9firestore5local27LevelDbDocumentOverlayCacheENS_14default_deleteISC_EEEEEENS_22__unordered_map_hasherIS7_SG_NS_4hashIS7_EENS_8equal_toIS7_EELb1EEENS_21__unordered_map_equalIS7_SG_SL_SJ_Lb1EEENS5_ISG_EEE14__erase_uniqueIS7_EEmRKT_",
            "__ZNSt3__16vectorIN8nlohmann10basic_jsonINS_3mapES0_NS_12basic_stringIcNS_11char_traitsIcEENS_9allocatorIcEEEEbxydS7_NS1_14adl_serializerENS0_IhNS7_IhEEEEEENS7_ISD_EEE18__construct_at_endIPSD_SH_EEvT_T0_m",
            "__ZN4absl12lts_2024011618container_internal15memory_internal17DecomposePairImplINS1_12raw_hash_setINS1_17FlatHashMapPolicyINSt3__112basic_stringIcNS6_11char_traitsIcEENS6_9allocatorIcEEEEN8firebase9firestore5model14AggregateFieldEEENS1_10StringHashENS1_8StringEqENSA_INS6_4pairIKSC_SG_EEEEE11FindElementERSL_NS6_5tupleIJRKSG_EEEEEDTclclsr3stdE7declvalIT_EEclsr3stdE7declvalIRKT0_EEL_ZNS6_L19piecewise_constructEEclsr3stdE7declvalINSR_IJSW_EEEEEclsr3stdE7declvalIT1_EEEEOSV_NSK_ISZ_S10_EE",
            "__ZN4absl12lts_202401167c_equalIN8firebase9firestore9immutable9SortedSetINS3_5model8DocumentENS6_18DocumentComparatorEEES9_EEbRKT_RKT0_",
            "__ZN4absl12lts_2024011613hash_internal19hash_range_or_bytesINS1_15MixingHashStateEcEENSt3__19enable_ifIXsr23is_uniquely_representedIT0_EE5valueET_E4typeES7_PKS6_m",
            "__ZN8firebase9firestore4util4impl12HashInternalINS0_4core6TargetEJixNS0_5local12QueryPurposeENS0_5model15SnapshotVersionENS0_6nanopb10ByteStringEN4absl12lts_202401168optionalIiEEEEEmmRKT_DpRKT0_",
            "__ZN8firebase9firestore6nanopb9MakeArrayINS0_59_google_firestore_v1_StructuredAggregationQuery_AggregationEEEPT_j",
            "__ZN8firebase9firestore4util4impl12HashInternalINS0_3api18LocalCacheSettings4KindEJxEEEmmRKT_DpRKT0_",
            "__ZNSt3__112__hash_tableINS_17__hash_value_typeIjPN8firebase9firestore4util4TaskEEENS_22__unordered_map_hasherIjS7_NS_4hashIjEENS_8equal_toIjEELb1EEENS_21__unordered_map_equalIjS7_SC_SA_Lb1EEENS_9allocatorIS7_EEE4findIjEENS_15__hash_iteratorIPNS_11__hash_nodeIS7_PvEEEERKT_",
            "__ZN8firebase9firestore4util20ThrowInvalidArgumentIJNSt3__112basic_stringIcNS3_11char_traitsIcEENS3_9allocatorIcEEEES9_S9_S9_S9_EEEvPKcDpRKT_",
            "__ZNSt3__16vectorIN8firebase9firestore4core19LimboDocumentChangeENS_9allocatorIS4_EEE18__construct_at_endIPS4_S9_EEvT_T0_m",
            "__ZNSt3__112__hash_tableINS_12basic_stringIcNS_11char_traitsIcEENS_9allocatorIcEEEENS_4hashIS6_EENS_8equal_toIS6_EENS4_IS6_EEE25__emplace_unique_key_argsIS6_JS6_EEENS_4pairINS_15__hash_iteratorIPNS_11__hash_nodeIS6_PvEEEEbEERKT_DpOT0_",
            "__ZNSt3__16__treeINS_12__value_typeINS_12basic_stringIcNS_11char_traitsIcEENS_9allocatorIcEEEES7_EENS_19__map_value_compareIS7_S8_NS_4lessIS7_EELb1EEENS5_IS8_EEE14__erase_uniqueIS7_EEmRKT_",
            "__ZNSt3__112__hash_tableINS_17__hash_value_typeIN8firebase9firestore5model11DocumentKeyExEENS_22__unordered_map_hasherIS5_S6_NS4_15DocumentKeyHashENS_8equal_toIS5_EELb1EEENS_21__unordered_map_equalIS5_S6_SA_S8_Lb1EEENS_9allocatorIS6_EEE21__construct_node_hashIRKNS_21piecewise_construct_tEJNS_5tupleIJRKS5_EEENSL_IJEEEEEENS_10unique_ptrINS_11__hash_nodeIS6_PvEENS_22__hash_node_destructorINSE_IST_EEEEEEmOT_DpOT0_",
            "__ZNSt3__112__hash_tableINS_17__hash_value_typeIiN8firebase9firestore5local12QueryPurposeEEENS_22__unordered_map_hasherIiS6_NS_4hashIiEENS_8equal_toIiEELb1EEENS_21__unordered_map_equalIiS6_SB_S9_Lb1EEENS_9allocatorIS6_EEE25__emplace_unique_key_argsIiJNS_4pairIKiS5_EEEEENSJ_INS_15__hash_iteratorIPNS_11__hash_nodeIS6_PvEEEEbEERKT_DpOT0_",
            "__ZNSt3__16vectorIPN8firebase9firestore6remote8GrpcCallENS_9allocatorIS5_EEE18__construct_at_endIPS5_SA_EEvT_T0_m",
            "__ZN8firebase9firestore4util4HashIJNS0_5model8Mutation4TypeENS3_11DocumentKeyENS3_12PreconditionENSt3__16vectorINS3_14FieldTransformENS8_9allocatorISA_EEEEEEEmDpRKT_",
            "__ZN8firebase9firestore4util4HashIJPNS0_3api9FirestoreENS0_4core5QueryEEEEmDpRKT_",
            "__ZN8firebase9firestore9immutable4impl8KeysViewINS1_9SortedMapINS0_5model11DocumentKeyENS5_15MutableDocumentENS0_4util10ComparatorIS6_EEEEEENS8_5rangeINS8_14iterator_firstIDTclsr3stdE5beginfp_EEEEEERKT_",
            "__ZN8firebase9firestore6nanopb17PrintMessageFieldINS0_59_google_firestore_v1_AggregationResult_AggregateFieldsEntryEEENSt3__112basic_stringIcNS4_11char_traitsIcEENS4_9allocatorIcEEEEN4absl12lts_2024011611string_viewERKT_ib",
            "__ZN8firebase9firestore9immutable4impl8LlrbNodeINS0_5local20DocumentKeyReferenceENS0_4util5EmptyEE12FixRootColorEv",
            "__ZN8firebase9firestore4util4HashIJNSt3__112basic_stringIcNS3_11char_traitsIcEENS3_9allocatorIcEEEEbEEEmDpRKT_",
            "__ZN8firebase9firestore4util20ThrowInvalidArgumentIJPKcEEEvS4_DpRKT_",
            "__ZNSt3__16__treeINS_12__value_typeINS_12basic_stringIcNS_11char_traitsIcEENS_9allocatorIcEEEEN8nlohmann10basic_jsonINS_3mapENS_6vectorES7_bxydS5_NS8_14adl_serializerENSB_IhNS5_IhEEEEEEEENS_19__map_value_compareIS7_SG_NS_4lessIvEELb1EEENS5_ISG_EEE4findIA14_cEENS_15__tree_iteratorISG_PNS_11__tree_nodeISG_PvEElEERKT_",
            "__ZN8firebase9firestore4util12StringFormatIJN4absl12lts_2024011611string_viewEiNSt3__112basic_stringIcNS6_11char_traitsIcEENS6_9allocatorIcEEEEEEESC_PKcDpRKT_",
            "__ZN4absl12lts_2024011618container_internal15memory_internal17DecomposePairImplINS1_12raw_hash_setINS1_17FlatHashMapPolicyINSt3__112basic_stringIcNS6_11char_traitsIcEENS6_9allocatorIcEEEEN8firebase9firestore5model14AggregateFieldEEENS1_10StringHashENS1_8StringEqENSA_INS6_4pairIKSC_SG_EEEEE11HashElementERSL_NS6_5tupleIJRKSG_EEEEEDTclclsr3stdE7declvalIT_EEclsr3stdE7declvalIRKT0_EEL_ZNS6_L19piecewise_constructEEclsr3stdE7declvalINSR_IJSW_EEEEEclsr3stdE7declvalIT1_EEEEOSV_NSK_ISZ_S10_EE",
            "__ZNSt3__112__hash_tableINS_17__hash_value_typeIN8firebase9firestore5model11DocumentKeyEN4absl12lts_202401168optionalINS4_9FieldMaskEEEEENS_22__unordered_map_hasherIS5_SB_NS4_15DocumentKeyHashENS_8equal_toIS5_EELb1EEENS_21__unordered_map_equalIS5_SB_SF_SD_Lb1EEENS_9allocatorISB_EEE8__rehashILb1EEEvm",
            "__ZNSt3__16vectorINS_12basic_stringIcNS_11char_traitsIcEENS_9allocatorIcEEEENS4_IS6_EEE18__construct_at_endIPS6_SA_EEvT_T0_m",
            "__ZNSt3__16__treeINS_12__value_typeINS_12basic_stringIcNS_11char_traitsIcEENS_9allocatorIcEEEEN8nlohmann10basic_jsonINS_3mapENS_6vectorES7_bxydS5_NS8_14adl_serializerENSB_IhNS5_IhEEEEEEEENS_19__map_value_compareIS7_SG_NS_4lessIvEELb1EEENS5_ISG_EEE13__lower_boundIA5_cEENS_15__tree_iteratorISG_PNS_11__tree_nodeISG_PvEElEERKT_ST_PNS_15__tree_end_nodeIPNS_16__tree_node_baseISR_EEEE",
            "__ZN8firebase9firestore4util12StringFormatIJN4absl12lts_2024011611string_viewENSt3__112basic_stringIcNS6_11char_traitsIcEENS6_9allocatorIcEEEEEEESC_PKcDpRKT_",
            "__ZN8firebase9firestore4util4impl10InvokeHashIPNS0_3api9FirestoreEEEmRKT_",
            "__ZN8firebase9firestore4core13EventListenerINS0_4util5EmptyEE6CreateENSt3__18functionIFvNS3_8StatusOrIS4_EEEEE",
            "__ZN8firebase9firestore6nanopb14PrintEnumFieldINS0_65_google_firestore_v1_DocumentTransform_FieldTransform_ServerValueEEENSt3__112basic_stringIcNS4_11char_traitsIcEENS4_9allocatorIcEEEEN4absl12lts_2024011611string_viewET_ib",
            "__ZNSt3__112__hash_tableINS_17__hash_value_typeIiNS_13unordered_setIN8firebase9firestore5model11DocumentKeyENS5_15DocumentKeyHashENS_8equal_toIS6_EENS_9allocatorIS6_EEEEEENS_22__unordered_map_hasherIiSD_NS_4hashIiEENS8_IiEELb1EEENS_21__unordered_map_equalIiSD_SH_SG_Lb1EEENSA_ISD_EEE4findIiEENS_15__hash_iteratorIPNS_11__hash_nodeISD_PvEEEERKT_",
            "__ZNSt3__112__hash_tableIiNS_4hashIiEENS_8equal_toIiEENS_9allocatorIiEEE21__construct_node_hashIRKiJEEENS_10unique_ptrINS_11__hash_nodeIiPvEENS_22__hash_node_destructorINS5_ISE_EEEEEEmOT_DpOT0_",
            "__ZNSt3__112__hash_tableINS_17__hash_value_typeIN8firebase9firestore4core5QueryENS4_12EventManager18QueryListenersInfoEEENS_22__unordered_map_hasherIS5_S8_NS_4hashIS5_EENS_8equal_toIS5_EELb1EEENS_21__unordered_map_equalIS5_S8_SD_SB_Lb1EEENS_9allocatorIS8_EEE8__rehashILb1EEEvm",
            "__ZNSt3__16__treeINS_12basic_stringIcNS_11char_traitsIcEENS_9allocatorIcEEEENS_4lessIS6_EENS4_IS6_EEE30__emplace_hint_unique_key_argsIS6_JRKS6_EEENS_4pairINS_15__tree_iteratorIS6_PNS_11__tree_nodeIS6_PvEElEEbEENS_21__tree_const_iteratorIS6_SJ_lEERKT_DpOT0_",
            "__ZN8firebase9firestore4util8ToStringINS0_6nanopb10ByteStringEEENSt3__112basic_stringIcNS5_11char_traitsIcEENS5_9allocatorIcEEEERKT_",
            "__ZNSt3__112__hash_tableIN8firebase9firestore5model11DocumentKeyENS3_15DocumentKeyHashENS_8equal_toIS4_EENS_9allocatorIS4_EEE25__emplace_unique_key_argsIS4_JS4_EEENS_4pairINS_15__hash_iteratorIPNS_11__hash_nodeIS4_PvEEEEbEERKT_DpOT0_",
            "__ZN8firebase9firestore6nanopb13MakeStdStringINS0_24_firestore_client_TargetEEENSt3__112basic_stringIcNS4_11char_traitsIcEENS4_9allocatorIcEEEERKNS1_7MessageIT_EE",
            "__ZN8firebase9firestore6nanopb14PrintEnumFieldINS0_38_google_firestore_admin_v1_Index_StateEEENSt3__112basic_stringIcNS4_11char_traitsIcEENS4_9allocatorIcEEEEN4absl12lts_2024011611string_viewET_ib",
            "__ZN8firebase9firestore4util4HashIJNS0_9immutable9SortedSetINS0_5model8DocumentENS5_18DocumentComparatorEEEEEEmDpRKT_",
            "__ZN8firebase9firestore6nanopb21ReleaseFieldOwnershipINS0_41_google_firestore_v1_Document_FieldsEntryEEEvPT_j",
            "__ZNSt3__112__hash_tableINS_10shared_ptrIN8firebase9firestore4core13EventListenerINS3_4util5EmptyEEEEENS_4hashIS9_EENS_8equal_toIS9_EENS_9allocatorIS9_EEE14__erase_uniqueIS9_EEmRKT_",
            "__ZN8firebase9firestore4util12StringFormatIJNSt3__112basic_stringIcNS3_11char_traitsIcEENS3_9allocatorIcEEEEiEEES9_PKcDpRKT_",
            "__ZNK8firebase9firestore9immutable4impl8LlrbNodeINS0_5model11DocumentKeyENS4_8DocumentEE5eraseINS0_4util10ComparatorIS5_EEEES7_RKS5_RKT_",
            "__ZN8firebase9firestore6nanopb16SetRepeatedFieldINS0_26_google_firestore_v1_ValueEN4absl12lts_202401164SpanIS3_EEZNS1_16SetRepeatedFieldIS3_S7_EEvPPT_PjRKT0_EUlRKS3_E_EEvSB_SC_SF_RKT1_",
            "__ZNSt3__112__hash_tableINS_17__hash_value_typeINS_12basic_stringIcNS_11char_traitsIcEENS_9allocatorIcEEEENS_13unordered_mapIiN8firebase9firestore5model10FieldIndexENS_4hashIiEENS_8equal_toIiEENS5_INS_4pairIKiSC_EEEEEEEENS_22__unordered_map_hasherIS7_SM_NSD_IS7_EENSF_IS7_EELb1EEENS_21__unordered_map_equalIS7_SM_SP_SO_Lb1EEENS5_ISM_EEE21__construct_node_hashIRKNS_21piecewise_construct_tEJNS_5tupleIJRKS7_EEENSZ_IJEEEEEENS_10unique_ptrINS_11__hash_nodeISM_PvEENS_22__hash_node_destructorINS5_IS17_EEEEEEmOT_DpOT0_",
            "__ZN8nlohmann6detail7to_jsonINS_10basic_jsonINSt3__13mapENS3_6vectorENS3_12basic_stringIcNS3_11char_traitsIcEENS3_9allocatorIcEEEEbxydS9_NS_14adl_serializerENS5_IhNS9_IhEEEEEEA8_cLi0EEEvRT_RKT0_",
            "__ZNSt3__112__hash_tableINS_17__hash_value_typeINS_12basic_stringIcNS_11char_traitsIcEENS_9allocatorIcEEEENS_10unique_ptrIN8firebase9firestore5local27LevelDbDocumentOverlayCacheENS_14default_deleteISC_EEEEEENS_22__unordered_map_hasherIS7_SG_NS_4hashIS7_EENS_8equal_toIS7_EELb1EEENS_21__unordered_map_equalIS7_SG_SL_SJ_Lb1EEENS5_ISG_EEE25__emplace_unique_key_argsIS7_JNS_4pairIKS7_SF_EEEEENSS_INS_15__hash_iteratorIPNS_11__hash_nodeISG_PvEEEEbEERKT_DpOT0_",
            "__ZNSt3__112__hash_tableINS_17__hash_value_typeIN8firebase9firestore4core6TargetEiEENS_22__unordered_map_hasherIS5_S6_NS_4hashIS5_EENS_8equal_toIS5_EELb1EEENS_21__unordered_map_equalIS5_S6_SB_S9_Lb1EEENS_9allocatorIS6_EEE8__rehashILb1EEEvm",
            "__ZNSt3__112__hash_tableINS_17__hash_value_typeIN8firebase9firestore5model11DocumentKeyEPNS4_15MutableDocumentEEENS_22__unordered_map_hasherIS5_S8_NS4_15DocumentKeyHashENS_8equal_toIS5_EELb1EEENS_21__unordered_map_equalIS5_S8_SC_SA_Lb1EEENS_9allocatorIS8_EEE11__do_rehashILb1EEEvm",
            "__ZN8firebase9firestore4util4impl12HashInternalIPNS0_3api9FirestoreEJNS0_4core5QueryENS7_12ViewSnapshotENS4_16SnapshotMetadataEEEEmmRKT_DpRKT0_",
            "__ZNSt3__16vectorIN8firebase9firestore4core6TargetENS_9allocatorIS4_EEE6assignIPS4_Li0EEEvT_SA_",
            "__ZNSt3__112__hash_tableINS_17__hash_value_typeIiN8firebase9firestore5model10FieldIndexEEENS_22__unordered_map_hasherIiS6_NS_4hashIiEENS_8equal_toIiEELb1EEENS_21__unordered_map_equalIiS6_SB_S9_Lb1EEENS_9allocatorIS6_EEE8__rehashILb1EEEvm",
            "__ZNSt3__112__hash_tableINS_17__hash_value_typeIiNS_8functionIFvN8firebase9firestore4util6StatusEEEEEENS_22__unordered_map_hasherIiS9_NS_4hashIiEENS_8equal_toIiEELb1EEENS_21__unordered_map_equalIiS9_SE_SC_Lb1EEENS_9allocatorIS9_EEE25__emplace_unique_key_argsIiJNS_4pairIiS8_EEEEENSM_INS_15__hash_iteratorIPNS_11__hash_nodeIS9_PvEEEEbEERKT_DpOT0_",
            "__ZN8firebase9firestore4util4impl12HashInternalINS0_3api16SnapshotMetadataEJEEEmmRKT_DpRKT0_",
            "__ZNSt3__112__hash_tableINS_17__hash_value_typeIN8firebase9firestore5model11DocumentKeyENS4_7OverlayEEENS_22__unordered_map_hasherIS5_S7_NS4_15DocumentKeyHashENS_8equal_toIS5_EELb1EEENS_21__unordered_map_equalIS5_S7_SB_S9_Lb1EEENS_9allocatorIS7_EEE25__emplace_unique_key_argsIS5_JRKNS_4pairIKS5_S6_EEEEENSJ_INS_15__hash_iteratorIPNS_11__hash_nodeIS7_PvEEEEbEERKT_DpOT0_",
            "__ZN8firebase9firestore4util4impl12HashInternalImJmEEEmmRKT_DpRKT0_",
            "__ZNSt3__112__hash_tableINS_17__hash_value_typeIiN8firebase9firestore5local10TargetDataEEENS_22__unordered_map_hasherIiS6_NS_4hashIiEENS_8equal_toIiEELb1EEENS_21__unordered_map_equalIiS6_SB_S9_Lb1EEENS_9allocatorIS6_EEE25__emplace_unique_key_argsIiJRiS5_EEENS_4pairINS_15__hash_iteratorIPNS_11__hash_nodeIS6_PvEEEEbEERKT_DpOT0_",
            "__ZNO8firebase9firestore4util8StatusOrINS0_4core6FilterEE10ValueOrDieEv",
            "__ZN4absl12lts_2024011616strings_internal9JoinRangeINSt3__16vectorIN8firebase9firestore4core18DocumentViewChangeENS3_9allocatorIS8_EEEERZNS6_4util4impl12ToStringImplISB_vEENS3_12basic_stringIcNS3_11char_traitsIcEENS9_IcEEEERKT_NSD_14ToStringChoiceILi5EEEEUlPSJ_RKS8_E_EESJ_SM_NS0_11string_viewEOT0_",
            "__ZNSt3__112__hash_tableINS_12basic_stringIcNS_11char_traitsIcEENS_9allocatorIcEEEENS_4hashIS6_EENS_8equal_toIS6_EENS4_IS6_EEE8__rehashILb1EEEvm",
            "__ZNSt3__112__hash_tableINS_17__hash_value_typeIN8firebase9firestore5model11DocumentKeyENS_3setIiNS_4lessIiEENS_9allocatorIiEEEEEENS_22__unordered_map_hasherIS5_SC_NS4_15DocumentKeyHashENS_8equal_toIS5_EELb1EEENS_21__unordered_map_equalIS5_SC_SG_SE_Lb1EEENS9_ISC_EEE11__do_rehashILb1EEEvm",
            "__ZNSt3__16vectorIN8firebase9firestore5model14AggregateFieldENS_9allocatorIS4_EEE18__construct_at_endIPS4_S9_EEvT_T0_m",
            "__ZN8firebase9firestore4util4HashIJNSt3__112basic_stringIcNS3_11char_traitsIcEENS3_9allocatorIcEEEES9_EEEmDpRKT_",
            "__ZN8firebase9firestore6nanopb15FreeFieldsArrayINS0_26_google_firestore_v1_ValueEEEvPT_",
            "__ZN8firebase9firestore4core18AsyncEventListenerINS1_12ViewSnapshotEE6CreateENSt3__110shared_ptrINS0_4util8ExecutorEEEONS5_10unique_ptrINS1_13EventListenerIS3_EENS5_14default_deleteISC_EEEE",
            "__ZNSt3__16__treeIN8firebase9firestore5model9FieldPathENS_4lessIS4_EENS_9allocatorIS4_EEE12__find_equalIS4_EERPNS_16__tree_node_baseIPvEERPNS_15__tree_end_nodeISE_EERKT_",
            "__ZNSt3__16vectorIN8firebase9firestore4core7OrderByENS_9allocatorIS4_EEE6assignIPS4_Li0EEEvT_SA_",
            "__ZNSt3__112__hash_tableINS_17__hash_value_typeINS_12basic_stringIcNS_11char_traitsIcEENS_9allocatorIcEEEENS_10unique_ptrIN8firebase9firestore5local19LevelDbIndexManagerENS_14default_deleteISC_EEEEEENS_22__unordered_map_hasherIS7_SG_NS_4hashIS7_EENS_8equal_toIS7_EELb1EEENS_21__unordered_map_equalIS7_SG_SL_SJ_Lb1EEENS5_ISG_EEE4findIS7_EENS_15__hash_iteratorIPNS_11__hash_nodeISG_PvEEEERKT_",
            "__ZN4absl12lts_2024011618container_internal8PairArgsIKNSt3__112basic_stringIcNS3_11char_traitsIcEENS3_9allocatorIcEEEES9_EENS3_4pairINS3_5tupleIJRKT_EEENSC_IJRKT0_EEEEERKNSB_ISD_SH_EE",
            "__ZN8firebase9firestore4util4impl12HashInternalINS0_4core12ViewSnapshotEJNS0_3api16SnapshotMetadataEEEEmmRKT_DpRKT0_",
            "__ZNSt3__112__hash_tableINS_17__hash_value_typeIN8firebase9firestore5model11DocumentKeyExEENS_22__unordered_map_hasherIS5_S6_NS4_15DocumentKeyHashENS_8equal_toIS5_EELb1EEENS_21__unordered_map_equalIS5_S6_SA_S8_Lb1EEENS_9allocatorIS6_EEE4findIS5_EENS_15__hash_iteratorIPNS_11__hash_nodeIS6_PvEEEERKT_",
            "__ZN8firebase9firestore9immutable4impl8LlrbNodeINS0_5model11DocumentKeyENS4_8DocumentEE12MoveRedRightEv",
            "__ZN8firebase9firestore9immutable4impl8LlrbNodeINS0_5model11DocumentKeyENS4_8DocumentEE9RemoveMinEv",
            "__ZNK8firebase9firestore9immutable4impl8LlrbNodeINS0_5model11DocumentKeyENS4_8DocumentEE6insertINS0_4util10ComparatorIS5_EEEES7_RKS5_RKS6_RKT_",
            "__ZN8firebase9firestore4util4impl16RankedInvokeHashINS0_5model18TransformOperationEEEDTcldtfp_4HashEERKT_NS2_10HashChoiceILi0EEE",
            "__ZNSt3__112__hash_tableINS_17__hash_value_typeINS_12basic_stringIcNS_11char_traitsIcEENS_9allocatorIcEEEENS_10unique_ptrIN8firebase9firestore5local30LevelDbOverlayMigrationManagerENS_14default_deleteISC_EEEEEENS_22__unordered_map_hasherIS7_SG_NS_4hashIS7_EENS_8equal_toIS7_EELb1EEENS_21__unordered_map_equalIS7_SG_SL_SJ_Lb1EEENS5_ISG_EEE21__construct_node_hashINS_4pairIKS7_SF_EEJEEENS8_INS_11__hash_nodeISG_PvEENS_22__hash_node_destructorINS5_ISX_EEEEEEmOT_DpOT0_",
            "__ZNSt3__16__treeIN8firebase9firestore5model12ResourcePathENS_4lessIS4_EENS_9allocatorIS4_EEE12__find_equalIS4_EERPNS_16__tree_node_baseIPvEERPNS_15__tree_end_nodeISE_EERKT_",
            "__ZN8firebase9firestore4util12StringFormatIJNSt3__112basic_stringIcNS3_11char_traitsIcEENS3_9allocatorIcEEEEPKcS9_EEES9_SB_DpRKT_",
            "__ZNSt3__114__split_bufferIPPN8firebase9firestore4util4TaskERNS_9allocatorIS6_EEE18__construct_at_endINS_13move_iteratorIPS6_EEEENS_9enable_ifIXsr31__has_forward_iterator_categoryIT_EE5valueEvE4typeESG_SG_",
            "__ZNO8firebase9firestore4util8StatusOrINS0_6remote11BloomFilterEE10ValueOrDieEv",
            "__ZNK8firebase9firestore9immutable4impl8LlrbNodeINS0_5model11DocumentKeyENS4_7OverlayEE5eraseINS0_4util10ComparatorIS5_EEEES7_RKS5_RKT_",
            "__ZNSt3__113basic_filebufIcNS_11char_traitsIcEEE12__write_modeEv",
            "__ZN8firebase9firestore6nanopb9MakeArrayINS0_46_google_firestore_v1_ListenRequest_LabelsEntryEEEPT_j",
            "__ZN8firebase9firestore4util4impl12ToStringImplINSt3__16vectorINS4_12basic_stringIcNS4_11char_traitsIcEENS4_9allocatorIcEEEENS9_ISB_EEEEvEESB_RKT_NS2_14ToStringChoiceILi5EEE",
            "__ZN8firebase9firestore6nanopb7MessageINS0_25_firestore_BundleMetadataEE8TryParseEPNS1_6ReaderE",
            "__ZN4absl12lts_2024011618container_internal10DeallocateILm8ENSt3__19allocatorINS3_4pairIKNS3_12basic_stringIcNS3_11char_traitsIcEENS4_IcEEEEN8firebase9firestore5model14AggregateFieldEEEEEEEvPT0_Pvm",
            "__ZN4absl12lts_2024011618container_internal8PairArgsINSt3__112basic_stringIcNS3_11char_traitsIcEENS3_9allocatorIcEEEEN8firebase9firestore5model14AggregateFieldEEENS3_4pairINS3_5tupleIJOT_EEENSF_IJOT0_EEEEESH_SK_",
            "__ZN8firebase9firestore9immutable4impl8LlrbNodeINS0_5model11DocumentKeyENS4_8DocumentEE5FixUpEv",
            "__ZN4absl12lts_2024011616strings_internal9JoinRangeINSt3__16vectorINS3_12basic_stringIcNS3_11char_traitsIcEENS3_9allocatorIcEEEENS8_ISA_EEEERZN8firebase9firestore4util4impl12ToStringImplISC_vEESA_RKT_NSG_14ToStringChoiceILi5EEEEUlPSA_RKSA_E_EESA_SK_NS0_11string_viewEOT0_",
            "__ZN8firebase9firestore4util4HashIJNS0_3api18LocalCacheSettings4KindExEEEmDpRKT_",
            "__ZN8firebase9firestore4util4impl12HashInternalIPNS0_3api9FirestoreEJNS0_5model11DocumentKeyEEEEmmRKT_DpRKT0_",
            "__ZN8firebase9firestore6nanopb13MakeStdStringINS0_32_google_firestore_admin_v1_IndexEEENSt3__112basic_stringIcNS4_11char_traitsIcEENS4_9allocatorIcEEEERKNS1_7MessageIT_EE",
            "__ZNSt3__112__hash_tableINS_17__hash_value_typeIiN8firebase9firestore5local10TargetDataEEENS_22__unordered_map_hasherIiS6_NS_4hashIiEENS_8equal_toIiEELb1EEENS_21__unordered_map_equalIiS6_SB_S9_Lb1EEENS_9allocatorIS6_EEE11__do_rehashILb1EEEvm",
            "__ZN8firebase9firestore4util4impl16RankedInvokeHashINS0_5model8DocumentEEEDTcldtfp_4HashEERKT_NS2_10HashChoiceILi0EEE",
            "__ZNO8firebase9firestore4util8StatusOrINS1_4PathEE10ValueOrDieEv",
            "__ZN8firebase9firestore4util10make_rangeIPKhEENS1_5rangeIT_EES6_S6_",
            "__ZN8firebase9firestore4util4impl12HashInternalImJN4absl12lts_202401168optionalINS0_5model9FieldMaskEEENS7_11ObjectValueEEEEmmRKT_DpRKT0_",
            "__ZN4absl12lts_2024011618container_internal8PairArgsIRKNSt3__112basic_stringIcNS3_11char_traitsIcEENS3_9allocatorIcEEEERKN8firebase9firestore5model14AggregateFieldEEENS3_4pairINS3_5tupleIJOT_EEENSJ_IJOT0_EEEEESL_SO_",
            "__ZNKSt3__112__hash_tableINS_17__hash_value_typeIjPN8firebase9firestore4util4TaskEEENS_22__unordered_map_hasherIjS7_NS_4hashIjEENS_8equal_toIjEELb1EEENS_21__unordered_map_equalIjS7_SC_SA_Lb1EEENS_9allocatorIS7_EEE4findIjEENS_21__hash_const_iteratorIPNS_11__hash_nodeIS7_PvEEEERKT_",
            "__ZNSt3__112__hash_tableINS_17__hash_value_typeIiN8firebase9firestore5local12QueryPurposeEEENS_22__unordered_map_hasherIiS6_NS_4hashIiEENS_8equal_toIiEELb1EEENS_21__unordered_map_equalIiS6_SB_S9_Lb1EEENS_9allocatorIS6_EEE8__rehashILb1EEEvm",
            "__ZNSt3__16vectorIN8firebase9firestore4core11FieldFilterENS_9allocatorIS4_EEE18__construct_at_endIPKS4_SA_EEvT_T0_m",
            "__ZN8nlohmann6detail9from_jsonINS_10basic_jsonINSt3__13mapENS3_6vectorENS3_12basic_stringIcNS3_11char_traitsIcEENS3_9allocatorIcEEEEbxydS9_NS_14adl_serializerENS5_IhNS9_IhEEEEEEEEvRKT_RNSG_16number_integer_tE",
            "__ZN8firebase9firestore9immutable4impl8LlrbNodeINS0_5model11DocumentKeyENS4_7OverlayEE12MoveRedRightEv",
            "__ZNSt3__112__hash_tableINS_17__hash_value_typeINS_12basic_stringIcNS_11char_traitsIcEENS_9allocatorIcEEEENS_10unique_ptrIN8firebase9firestore5local20LevelDbMutationQueueENS_14default_deleteISC_EEEEEENS_22__unordered_map_hasherIS7_SG_NS_4hashIS7_EENS_8equal_toIS7_EELb1EEENS_21__unordered_map_equalIS7_SG_SL_SJ_Lb1EEENS5_ISG_EEE21__construct_node_hashIRKNS_21piecewise_construct_tEJNS_5tupleIJRKS7_EEENSV_IJEEEEEENS8_INS_11__hash_nodeISG_PvEENS_22__hash_node_destructorINS5_IS12_EEEEEEmOT_DpOT0_",
            "__ZN4absl12lts_2024011618container_internal15memory_internal17DecomposePairImplINS1_12raw_hash_setINS1_17FlatHashMapPolicyINSt3__112basic_stringIcNS6_11char_traitsIcEENS6_9allocatorIcEEEEN8firebase9firestore5model14AggregateFieldEEENS1_10StringHashENS1_8StringEqENSA_INS6_4pairIKSC_SG_EEEEE12EqualElementISC_EERSL_NS6_5tupleIJRKSG_EEEEEDTclclsr3stdE7declvalIT_EEclsr3stdE7declvalIRKT0_EEL_ZNS6_L19piecewise_constructEEclsr3stdE7declvalINSS_IJSX_EEEEEclsr3stdE7declvalIT1_EEEEOSW_NSK_IS10_S11_EE",
            "__ZN8firebase9firestore4util17internal_statusor12PlacementNewINS0_3api16DocumentSnapshotEJRKS5_EEEvPvDpOT0_",
            "__ZN8firebase9firestore9immutable4impl8LlrbNodeINS0_5model11DocumentKeyENS4_7OverlayEE9RemoveMinEv",
            "__ZN4absl12lts_2024011616numbers_internal16safe_strtoi_baseImEEbNS0_11string_viewEPT_i",
            "__ZN8nlohmann6detail20get_arithmetic_valueINS_10basic_jsonINSt3__13mapENS3_6vectorENS3_12basic_stringIcNS3_11char_traitsIcEENS3_9allocatorIcEEEEbxydS9_NS_14adl_serializerENS5_IhNS9_IhEEEEEExLi0EEEvRKT_RT0_",
            "__ZN8firebase9firestore4util8ToStringINS0_5model14MutationResultEEENSt3__112basic_stringIcNS5_11char_traitsIcEENS5_9allocatorIcEEEERKT_",
            "__ZN8firebase9firestore4util20ThrowInvalidArgumentIJmEEEvPKcDpRKT_",
            "__ZN8firebase9firestore4util4impl16RankedInvokeHashINS0_5model8DocumentEEEDTcl10InvokeHashdefp_EERKN4absl12lts_202401168optionalIT_EENS2_10HashChoiceILi4EEE",
            "__ZNSt3__112__hash_tableINS_17__hash_value_typeIiNS_8functionIFvN8firebase9firestore4util6StatusEEEEEENS_22__unordered_map_hasherIiS9_NS_4hashIiEENS_8equal_toIiEELb1EEENS_21__unordered_map_equalIiS9_SE_SC_Lb1EEENS_9allocatorIS9_EEE21__construct_node_hashINS_4pairIiS8_EEJEEENS_10unique_ptrINS_11__hash_nodeIS9_PvEENS_22__hash_node_destructorINSI_ISR_EEEEEEmOT_DpOT0_",
            "__ZN8firebase9firestore4util4impl10InvokeHashINS0_5model12Precondition4TypeEEEmRKT_",
            "__ZN8firebase9firestore4util12StringFormatIJNS0_4core15CompositeFilter8OperatorEEEENSt3__112basic_stringIcNS6_11char_traitsIcEENS6_9allocatorIcEEEEPKcDpRKT_",
            "__ZNSt3__114__split_bufferIPPKN8firebase9firestore9immutable4impl8LlrbNodeINS2_5model8DocumentENS2_4util5EmptyEEERNS_9allocatorISD_EEE28__construct_at_end_with_sizeINS_13move_iteratorIPSD_EEEEvT_m",
            "__ZNSt3__112__hash_tableINS_17__hash_value_typeIN8firebase9firestore4core6TargetENS3_5local10TargetDataEEENS_22__unordered_map_hasherIS5_S8_NS_4hashIS5_EENS_8equal_toIS5_EELb1EEENS_21__unordered_map_equalIS5_S8_SD_SB_Lb1EEENS_9allocatorIS8_EEE8__rehashILb1EEEvm",
            "__ZN4absl12lts_2024011613linear_searchINSt3__111__wrap_iterIPKN8firebase9firestore4util7TimerIdEEES7_EEbT_SB_RKT0_",
            "__ZNKSt3__112__hash_tableINS_17__hash_value_typeIiNS_6vectorIN8firebase9firestore4core5QueryENS_9allocatorIS6_EEEEEENS_22__unordered_map_hasherIiSA_NS_4hashIiEENS_8equal_toIiEELb1EEENS_21__unordered_map_equalIiSA_SF_SD_Lb1EEENS7_ISA_EEE4findIiEENS_21__hash_const_iteratorIPNS_11__hash_nodeISA_PvEEEERKT_",
            "__ZN8firebase9firestore6nanopb17PrintMessageFieldINS0_39_google_firestore_v1_TransactionOptionsEEENSt3__112basic_stringIcNS4_11char_traitsIcEENS4_9allocatorIcEEEEN4absl12lts_2024011611string_viewERKT_ib",
            "__ZN8firebase9firestore4util12StringFormatIJU8__strongP8NSStringEEENSt3__112basic_stringIcNS6_11char_traitsIcEENS6_9allocatorIcEEEEPKcDpRKT_",
            "__ZN4absl12lts_2024011628container_algorithm_internal5c_endINSt3__16vectorINS3_4pairIxNS3_8functionIFvN8firebase9firestore3api22LoadBundleTaskProgressEEEEEENS3_9allocatorISD_EEEEEEDTcl5beginclsr3stdE7declvalIRT_EEEESI_",
            "__ZNO8firebase9firestore4util8StatusOrINSt3__112basic_stringIcNS3_11char_traitsIcEENS3_9allocatorIcEEEEE10ValueOrDieEv",
            "__ZNSt3__112__hash_tableINS_17__hash_value_typeINS_12basic_stringIcNS_11char_traitsIcEENS_9allocatorIcEEEENS_13unordered_mapIiN8firebase9firestore5model10FieldIndexENS_4hashIiEENS_8equal_toIiEENS5_INS_4pairIKiSC_EEEEEEEENS_22__unordered_map_hasherIS7_SM_NSD_IS7_EENSF_IS7_EELb1EEENS_21__unordered_map_equalIS7_SM_SP_SO_Lb1EEENS5_ISM_EEE4findIS7_EENS_15__hash_iteratorIPNS_11__hash_nodeISM_PvEEEERKT_",
            "__ZN8firebase9firestore4util4impl10InvokeHashINS0_5model9FieldPathEEEmRKT_",
            "__ZN8firebase9firestore4util4impl16RankedInvokeHashINS0_3api30MemoryGargabeCollectorSettings12MemoryGcKindEvEEmT_NS2_10HashChoiceILi5EEE",
            "__ZNSt3__112__hash_tableINS_17__hash_value_typeIN8firebase9firestore5model11DocumentKeyENS4_15MutableDocumentEEENS_22__unordered_map_hasherIS5_S7_NS4_15DocumentKeyHashENS_8equal_toIS5_EELb1EEENS_21__unordered_map_equalIS5_S7_SB_S9_Lb1EEENS_9allocatorIS7_EEE25__emplace_unique_key_argsIS5_JRKS5_RKS6_EEENS_4pairINS_15__hash_iteratorIPNS_11__hash_nodeIS7_PvEEEEbEERKT_DpOT0_",
            "__ZN8firebase9firestore4util4impl12HashInternalIiJNS0_5model8MutationEEEEmmRKT_DpRKT0_",
            "__ZNSt3__114__split_bufferIPPKN8firebase9firestore9immutable4impl8LlrbNodeINS2_5model11DocumentKeyENS6_7OverlayEEERNS_9allocatorISC_EEE28__construct_at_end_with_sizeINS_13move_iteratorIPSC_EEEEvT_m",
            "__ZN8firebase9firestore4util4impl12HashInternalINS0_4core5QueryEJEEEmmRKT_DpRKT0_",
            "__ZN8firebase9firestore4util7CompareIdNS1_10ComparatorIdEEEENS1_16ComparisonResultERKT_S8_RKT0_",
            "__ZN8firebase9firestore6nanopb8internal8ToStringIjEENSt3__112basic_stringIcNS4_11char_traitsIcEENS4_9allocatorIcEEEERKT_",
            "__ZNSt3__112__hash_tableINS_17__hash_value_typeIN8firebase9firestore5model11DocumentKeyEPNS3_4util17RandomAccessQueueIS5_JNS4_15DocumentKeyHashEEE10QueueEntryEEENS_22__unordered_map_hasherIS5_SC_S8_NS_8equal_toIS5_EELb1EEENS_21__unordered_map_equalIS5_SC_SF_S8_Lb1EEENS_9allocatorISC_EEE8__rehashILb1EEEvm",
            "__ZN8firebase9firestore4util20ThrowInvalidArgumentIJU8__strongP8NSStringEEEvPKcDpRKT_",
            "__ZN8firebase9firestore4util12StringFormatIJNS0_4core18DocumentViewChange4TypeEEEENSt3__112basic_stringIcNS6_11char_traitsIcEENS6_9allocatorIcEEEEPKcDpRKT_",
            "__ZN4absl12lts_2024011618container_internal15memory_internal17DecomposePairImplINS1_12raw_hash_setINS1_17FlatHashMapPolicyINSt3__112basic_stringIcNS6_11char_traitsIcEENS6_9allocatorIcEEEEN8firebase9firestore5model14AggregateFieldEEENS1_10StringHashENS1_8StringEqENSA_INS6_4pairIKSC_SG_EEEEE19EmplaceDecomposableEOSC_NS6_5tupleIJOSG_EEEEEDTclclsr3stdE7declvalIT_EEclsr3stdE7declvalIRKT0_EEL_ZNS6_L19piecewise_constructEEclsr3stdE7declvalINSR_IJSV_EEEEEclsr3stdE7declvalIT1_EEEEOSU_NSK_ISY_SZ_EE",
            "__ZN4grpc8internal17CallOpSendMessage11SendMessageINS_10ByteBufferEEENS_6StatusERKT_",
            "__ZN8firebase9firestore6nanopb17PrintMessageFieldINS0_27_google_protobuf_Int32ValueEEENSt3__112basic_stringIcNS4_11char_traitsIcEENS4_9allocatorIcEEEEN4absl12lts_2024011611string_viewERKT_ib",
            "__ZN8firebase9firestore4util4impl12HashInternalIxJiEEEmmRKT_DpRKT0_",
            "__ZN8firebase9firestore4util4impl12HashInternalINS0_5model11ObjectValueEJEEEmmRKT_DpRKT0_",
            "__ZNSt3__112__hash_tableINS_17__hash_value_typeINS_12basic_stringIcNS_11char_traitsIcEENS_9allocatorIcEEEENS_10unique_ptrIN8firebase9firestore5local27LevelDbDocumentOverlayCacheENS_14default_deleteISC_EEEEEENS_22__unordered_map_hasherIS7_SG_NS_4hashIS7_EENS_8equal_toIS7_EELb1EEENS_21__unordered_map_equalIS7_SG_SL_SJ_Lb1EEENS5_ISG_EEE8__rehashILb1EEEvm",
            "__ZNSt3__112__hash_tableIPN8firebase9firestore4util4TaskENS_4hashIS5_EENS_8equal_toIS5_EENS_9allocatorIS5_EEE8__rehashILb1EEEvm",
            "__ZNSt3__112__hash_tableINS_17__hash_value_typeIiNS_13unordered_setIN8firebase9firestore5model11DocumentKeyENS5_15DocumentKeyHashENS_8equal_toIS6_EENS_9allocatorIS6_EEEEEENS_22__unordered_map_hasherIiSD_NS_4hashIiEENS8_IiEELb1EEENS_21__unordered_map_equalIiSD_SH_SG_Lb1EEENSA_ISD_EEE25__emplace_unique_key_argsIiJRKNS_21piecewise_construct_tENS_5tupleIJRKiEEENSR_IJEEEEEENS_4pairINS_15__hash_iteratorIPNS_11__hash_nodeISD_PvEEEEbEERKT_DpOT0_",
            "__ZNSt3__112__hash_tableINS_17__hash_value_typeIiN8firebase9firestore5model10FieldIndexEEENS_22__unordered_map_hasherIiS6_NS_4hashIiEENS_8equal_toIiEELb1EEENS_21__unordered_map_equalIiS6_SB_S9_Lb1EEENS_9allocatorIS6_EEE4findIiEENS_15__hash_iteratorIPNS_11__hash_nodeIS6_PvEEEERKT_",
            "__ZN8firebase9firestore4util12StringFormatIJyNSt3__112basic_stringIcNS3_11char_traitsIcEENS3_9allocatorIcEEEEEEES9_PKcDpRKT_",
            "__ZNSt3__112__hash_tableINS_17__hash_value_typeIN8firebase9firestore11credentials4UserENS_13unordered_mapIiNS_8functionIFvNS3_4util6StatusEEEENS_4hashIiEENS_8equal_toIiEENS_9allocatorINS_4pairIKiSB_EEEEEEEENS_22__unordered_map_hasherIS5_SM_NS4_8HashUserENSE_IS5_EELb1EEENS_21__unordered_map_equalIS5_SM_SP_SO_Lb1EEENSG_ISM_EEE4findIS5_EENS_15__hash_iteratorIPNS_11__hash_nodeISM_PvEEEERKT_",
            "__ZN8firebase9firestore6nanopb19PrintPrimitiveFieldIyEENSt3__112basic_stringIcNS3_11char_traitsIcEENS3_9allocatorIcEEEEN4absl12lts_2024011611string_viewET_ib",
            "__ZN8firebase9firestore6nanopb17PrintMessageFieldINS0_33_firestore_client_UnknownDocumentEEENSt3__112basic_stringIcNS4_11char_traitsIcEENS4_9allocatorIcEEEEN4absl12lts_2024011611string_viewERKT_ib",
            "__ZNSt3__112__hash_tableINS_17__hash_value_typeIiN8firebase9firestore5model10IndexStateEEENS_22__unordered_map_hasherIiS6_NS_4hashIiEENS_8equal_toIiEELb1EEENS_21__unordered_map_equalIiS6_SB_S9_Lb1EEENS_9allocatorIS6_EEE21__construct_node_hashINS_4pairIKiS5_EEJEEENS_10unique_ptrINS_11__hash_nodeIS6_PvEENS_22__hash_node_destructorINSF_ISP_EEEEEEmOT_DpOT0_",
            "__ZNSt3__16__treeIN8firebase9firestore5model9FieldPathENS_4lessIS4_EENS_9allocatorIS4_EEE25__emplace_unique_key_argsIS4_JRKS4_EEENS_4pairINS_15__tree_iteratorIS4_PNS_11__tree_nodeIS4_PvEElEEbEERKT_DpOT0_",
            "__ZN8firebase9firestore4util4impl12HashInternalINS0_5model15SnapshotVersionEJNS0_6nanopb10ByteStringEN4absl12lts_202401168optionalIiEEEEEmmRKT_DpRKT0_",
            "__ZN4absl12lts_202401167StrJoinINSt3__16vectorIN8firebase9firestore5model14FieldTransformENS2_9allocatorIS7_EEEEZNS5_4util4impl12ToStringImplISA_vEENS2_12basic_stringIcNS2_11char_traitsIcEENS8_IcEEEERKT_NSC_14ToStringChoiceILi5EEEEUlPSI_RKS7_E_EESI_SL_NS0_11string_viewEOT0_",
            "__ZNSt3__16__treeINS_12__value_typeINS_12basic_stringIcNS_11char_traitsIcEENS_9allocatorIcEEEEN8nlohmann10basic_jsonINS_3mapENS_6vectorES7_bxydS5_NS8_14adl_serializerENSB_IhNS5_IhEEEEEEEENS_19__map_value_compareIS7_SG_NS_4lessIvEELb1EEENS5_ISG_EEE4findIA16_cEENS_15__tree_iteratorISG_PNS_11__tree_nodeISG_PvEElEERKT_",
            "__ZNK8firebase9firestore9immutable4impl8LlrbNodeINS0_5model11DocumentKeyENS4_15MutableDocumentEE5eraseINS0_4util10ComparatorIS5_EEEES7_RKS5_RKT_",
            "__ZN8firebase9firestore4util4impl16RankedInvokeHashINS1_5rangeIPKhEEEEDTcl10InvokeHashdeclsr3stdE5beginfp_EEERKT_NS2_10HashChoiceILi3EEE",
            "__ZNSt3__16__treeINS_12__value_typeIN8firebase9firestore5model11DocumentKeyEiEENS_19__map_value_compareIS5_S6_NS_4lessIS5_EELb1EEENS_9allocatorIS6_EEE4findIS5_EENS_15__tree_iteratorIS6_PNS_11__tree_nodeIS6_PvEElEERKT_",
            "__ZNSt3__112__hash_tableINS_17__hash_value_typeIN8firebase9firestore5model11DocumentKeyEPNS3_4util17RandomAccessQueueIS5_JNS4_15DocumentKeyHashEEE10QueueEntryEEENS_22__unordered_map_hasherIS5_SC_S8_NS_8equal_toIS5_EELb1EEENS_21__unordered_map_equalIS5_SC_SF_S8_Lb1EEENS_9allocatorISC_EEE14__erase_uniqueIS5_EEmRKT_",
            "__ZNKSt3__112__hash_tableINS_17__hash_value_typeIN8firebase9firestore5model11DocumentKeyENS4_15SnapshotVersionEEENS_22__unordered_map_hasherIS5_S7_NS4_15DocumentKeyHashENS_8equal_toIS5_EELb1EEENS_21__unordered_map_equalIS5_S7_SB_S9_Lb1EEENS_9allocatorIS7_EEE4findIS5_EENS_21__hash_const_iteratorIPNS_11__hash_nodeIS7_PvEEEERKT_",
            "__ZN8firebase9firestore4util17internal_statusor12PlacementNewINS1_6StatusEJRKS4_EEEvPvDpOT0_",
            "__ZN8firebase9firestore4util12StringFormatIJPNS0_6remote10GrpcStreamEEEENSt3__112basic_stringIcNS6_11char_traitsIcEENS6_9allocatorIcEEEEPKcDpRKT_",
            "__ZNSt3__112__hash_tableINS_17__hash_value_typeIiNS_10shared_ptrINS_8functionIFvRKN8firebase9firestore4util12TestingHooks27ExistenceFilterMismatchInfoEEEEEEEENS_22__unordered_map_hasherIiSE_NS_4hashIiEENS_8equal_toIiEELb1EEENS_21__unordered_map_equalIiSE_SJ_SH_Lb1EEENS_9allocatorISE_EEE4findIiEENS_15__hash_iteratorIPNS_11__hash_nodeISE_PvEEEERKT_",
            "__ZNSt3__112__hash_tableINS_17__hash_value_typeIN8firebase9firestore5model11DocumentKeyEN4absl12lts_202401168optionalINS4_9FieldMaskEEEEENS_22__unordered_map_hasherIS5_SB_NS4_15DocumentKeyHashENS_8equal_toIS5_EELb1EEENS_21__unordered_map_equalIS5_SB_SF_SD_Lb1EEENS_9allocatorISB_EEE21__construct_node_hashIRKS5_JS9_EEENS_10unique_ptrINS_11__hash_nodeISB_PvEENS_22__hash_node_destructorINSJ_ISS_EEEEEEmOT_DpOT0_",
            "__ZNSt3__112__hash_tableINS_17__hash_value_typeINS_12basic_stringIcNS_11char_traitsIcEENS_9allocatorIcEEEENS_3setIN8firebase9firestore5model12ResourcePathENS_4lessISC_EENS5_ISC_EEEEEENS_22__unordered_map_hasherIS7_SH_NS_4hashIS7_EENS_8equal_toIS7_EELb1EEENS_21__unordered_map_equalIS7_SH_SM_SK_Lb1EEENS5_ISH_EEE11__do_rehashILb1EEEvm",
            "__ZN8firebase9firestore4util4impl10InvokeHashIxEEmRKT_",
            "__ZN8firebase9firestore4util12StringFormatIJNS0_61_google_firestore_v1_StructuredQuery_CompositeFilter_OperatorEEEENSt3__112basic_stringIcNS4_11char_traitsIcEENS4_9allocatorIcEEEEPKcDpRKT_",
            "__ZNSt3__16__treeIN8firebase9firestore4core11FieldFilterENS2_5model18TargetIndexMatcher21FieldFilterComparatorENS_9allocatorIS4_EEE12__find_equalIS4_EERPNS_16__tree_node_baseIPvEERPNS_15__tree_end_nodeISF_EERKT_",
            "__ZNSt3__16__treeINS_12basic_stringIcNS_11char_traitsIcEENS_9allocatorIcEEEENS_4lessIS6_EENS4_IS6_EEE16__construct_nodeIJRKS6_EEENS_10unique_ptrINS_11__tree_nodeIS6_PvEENS_22__tree_node_destructorINS4_ISH_EEEEEEDpOT_",
            "__ZN4absl12lts_2024011613linear_searchINSt3__111__wrap_iterIPKN8firebase9firestore4core11FieldFilter8OperatorEEES8_EEbT_SC_RKT0_",
            "__ZN8firebase9firestore6nanopb17PrintMessageFieldINS0_31_google_firestore_v1_ArrayValueEEENSt3__112basic_stringIcNS4_11char_traitsIcEENS4_9allocatorIcEEEEN4absl12lts_2024011611string_viewERKT_ib",
            "__ZNSt3__112__hash_tableINS_17__hash_value_typeINS_12basic_stringIcNS_11char_traitsIcEENS_9allocatorIcEEEENS_10unique_ptrIN8firebase9firestore5local19LevelDbIndexManagerENS_14default_deleteISC_EEEEEENS_22__unordered_map_hasherIS7_SG_NS_4hashIS7_EENS_8equal_toIS7_EELb1EEENS_21__unordered_map_equalIS7_SG_SL_SJ_Lb1EEENS5_ISG_EEE21__construct_node_hashINS_4pairIKS7_SF_EEJEEENS8_INS_11__hash_nodeISG_PvEENS_22__hash_node_destructorINS5_ISX_EEEEEEmOT_DpOT0_",
            "__ZNKSt3__112__hash_tableINS_17__hash_value_typeINS_12basic_stringIcNS_11char_traitsIcEENS_9allocatorIcEEEEN8firebase9firestore6bundle14BundleMetadataEEENS_22__unordered_map_hasherIS7_SC_NS_4hashIS7_EENS_8equal_toIS7_EELb1EEENS_21__unordered_map_equalIS7_SC_SH_SF_Lb1EEENS5_ISC_EEE4findIS7_EENS_21__hash_const_iteratorIPNS_11__hash_nodeISC_PvEEEERKT_",
